; ============================================================
; Disassembly of: PACKCOM.001
; Size: 40448 bytes (39 KB)
; Format: Turbo Pascal Overlay (8086 real-mode)
; Generated by disasm8086.py
; ============================================================

0000  E8 11 6F                  CALL 6F14h
0003  FF 28                     JMPF  [BX+SI]
0005  BF 9D 55                  MOV  DI, 559Dh
0008  8B EC                     MOV  BP, SP
000A  55                        PUSH BP
000B  E9 5F 27                  JMP  276Dh
000E  0A 53 65                  OR   DL, [BP+DI+65h]
0019  00 0A                     ADD  [BP+SI], CL
001B  53 65 6E 64 49 6E 69 74...  db  "SendInit  "
0025  00 0A                     ADD  [BP+SI], CL
0027  53 65 6E 64 48 65 61 64...  db  "SendHeader"
0031  00 0A                     ADD  [BP+SI], CL
0033  53 65 6E 64 44 61 74 61...  db  "SendData  "
003D  00 0A                     ADD  [BP+SI], CL
003F  53 65 6E 64 45 6F 66 20...  db  "SendEof   "
0049  00 0A                     ADD  [BP+SI], CL
004B  53 65 6E 64 45 4F 54 20...  db  "SendEOT   "
0055  00 0A                     ADD  [BP+SI], CL
0057  52 63 76 57 61 69 74 20...  db  "RcvWait   "
0061  00 0A                     ADD  [BP+SI], CL
0063  52 63 76 48 65 61 64 65...  db  "RcvHeader "
006D  00 0A                     ADD  [BP+SI], CL
006F  52 63 76 44 61 74 61 20...  db  "RcvData   "
0079  00 0A                     ADD  [BP+SI], CL
007B  53 6E 64 41 42 4F 52 54...  db  "SndABORT  "
0085  00 0A                     ADD  [BP+SI], CL
0087  57 61 69 74 41 62 74 41...  db  "WaitAbtAck"
0091  00 0A                     ADD  [BP+SI], CL
0093  52 63 64 41 42 4F 52 54...  db  "RcdABORT  "
009D  00 0A                     ADD  [BP+SI], CL
009F  53 74 61 72 74 20 20 20...  db  "Start     "
00A9  00 02                     ADD  [BP+SI], AL
00AB  55                        PUSH BP
00AC  4B                        DEC  BX
00AD  02 52 52                  ADD  DL, [BP+SI+52h]
00B0  02 52 46                  ADD  DL, [BP+SI+46h]
00B3  02 53 49                  ADD  DL, [BP+DI+49h]
00B6  02 48 44                  ADD  CL, [BX+SI+44h]
00B9  02 44 54                  ADD  AL, [SI+54h]
00BC  02 45 46                  ADD  AL, [DI+46h]
00BF  02 45 54                  ADD  AL, [DI+54h]
00C2  02 4E 52                  ADD  CL, [BP+52h]
00C5  02 43 4E                  ADD  AL, [BP+DI+4Eh]
00C8  02 43 41                  ADD  AL, [BP+DI+41h]
00CB  02 52 49                  ADD  DL, [BP+SI+49h]
00CE  02 54 58                  ADD  DL, [SI+58h]
00D1  02 55 55                  ADD  DL, [DI+55h]
00D4  02 54 4D                  ADD  DL, [SI+4Dh]
00D7  02 41 46                  ADD  AL, [BX+DI+46h]
00DA  02 41 54                  ADD  AL, [BX+DI+54h]
03E9  8B C4                     MOV  AX, SP
03EB  FF 76 FE                  PUSH  [BP-02h]
03EE  8B E8                     MOV  BP, AX
03F0  55                        PUSH BP
03F1  E9 00 00                  JMP  03F4h
03F4  8B 46 04                  MOV  AX, [BP+04h]
03F7  8B 5E FE                  MOV  BX, [BP-02h]
03FA  36                        SS:
03FB  89 87 91 FA               MOV  [BX-056Fh], AX
03FF  E9 00 00                  JMP  0402h
0402  8B E5                     MOV  SP, BP
0404  5D                        POP  BP
0405  C2 02 00                  RET  0002h
0408  55                        PUSH BP
0409  8B C4                     MOV  AX, SP
040B  FF 76 FE                  PUSH  [BP-02h]
040E  8B E8                     MOV  BP, AX
0410  55                        PUSH BP
0411  E9 00 00                  JMP  0414h
0414  83 EC 16                  SUB  SP, 16h
0417  B8 00 2C                  MOV  AX, 2C00h
041A  89 46 E8                  MOV  [BP-18h], AX
041D  8D 7E E8                  LEA  DI, [BP-18h]
0420  16                        PUSH SS
0421  E8 8B 6D                  CALL 71AFh
0424  CD 21                     INT  21h
0426  E8 AE 6D                  CALL 71D7h
0429  8B 46 EE                  MOV  AX, [BP-12h]
042C  8A C4                     MOV  AL, AH
042E  32 E4                     XOR  AH, AH
0430  89 46 E6                  MOV  [BP-1Ah], AX
0433  8B 46 E6                  MOV  AX, [BP-1Ah]
0436  8B 5E FE                  MOV  BX, [BP-02h]
0439  36                        SS:
043A  3B 87 8F FA               CMP  AX, [BX-0571h]
043E  75 03                     JNZ  0443h
0440  E9 1E 00                  JMP  0461h
0443  8B 5E FE                  MOV  BX, [BP-02h]
0446  36                        SS:
0447  8B 87 91 FA               MOV  AX, [BX-056Fh]
044B  2D 01 00                  SUB  AX, 0001h
044E  8B 5E FE                  MOV  BX, [BP-02h]
0451  36                        SS:
0452  89 87 91 FA               MOV  [BX-056Fh], AX
0456  8B 46 E6                  MOV  AX, [BP-1Ah]
0459  8B 5E FE                  MOV  BX, [BP-02h]
045C  36                        SS:
045D  89 87 8F FA               MOV  [BX-0571h], AX
0461  8B 5E FE                  MOV  BX, [BP-02h]
0464  36                        SS:
0465  8B 87 91 FA               MOV  AX, [BX-056Fh]
0469  3D 00 00                  CMP  AX, 0000h
046C  74 03                     JZ   0471h
046E  E9 12 00                  JMP  0483h
0471  B8 01 00                  MOV  AX, 0001h
0474  B9 00 00                  MOV  CX, 0000h
0477  BA 01 00                  MOV  DX, 0001h
047A  E8 8E 6D                  CALL 720Bh
047D  88 46 04                  MOV  [BP+04h], AL
0480  E9 0F 00                  JMP  0492h
0483  B8 00 00                  MOV  AX, 0000h
0486  B9 00 00                  MOV  CX, 0000h
0489  BA 01 00                  MOV  DX, 0001h
048C  E8 7C 6D                  CALL 720Bh
048F  88 46 04                  MOV  [BP+04h], AL
0492  E9 00 00                  JMP  0495h
0495  8A 46 04                  MOV  AL, [BP+04h]
0498  32 E4                     XOR  AH, AH
049A  0B C0                     OR   AX, AX
049C  8B E5                     MOV  SP, BP
049E  5D                        POP  BP
049F  C2 01 00                  RET  0001h
04A2  55                        PUSH BP
04A3  8B C4                     MOV  AX, SP
04A5  FF 76 FE                  PUSH  [BP-02h]
04A8  8B E8                     MOV  BP, AX
04AA  55                        PUSH BP
04AB  E9 00 00                  JMP  04AEh
04AE  83 EC 05                  SUB  SP, 05h
04B1  8D 7E F7                  LEA  DI, [BP-09h]
04B4  16                        PUSH SS
04B5  57                        PUSH DI
04B6  83 EC 03                  SUB  SP, 03h
04B9  E8 46 8C                  CALL 9102h
04BC  B1 02                     MOV  CL, 02h
04BE  E8 82 6F                  CALL 7443h
04C1  8D 7E F7                  LEA  DI, [BP-09h]
04C4  16                        PUSH SS
04C5  E8 4C 6F                  CALL 7414h
04C8  E8 62 6F                  CALL 742Dh
04CB  00 E8                     ADD  AL, CH
04CD  FF 6F 75                  JMPF  [BX+75h]
04D0  03 E9                     ADD  BP, CX
04D2  37                        AAA
04D3  00 8D 7E F7               ADD  [DI-0882h], CL
04D7  16                        PUSH SS
04D8  E8 39 6F                  CALL 7414h
04DB  B8 01 1B                  MOV  AX, 1B01h
04DE  50                        PUSH AX
04DF  E8 E0 6F                  CALL 74C2h
04E2  75 03                     JNZ  04E7h
04E4  E9 12 00                  JMP  04F9h
04E7  B8 01 00                  MOV  AX, 0001h
04EA  B9 00 00                  MOV  CX, 0000h
04ED  BA 01 00                  MOV  DX, 0001h
04F0  E8 18 6D                  CALL 720Bh
04F3  88 46 04                  MOV  [BP+04h], AL
04F6  E9 0F 00                  JMP  0508h
04F9  B8 00 00                  MOV  AX, 0000h
04FC  B9 00 00                  MOV  CX, 0000h
04FF  BA 01 00                  MOV  DX, 0001h
0502  E8 06 6D                  CALL 720Bh
0505  88 46 04                  MOV  [BP+04h], AL
0508  E9 0F 00                  JMP  051Ah
050B  B8 00 00                  MOV  AX, 0000h
050E  B9 00 00                  MOV  CX, 0000h
0511  BA 01 00                  MOV  DX, 0001h
0514  E8 F4 6C                  CALL 720Bh
0517  88 46 04                  MOV  [BP+04h], AL
051A  E9 00 00                  JMP  051Dh
051D  8A 46 04                  MOV  AL, [BP+04h]
0520  32 E4                     XOR  AH, AH
0522  0B C0                     OR   AX, AX
0524  8B E5                     MOV  SP, BP
0526  5D                        POP  BP
0527  C2 01 00                  RET  0001h
052A  55                        PUSH BP
052B  8B C4                     MOV  AX, SP
052D  FF 76 FE                  PUSH  [BP-02h]
0530  8B E8                     MOV  BP, AX
0532  55                        PUSH BP
0533  E9 00 00                  JMP  0536h
0536  A1 6C 02                  MOV  AX, [026Ch]
0539  3B 06 6E 02               CMP  AX, [026Eh]
053D  75 03                     JNZ  0542h
053F  E9 12 00                  JMP  0554h
0542  B8 01 00                  MOV  AX, 0001h
0545  B9 00 00                  MOV  CX, 0000h
0548  BA 01 00                  MOV  DX, 0001h
054B  E8 BD 6C                  CALL 720Bh
054E  88 46 04                  MOV  [BP+04h], AL
0551  E9 0F 00                  JMP  0563h
0554  B8 00 00                  MOV  AX, 0000h
0557  B9 00 00                  MOV  CX, 0000h
055A  BA 01 00                  MOV  DX, 0001h
055D  E8 AB 6C                  CALL 720Bh
0560  88 46 04                  MOV  [BP+04h], AL
0563  E9 00 00                  JMP  0566h
0566  8A 46 04                  MOV  AL, [BP+04h]
0569  32 E4                     XOR  AH, AH
056B  0B C0                     OR   AX, AX
056D  8B E5                     MOV  SP, BP
056F  5D                        POP  BP
0570  C2 01 00                  RET  0001h
0573  55                        PUSH BP
0574  8B C4                     MOV  AX, SP
0576  FF 76 FE                  PUSH  [BP-02h]
0579  8B E8                     MOV  BP, AX
057B  55                        PUSH BP
057C  E9 00 00                  JMP  057Fh
057F  4C                        DEC  SP
0580  4C                        DEC  SP
0581  E8 57 B5                  CALL BADBh
0584  B9 00 00                  MOV  CX, 0000h
0587  BA FF 00                  MOV  DX, 00FFh
058A  E8 7E 6C                  CALL 720Bh
058D  88 46 FB                  MOV  [BP-05h], AL
0590  8B 5E FE                  MOV  BX, [BP-02h]
0593  36                        SS:
0594  8A 87 38 FC               MOV  AL, [BX-03C8h]
0598  32 E4                     XOR  AH, AH
059A  0B C0                     OR   AX, AX
059C  75 03                     JNZ  05A1h
059E  E9 1C 00                  JMP  05BDh
05A1  BF 4E 01                  MOV  DI, 014Eh
05A4  1E                        PUSH DS
05A5  E8 0A 82                  CALL 87B2h
05A8  E8 FA 85                  CALL 8BA5h
05AB  02 20                     ADD  AH, [BX+SI]
05AD  72 8A                     JB   0539h
05AF  46                        INC  SI
05B0  FB                        STI
05B1  32 E4                     XOR  AH, AH
05B3  50                        PUSH AX
05B4  B8 00 00                  MOV  AX, 0000h
05B7  E8 47 85                  CALL 8B01h
05BA  E8 AD 6C                  CALL 726Ah
05BD  8A 46 FB                  MOV  AL, [BP-05h]
05C0  32 E4                     XOR  AH, AH
05C2  B9 00 00                  MOV  CX, 0000h
05C5  BA FF 00                  MOV  DX, 00FFh
05C8  E8 40 6C                  CALL 720Bh
05CB  88 46 04                  MOV  [BP+04h], AL
05CE  E9 00 00                  JMP  05D1h
05D1  8A 46 04                  MOV  AL, [BP+04h]
05D4  32 E4                     XOR  AH, AH
05D6  8B E5                     MOV  SP, BP
05D8  5D                        POP  BP
05D9  C2 01 00                  RET  0001h
05DC  55                        PUSH BP
05DD  8B C4                     MOV  AX, SP
05DF  FF 76 FE                  PUSH  [BP-02h]
05E2  8B E8                     MOV  BP, AX
05E4  55                        PUSH BP
05E5  E9 00 00                  JMP  05E8h
05E8  8A 46 04                  MOV  AL, [BP+04h]
05EB  32 E4                     XOR  AH, AH
05ED  B9 00 00                  MOV  CX, 0000h
05F0  BA FF 00                  MOV  DX, 00FFh
05F3  E8 15 6C                  CALL 720Bh
05F6  50                        PUSH AX
05F7  E8 09 B4                  CALL BA03h
05FA  8B 5E FE                  MOV  BX, [BP-02h]
05FD  36                        SS:
05FE  8A 87 38 FC               MOV  AL, [BX-03C8h]
0602  32 E4                     XOR  AH, AH
0604  0B C0                     OR   AX, AX
0606  75 03                     JNZ  060Bh
0608  E9 1C 00                  JMP  0627h
060B  BF 4E 01                  MOV  DI, 014Eh
060E  1E                        PUSH DS
060F  E8 A0 81                  CALL 87B2h
0612  E8 90 85                  CALL 8BA5h
0615  02 20                     ADD  AH, [BX+SI]
0617  74 8A                     JZ   05A3h
0619  46                        INC  SI
061A  04 32                     ADD  AL, 32h
061C  E4 50                     IN   AL, 50h
061E  B8 00 00                  MOV  AX, 0000h
0621  E8 DD 84                  CALL 8B01h
0624  E8 43 6C                  CALL 726Ah
0627  E9 00 00                  JMP  062Ah
062A  8B E5                     MOV  SP, BP
062C  5D                        POP  BP
062D  C2 02 00                  RET  0002h
0630  55                        PUSH BP
0631  8B C4                     MOV  AX, SP
0633  FF 76 FE                  PUSH  [BP-02h]
0636  8B E8                     MOV  BP, AX
0638  55                        PUSH BP
0639  E9 00 00                  JMP  063Ch
063C  4C                        DEC  SP
063D  4C                        DEC  SP
063E  B8 01 00                  MOV  AX, 0001h
0641  50                        PUSH AX
0642  8D 7E 04                  LEA  DI, [BP+04h]
0645  16                        PUSH SS
0646  E8 CB 6D                  CALL 7414h
0649  E8 7A 6F                  CALL 75C6h
064C  59                        POP  CX
064D  91                        XCHG AX, CX
064E  2B C8                     SUB  CX, AX
0650  7D 03                     JGE  0655h
0652  E9 2B 00                  JMP  0680h
0655  41                        INC  CX
0656  89 46 FA                  MOV  [BP-06h], AX
0659  51                        PUSH CX
065A  8B 46 FA                  MOV  AX, [BP-06h]
065D  B9 00 01                  MOV  CX, 0100h
0660  E8 9E 6B                  CALL 7201h
0663  97                        XCHG AX, DI
0664  8A 43 04                  MOV  AL, [BP+DI+04h]
0667  32 E4                     XOR  AH, AH
0669  B9 00 00                  MOV  CX, 0000h
066C  BA FF 00                  MOV  DX, 00FFh
066F  E8 99 6B                  CALL 720Bh
0672  50                        PUSH AX
0673  E8 66 FF                  CALL 05DCh
0676  59                        POP  CX
0677  49                        DEC  CX
0678  74 06                     JZ   0680h
067A  FF 46 FA                  INC  [BP-06h]
067D  E9 D9 FF                  JMP  0659h
0680  E9 00 00                  JMP  0683h
0683  8B E5                     MOV  SP, BP
0685  5D                        POP  BP
0686  C2 00 01                  RET  0100h
0689  55                        PUSH BP
068A  8B C4                     MOV  AX, SP
068C  FF 76 FE                  PUSH  [BP-02h]
068F  8B E8                     MOV  BP, AX
0691  55                        PUSH BP
0692  E9 00 00                  JMP  0695h
0695  8D 7E 04                  LEA  DI, [BP+04h]
0698  16                        PUSH SS
0699  E8 78 6D                  CALL 7414h
069C  B1 FF                     MOV  CL, FFh
069E  E8 E4 6D                  CALL 7485h
06A1  E8 8C FF                  CALL 0630h
06A4  B8 0D 00                  MOV  AX, 000Dh
06A7  B9 00 00                  MOV  CX, 0000h
06AA  BA FF 00                  MOV  DX, 00FFh
06AD  E8 5B 6B                  CALL 720Bh
06B0  50                        PUSH AX
06B1  E8 28 FF                  CALL 05DCh
06B4  E9 00 00                  JMP  06B7h
06B7  8B E5                     MOV  SP, BP
06B9  5D                        POP  BP
06BA  C2 00 01                  RET  0100h
06BD  55                        PUSH BP
06BE  8B C4                     MOV  AX, SP
06C0  FF 76 FE                  PUSH  [BP-02h]
06C3  8B E8                     MOV  BP, AX
06C5  55                        PUSH BP
06C6  E9 00 00                  JMP  06C9h
06C9  4C                        DEC  SP
06CA  4C                        DEC  SP
06CB  8D 7E 04                  LEA  DI, [BP+04h]
06CE  16                        PUSH SS
06CF  E8 42 6D                  CALL 7414h
06D2  E8 F1 6E                  CALL 75C6h
06D5  B9 00 00                  MOV  CX, 0000h
06D8  BA FF 00                  MOV  DX, 00FFh
06DB  E8 2D 6B                  CALL 720Bh
06DE  88 46 FB                  MOV  [BP-05h], AL
06E1  B8 01 00                  MOV  AX, 0001h
06E4  B9 00 00                  MOV  CX, 0000h
06E7  BA FF 00                  MOV  DX, 00FFh
06EA  E8 1E 6B                  CALL 720Bh
06ED  88 46 FA                  MOV  [BP-06h], AL
06F0  8A 46 FB                  MOV  AL, [BP-05h]
06F3  32 E4                     XOR  AH, AH
06F5  3D 00 00                  CMP  AX, 0000h
06F8  7F 03                     JG   06FDh
06FA  E9 7C 00                  JMP  0779h
06FD  8D 7E 04                  LEA  DI, [BP+04h]
0700  16                        PUSH SS
0701  E8 10 6D                  CALL 7414h
0704  8A 46 FB                  MOV  AL, [BP-05h]
0707  32 E4                     XOR  AH, AH
0709  50                        PUSH AX
070A  B8 01 00                  MOV  AX, 0001h
070D  E8 77 6E                  CALL 7587h
0710  B8 01 5C                  MOV  AX, 5C01h
0713  50                        PUSH AX
0714  E8 AB 6D                  CALL 74C2h
0717  50                        PUSH AX
0718  8D 7E 04                  LEA  DI, [BP+04h]
071B  16                        PUSH SS
071C  E8 F5 6C                  CALL 7414h
071F  8A 46 FB                  MOV  AL, [BP-05h]
0722  32 E4                     XOR  AH, AH
0724  50                        PUSH AX
0725  B8 01 00                  MOV  AX, 0001h
0728  E8 5C 6E                  CALL 7587h
072B  B8 01 3A                  MOV  AX, 3A01h
072E  50                        PUSH AX
072F  E8 90 6D                  CALL 74C2h
0732  59                        POP  CX
0733  0B C1                     OR   AX, CX
0735  0B C0                     OR   AX, AX
0737  75 03                     JNZ  073Ch
0739  E9 26 00                  JMP  0762h
073C  8A 46 FB                  MOV  AL, [BP-05h]
073F  32 E4                     XOR  AH, AH
0741  05 01 00                  ADD  AX, 0001h
0744  B9 00 00                  MOV  CX, 0000h
0747  BA FF 00                  MOV  DX, 00FFh
074A  E8 BE 6A                  CALL 720Bh
074D  88 46 FA                  MOV  [BP-06h], AL
0750  B8 00 00                  MOV  AX, 0000h
0753  B9 00 00                  MOV  CX, 0000h
0756  BA FF 00                  MOV  DX, 00FFh
0759  E8 AF 6A                  CALL 720Bh
075C  88 46 FB                  MOV  [BP-05h], AL
075F  E9 14 00                  JMP  0776h
0762  8A 46 FB                  MOV  AL, [BP-05h]
0765  32 E4                     XOR  AH, AH
0767  2D 01 00                  SUB  AX, 0001h
076A  B9 00 00                  MOV  CX, 0000h
076D  BA FF 00                  MOV  DX, 00FFh
0770  E8 98 6A                  CALL 720Bh
0773  88 46 FB                  MOV  [BP-05h], AL
0776  E9 77 FF                  JMP  06F0h
0779  8D BE 04 01               LEA  DI, [BP+0104h]
077D  16                        PUSH SS
077E  57                        PUSH DI
077F  8D 7E 04                  LEA  DI, [BP+04h]
0782  16                        PUSH SS
0783  E8 8E 6C                  CALL 7414h
0786  8A 46 FA                  MOV  AL, [BP-06h]
0789  32 E4                     XOR  AH, AH
078B  50                        PUSH AX
078C  B8 0D 00                  MOV  AX, 000Dh
078F  E8 F5 6D                  CALL 7587h
0792  B1 FF                     MOV  CL, FFh
0794  E8 AC 6C                  CALL 7443h
0797  E9 00 00                  JMP  079Ah
079A  BA 00 01                  MOV  DX, 0100h
079D  B1 FF                     MOV  CL, FFh
079F  8B E5                     MOV  SP, BP
07A1  5D                        POP  BP
07A2  E9 3B 6F                  JMP  76E0h
07A5  55                        PUSH BP
07A6  8B C4                     MOV  AX, SP
07A8  FF 76 FE                  PUSH  [BP-02h]
07AB  8B E8                     MOV  BP, AX
07AD  55                        PUSH BP
07AE  E9 00 00                  JMP  07B1h
07B1  4C                        DEC  SP
07B2  B8 01 00                  MOV  AX, 0001h
07B5  50                        PUSH AX
07B6  8B 5E FE                  MOV  BX, [BP-02h]
07B9  36                        SS:
07BA  8D BF FC FE               LEA  DI, [BX-0104h]
07BE  16                        PUSH SS
07BF  E8 52 6C                  CALL 7414h
07C2  E8 0E 6E                  CALL 75D3h
07C5  B9 00 00                  MOV  CX, 0000h
07C8  BA FF 00                  MOV  DX, 00FFh
07CB  E8 3D 6A                  CALL 720Bh
07CE  88 46 FB                  MOV  [BP-05h], AL
07D1  8B 5E FE                  MOV  BX, [BP-02h]
07D4  36                        SS:
07D5  8D BF E4 FA               LEA  DI, [BX-051Ch]
07D9  16                        PUSH SS
07DA  57                        PUSH DI
07DB  8B 5E FE                  MOV  BX, [BP-02h]
07DE  36                        SS:
07DF  8D BF FC FE               LEA  DI, [BX-0104h]
07E3  16                        PUSH SS
07E4  E8 2D 6C                  CALL 7414h
07E7  B8 01 00                  MOV  AX, 0001h
07EA  50                        PUSH AX
07EB  8A 46 FB                  MOV  AL, [BP-05h]
07EE  32 E4                     XOR  AH, AH
07F0  2D 01 00                  SUB  AX, 0001h
07F3  E8 91 6D                  CALL 7587h
07F6  B1 50                     MOV  CL, 50h
07F8  E8 48 6C                  CALL 7443h
07FB  8B 5E FE                  MOV  BX, [BP-02h]
07FE  36                        SS:
07FF  8D BF 93 FA               LEA  DI, [BX-056Dh]
0803  16                        PUSH SS
0804  57                        PUSH DI
0805  8B 5E FE                  MOV  BX, [BP-02h]
0808  36                        SS:
0809  8D BF FC FE               LEA  DI, [BX-0104h]
080D  16                        PUSH SS
080E  E8 03 6C                  CALL 7414h
0811  8A 46 FB                  MOV  AL, [BP-05h]
0814  32 E4                     XOR  AH, AH
0816  05 01 00                  ADD  AX, 0001h
0819  50                        PUSH AX
081A  8B 5E FE                  MOV  BX, [BP-02h]
081D  36                        SS:
081E  8D BF FC FE               LEA  DI, [BX-0104h]
0822  16                        PUSH SS
0823  E8 EE 6B                  CALL 7414h
0826  E8 9D 6D                  CALL 75C6h
0829  50                        PUSH AX
082A  8A 46 FB                  MOV  AL, [BP-05h]
082D  32 E4                     XOR  AH, AH
082F  59                        POP  CX
0830  91                        XCHG AX, CX
0831  2B C1                     SUB  AX, CX
0833  2D 01 00                  SUB  AX, 0001h
0836  E8 4E 6D                  CALL 7587h
0839  B1 50                     MOV  CL, 50h
083B  E8 05 6C                  CALL 7443h
083E  B8 0A 00                  MOV  AX, 000Ah
0841  50                        PUSH AX
0842  B8 02 00                  MOV  AX, 0002h
0845  E8 AA 67                  CALL 6FF2h
0848  E8 55 7F                  CALL 87A0h
084B  B8 20 00                  MOV  AX, 0020h
084E  50                        PUSH AX
084F  B8 00 00                  MOV  AX, 0000h
0852  E8 90 82                  CALL 8AE5h
0855  81 EC 00 01               SUB  SP, 0100h
0859  8B 5E FE                  MOV  BX, [BP-02h]
085C  36                        SS:
085D  8D BF E4 FA               LEA  DI, [BX-051Ch]
0861  16                        PUSH SS
0862  E8 AF 6B                  CALL 7414h
0865  B1 FF                     MOV  CL, FFh
0867  E8 1B 6C                  CALL 7485h
086A  E8 50 FE                  CALL 06BDh
086D  B8 00 00                  MOV  AX, 0000h
0870  E8 FB 82                  CALL 8B6Eh
0873  E8 2F 83                  CALL 8BA5h
0876  06                        PUSH ES
0877  20 20 20 20 20 20         db  "      "
087D  8B 5E FE                  MOV  BX, [BP-02h]
0880  36                        SS:
0881  8D BF 93 FA               LEA  DI, [BX-056Dh]
0885  16                        PUSH SS
0886  E8 8B 6B                  CALL 7414h
0889  B8 00 00                  MOV  AX, 0000h
088C  E8 DF 82                  CALL 8B6Eh
088F  E8 13 83                  CALL 8BA5h
0892  06                        PUSH ES
0893  20 62 79 74 65 73         db  " bytes"
0899  E8 CE 69                  CALL 726Ah
089C  E9 00 00                  JMP  089Fh
089F  8B E5                     MOV  SP, BP
08A1  5D                        POP  BP
08A2  C3                        RET
08A3  55                        PUSH BP
08A4  8B C4                     MOV  AX, SP
08A6  FF 76 FE                  PUSH  [BP-02h]
08A9  8B E8                     MOV  BP, AX
08AB  55                        PUSH BP
08AC  E9 00 00                  JMP  08AFh
08AF  B8 0C 00                  MOV  AX, 000Ch
08B2  50                        PUSH AX
08B3  B8 03 00                  MOV  AX, 0003h
08B6  E8 39 67                  CALL 6FF2h
08B9  E8 E4 7E                  CALL 87A0h
08BC  8B 5E FE                  MOV  BX, [BP-02h]
08BF  36                        SS:
08C0  8D BF F6 FE               LEA  DI, [BX-010Ah]
08C4  16                        PUSH SS
08C5  E8 F3 72                  CALL 7BBBh
08C8  B8 07 00                  MOV  AX, 0007h
08CB  50                        PUSH AX
08CC  B8 00 00                  MOV  AX, 0000h
08CF  E8 64 82                  CALL 8B36h
08D2  E8 95 69                  CALL 726Ah
08D5  E9 00 00                  JMP  08D8h
08D8  8B E5                     MOV  SP, BP
08DA  5D                        POP  BP
08DB  C3                        RET
08DC  55                        PUSH BP
08DD  8B C4                     MOV  AX, SP
08DF  FF 76 FE                  PUSH  [BP-02h]
08E2  8B E8                     MOV  BP, AX
08E4  55                        PUSH BP
08E5  E9 00 00                  JMP  08E8h
08E8  B8 0B 00                  MOV  AX, 000Bh
08EB  50                        PUSH AX
08EC  B8 04 00                  MOV  AX, 0004h
08EF  E8 00 67                  CALL 6FF2h
08F2  8B 5E FE                  MOV  BX, [BP-02h]
08F5  36                        SS:
08F6  8A 87 F3 FE               MOV  AL, [BX-010Dh]
08FA  32 E4                     XOR  AH, AH
08FC  B9 0D 00                  MOV  CX, 000Dh
08FF  E8 FF 68                  CALL 7201h
0902  B9 0C 00                  MOV  CX, 000Ch
0905  F7 E1                     MUL  CX
0907  97                        XCHG AX, DI
0908  E8 95 7E                  CALL 87A0h
090B  81 C7 C6 9D               ADD  DI, 9DC6h
090F  0E                        PUSH CS
0910  E8 01 6B                  CALL 7414h
0913  B8 00 00                  MOV  AX, 0000h
0916  E8 55 82                  CALL 8B6Eh
0919  E8 4E 69                  CALL 726Ah
091C  8B 5E FE                  MOV  BX, [BP-02h]
091F  36                        SS:
0920  8A 87 38 FC               MOV  AL, [BX-03C8h]
0924  32 E4                     XOR  AH, AH
0926  0B C0                     OR   AX, AX
0928  75 03                     JNZ  092Dh
092A  E9 3E 00                  JMP  096Bh
092D  BF 4E 01                  MOV  DI, 014Eh
0930  1E                        PUSH DS
0931  E8 7E 7E                  CALL 87B2h
0934  E8 86 82                  CALL 8BBDh
0937  E8 30 69                  CALL 726Ah
093A  BF 4E 01                  MOV  DI, 014Eh
093D  1E                        PUSH DS
093E  E8 71 7E                  CALL 87B2h
0941  8B 5E FE                  MOV  BX, [BP-02h]
0944  36                        SS:
0945  8A 87 F3 FE               MOV  AL, [BX-010Dh]
0949  32 E4                     XOR  AH, AH
094B  B9 0D 00                  MOV  CX, 000Dh
094E  E8 B0 68                  CALL 7201h
0951  B9 0C 00                  MOV  CX, 000Ch
0954  F7 E1                     MUL  CX
0956  97                        XCHG AX, DI
0957  81 C7 C6 9D               ADD  DI, 9DC6h
095B  0E                        PUSH CS
095C  E8 B5 6A                  CALL 7414h
095F  B8 00 00                  MOV  AX, 0000h
0962  E8 09 82                  CALL 8B6Eh
0965  E8 55 82                  CALL 8BBDh
0968  E8 FF 68                  CALL 726Ah
096B  E9 00 00                  JMP  096Eh
096E  8B E5                     MOV  SP, BP
0970  5D                        POP  BP
0971  C3                        RET
0972  55                        PUSH BP
0973  8B C4                     MOV  AX, SP
0975  FF 76 FE                  PUSH  [BP-02h]
0978  8B E8                     MOV  BP, AX
097A  55                        PUSH BP
097B  E9 00 00                  JMP  097Eh
097E  B8 02 00                  MOV  AX, 0002h
0981  50                        PUSH AX
0982  B8 06 00                  MOV  AX, 0006h
0985  E8 6A 66                  CALL 6FF2h
0988  8B 46 04                  MOV  AX, [BP+04h]
098B  48                        DEC  AX
098C  B9 13 00                  MOV  CX, 0013h
098F  E8 6F 68                  CALL 7201h
0992  B9 29 00                  MOV  CX, 0029h
0995  F7 E1                     MUL  CX
0997  97                        XCHG AX, DI
0998  E8 05 7E                  CALL 87A0h
099B  81 C7 95 9E               ADD  DI, 9E95h
099F  0E                        PUSH CS
09A0  E8 71 6A                  CALL 7414h
09A3  B8 00 00                  MOV  AX, 0000h
09A6  E8 C5 81                  CALL 8B6Eh
09A9  E8 BE 68                  CALL 726Ah
09AC  8B 5E FE                  MOV  BX, [BP-02h]
09AF  36                        SS:
09B0  8A 87 38 FC               MOV  AL, [BX-03C8h]
09B4  32 E4                     XOR  AH, AH
09B6  0B C0                     OR   AX, AX
09B8  75 03                     JNZ  09BDh
09BA  E9 38 00                  JMP  09F5h
09BD  BF 4E 01                  MOV  DI, 014Eh
09C0  1E                        PUSH DS
09C1  E8 EE 7D                  CALL 87B2h
09C4  E8 F6 81                  CALL 8BBDh
09C7  E8 A0 68                  CALL 726Ah
09CA  BF 4E 01                  MOV  DI, 014Eh
09CD  1E                        PUSH DS
09CE  E8 E1 7D                  CALL 87B2h
09D1  8B 46 04                  MOV  AX, [BP+04h]
09D4  48                        DEC  AX
09D5  B9 13 00                  MOV  CX, 0013h
09D8  E8 26 68                  CALL 7201h
09DB  B9 29 00                  MOV  CX, 0029h
09DE  F7 E1                     MUL  CX
09E0  97                        XCHG AX, DI
09E1  81 C7 95 9E               ADD  DI, 9E95h
09E5  0E                        PUSH CS
09E6  E8 2B 6A                  CALL 7414h
09E9  B8 00 00                  MOV  AX, 0000h
09EC  E8 7F 81                  CALL 8B6Eh
09EF  E8 CB 81                  CALL 8BBDh
09F2  E8 75 68                  CALL 726Ah
09F5  E9 00 00                  JMP  09F8h
09F8  8B E5                     MOV  SP, BP
09FA  5D                        POP  BP
09FB  C2 02 00                  RET  0002h
09FE  55                        PUSH BP
09FF  8B C4                     MOV  AX, SP
0A01  FF 76 FE                  PUSH  [BP-02h]
0A04  8B E8                     MOV  BP, AX
0A06  55                        PUSH BP
0A07  E9 00 00                  JMP  0A0Ah
0A0A  B8 02 00                  MOV  AX, 0002h
0A0D  50                        PUSH AX
0A0E  B8 08 00                  MOV  AX, 0008h
0A11  E8 DE 65                  CALL 6FF2h
0A14  8B 46 04                  MOV  AX, [BP+04h]
0A17  48                        DEC  AX
0A18  B9 13 00                  MOV  CX, 0013h
0A1B  E8 E3 67                  CALL 7201h
0A1E  B9 29 00                  MOV  CX, 0029h
0A21  F7 E1                     MUL  CX
0A23  97                        XCHG AX, DI
0A24  E8 79 7D                  CALL 87A0h
0A27  81 C7 95 9E               ADD  DI, 9E95h
0A2B  0E                        PUSH CS
0A2C  E8 E5 69                  CALL 7414h
0A2F  B8 00 00                  MOV  AX, 0000h
0A32  E8 39 81                  CALL 8B6Eh
0A35  E8 32 68                  CALL 726Ah
0A38  8B 5E FE                  MOV  BX, [BP-02h]
0A3B  36                        SS:
0A3C  8A 87 38 FC               MOV  AL, [BX-03C8h]
0A40  32 E4                     XOR  AH, AH
0A42  0B C0                     OR   AX, AX
0A44  75 03                     JNZ  0A49h
0A46  E9 38 00                  JMP  0A81h
0A49  BF 4E 01                  MOV  DI, 014Eh
0A4C  1E                        PUSH DS
0A4D  E8 62 7D                  CALL 87B2h
0A50  E8 6A 81                  CALL 8BBDh
0A53  E8 14 68                  CALL 726Ah
0A56  BF 4E 01                  MOV  DI, 014Eh
0A59  1E                        PUSH DS
0A5A  E8 55 7D                  CALL 87B2h
0A5D  8B 46 04                  MOV  AX, [BP+04h]
0A60  48                        DEC  AX
0A61  B9 13 00                  MOV  CX, 0013h
0A64  E8 9A 67                  CALL 7201h
0A67  B9 29 00                  MOV  CX, 0029h
0A6A  F7 E1                     MUL  CX
0A6C  97                        XCHG AX, DI
0A6D  81 C7 95 9E               ADD  DI, 9E95h
0A71  0E                        PUSH CS
0A72  E8 9F 69                  CALL 7414h
0A75  B8 00 00                  MOV  AX, 0000h
0A78  E8 F3 80                  CALL 8B6Eh
0A7B  E8 3F 81                  CALL 8BBDh
0A7E  E8 E9 67                  CALL 726Ah
0A81  E9 00 00                  JMP  0A84h
0A84  8B E5                     MOV  SP, BP
0A86  5D                        POP  BP
0A87  C2 02 00                  RET  0002h
0A8A  55                        PUSH BP
0A8B  8B C4                     MOV  AX, SP
0A8D  FF 76 FE                  PUSH  [BP-02h]
0A90  8B E8                     MOV  BP, AX
0A92  55                        PUSH BP
0A93  E9 00 00                  JMP  0A96h
0A96  E8 D5 59                  CALL 646Eh
0A99  B8 03 00                  MOV  AX, 0003h
0A9C  50                        PUSH AX
0A9D  B8 02 00                  MOV  AX, 0002h
0AA0  E8 4F 65                  CALL 6FF2h
0AA3  E8 FA 7C                  CALL 87A0h
0AA6  E8 FC 80                  CALL 8BA5h
0AA9  07                        POP  ES
0AAA  48 65 61 64 65 72 3A      db  "Header:"
0AB1  E8 B6 67                  CALL 726Ah
0AB4  B8 04 00                  MOV  AX, 0004h
0AB7  50                        PUSH AX
0AB8  B8 03 00                  MOV  AX, 0003h
0ABB  E8 34 65                  CALL 6FF2h
0ABE  E8 DF 7C                  CALL 87A0h
0AC1  E8 E1 80                  CALL 8BA5h
0AC4  06                        PUSH ES
0AC5  42 79 74 65 73 3A         db  "Bytes:"
0ACB  E8 9C 67                  CALL 726Ah
0ACE  B8 04 00                  MOV  AX, 0004h
0AD1  50                        PUSH AX
0AD2  B8 04 00                  MOV  AX, 0004h
0AD5  E8 1A 65                  CALL 6FF2h
0AD8  E8 C5 7C                  CALL 87A0h
0ADB  E8 C7 80                  CALL 8BA5h
0ADE  06                        PUSH ES
0ADF  53 54 41 54 45 3A         db  "STATE:"
0AE5  E8 82 67                  CALL 726Ah
0AE8  B8 0C 00                  MOV  AX, 000Ch
0AEB  50                        PUSH AX
0AEC  E8 0F FF                  CALL 09FEh
0AEF  E9 00 00                  JMP  0AF2h
0AF2  8B E5                     MOV  SP, BP
0AF4  5D                        POP  BP
0AF5  C3                        RET
0AF6  55                        PUSH BP
0AF7  8B C4                     MOV  AX, SP
0AF9  FF 76 FE                  PUSH  [BP-02h]
0AFC  8B E8                     MOV  BP, AX
0AFE  55                        PUSH BP
0AFF  E9 00 00                  JMP  0B02h
0B02  83 EC 5A                  SUB  SP, 5Ah
0B05  8D 7E B0                  LEA  DI, [BP-50h]
0B08  16                        PUSH SS
0B09  57                        PUSH DI
0B0A  8B 5E FE                  MOV  BX, [BP-02h]
0B0D  36                        SS:
0B0E  8D BF 39 FD               LEA  DI, [BX-02C7h]
0B12  16                        PUSH SS
0B13  E8 FE 68                  CALL 7414h
0B16  E8 F3 80                  CALL 8C0Ch
0B19  8D 7E B0                  LEA  DI, [BP-50h]
0B1C  16                        PUSH SS
0B1D  B9 01 00                  MOV  CX, 0001h
0B20  E8 EE 80                  CALL 8C11h
0B23  E8 3D 67                  CALL 7263h
0B26  3D 00 00                  CMP  AX, 0000h
0B29  B8 01 00                  MOV  AX, 0001h
0B2C  74 01                     JZ   0B2Fh
0B2E  48                        DEC  AX
0B2F  B9 00 00                  MOV  CX, 0000h
0B32  BA 01 00                  MOV  DX, 0001h
0B35  E8 D3 66                  CALL 720Bh
0B38  88 46 AF                  MOV  [BP-51h], AL
0B3B  8A 46 AF                  MOV  AL, [BP-51h]
0B3E  32 E4                     XOR  AH, AH
0B40  34 01                     XOR  AL, 01h
0B42  75 03                     JNZ  0B47h
0B44  E9 32 00                  JMP  0B79h
0B47  E8 56 7C                  CALL 87A0h
0B4A  E8 58 80                  CALL 8BA5h
0B4D  13 20                     ADC  SP, [BX+SI]
0B61  8B 5E FE                  MOV  BX, [BP-02h]
0B64  36                        SS:
0B65  8D BF 39 FD               LEA  DI, [BX-02C7h]
0B69  16                        PUSH SS
0B6A  E8 A7 68                  CALL 7414h
0B6D  B8 00 00                  MOV  AX, 0000h
0B70  E8 FB 7F                  CALL 8B6Eh
0B73  E8 47 80                  CALL 8BBDh
0B76  E8 F1 66                  CALL 726Ah
0B79  8D 7E A9                  LEA  DI, [BP-57h]
0B7C  16                        PUSH SS
0B7D  57                        PUSH DI
0B7E  8D 7E B0                  LEA  DI, [BP-50h]
0B81  16                        PUSH SS
0B82  E8 06 82                  CALL 8D8Bh
0B85  E8 53 70                  CALL 7BDBh
0B88  8D 7E A9                  LEA  DI, [BP-57h]
0B8B  16                        PUSH SS
0B8C  E8 2C 70                  CALL 7BBBh
0B8F  B8 06 00                  MOV  AX, 0006h
0B92  50                        PUSH AX
0B93  B8 00 00                  MOV  AX, 0000h
0B96  50                        PUSH AX
0B97  8D 7E A2                  LEA  DI, [BP-5Eh]
0B9A  16                        PUSH SS
0B9B  B1 06                     MOV  CL, 06h
0B9D  E8 D3 64                  CALL 7073h
0BA0  8D 7E B0                  LEA  DI, [BP-50h]
0BA3  16                        PUSH SS
0BA4  E8 AF 80                  CALL 8C56h
0BA7  E8 C0 66                  CALL 726Ah
0BAA  8D 7E 04                  LEA  DI, [BP+04h]
0BAD  16                        PUSH SS
0BAE  57                        PUSH DI
0BAF  8D 7E A2                  LEA  DI, [BP-5Eh]
0BB2  16                        PUSH SS
0BB3  E8 5E 68                  CALL 7414h
0BB6  B1 06                     MOV  CL, 06h
0BB8  E8 88 68                  CALL 7443h
0BBB  E9 00 00                  JMP  0BBEh
0BBE  BA 00 00                  MOV  DX, 0000h
0BC1  B1 06                     MOV  CL, 06h
0BC3  8B E5                     MOV  SP, BP
0BC5  5D                        POP  BP
0BC6  E9 17 6B                  JMP  76E0h
0BC9  55                        PUSH BP
0BCA  8B C4                     MOV  AX, SP
0BCC  FF 76 FE                  PUSH  [BP-02h]
0BCF  8B E8                     MOV  BP, AX
0BD1  55                        PUSH BP
0BD2  E9 00 00                  JMP  0BD5h
0BD5  81 EC 03 01               SUB  SP, 0103h
0BD9  B8 0A 00                  MOV  AX, 000Ah
0BDC  50                        PUSH AX
0BDD  B8 0D 00                  MOV  AX, 000Dh
0BE0  50                        PUSH AX
0BE1  B8 46 00                  MOV  AX, 0046h
0BE4  50                        PUSH AX
0BE5  B8 13 00                  MOV  AX, 0013h
0BE8  50                        PUSH AX
0BE9  E8 41 68                  CALL 742Dh
0BEC  14 4F                     ADC  AL, 4Fh
0C01  B1 46                     MOV  CL, 46h
0C03  E8 7F 68                  CALL 7485h
0C06  E8 F6 94                  CALL A0FFh
0C09  E8 94 7B                  CALL 87A0h
0C0C  E8 AE 7F                  CALL 8BBDh
0C0F  E8 58 66                  CALL 726Ah
0C12  E8 8B 7B                  CALL 87A0h
0C15  E8 8D 7F                  CALL 8BA5h
0C18  0A 20                     OR   AH, [BX+SI]
0C23  8D 7E 04                  LEA  DI, [BP+04h]
0C26  16                        PUSH SS
0C27  E8 EA 67                  CALL 7414h
0C2A  B8 00 00                  MOV  AX, 0000h
0C2D  E8 3E 7F                  CALL 8B6Eh
0C30  E8 72 7F                  CALL 8BA5h
0C33  12 22                     ADC  AH, [BP+SI]
0C46  E8 74 7F                  CALL 8BBDh
0C49  E8 1E 66                  CALL 726Ah
0C4C  B8 01 00                  MOV  AX, 0001h
0C4F  B9 00 00                  MOV  CX, 0000h
0C52  BA 01 00                  MOV  DX, 0001h
0C55  E8 B3 65                  CALL 720Bh
0C58  88 86 F9 FE               MOV  [BP-0107h], AL
0C5C  8B 5E FE                  MOV  BX, [BP-02h]
0C5F  36                        SS:
0C60  8D BF A4 FD               LEA  DI, [BX-025Ch]
0C64  16                        PUSH SS
0C65  57                        PUSH DI
0C66  8D 7E 04                  LEA  DI, [BP+04h]
0C69  16                        PUSH SS
0C6A  E8 A7 67                  CALL 7414h
0C6D  E8 9C 7F                  CALL 8C0Ch
0C70  8B 5E FE                  MOV  BX, [BP-02h]
0C73  36                        SS:
0C74  8D BF A4 FD               LEA  DI, [BX-025Ch]
0C78  16                        PUSH SS
0C79  B9 01 00                  MOV  CX, 0001h
0C7C  E8 92 7F                  CALL 8C11h
0C7F  E8 E1 65                  CALL 7263h
0C82  3D 00 00                  CMP  AX, 0000h
0C85  B8 01 00                  MOV  AX, 0001h
0C88  74 01                     JZ   0C8Bh
0C8A  48                        DEC  AX
0C8B  B9 00 00                  MOV  CX, 0000h
0C8E  BA 01 00                  MOV  DX, 0001h
0C91  E8 77 65                  CALL 720Bh
0C94  88 86 FB FE               MOV  [BP-0105h], AL
0C98  8A 86 FB FE               MOV  AL, [BP-0105h]
0C9C  32 E4                     XOR  AH, AH
0C9E  0B C0                     OR   AX, AX
0CA0  75 03                     JNZ  0CA5h
0CA2  E9 00 02                  JMP  0EA5h
0CA5  8B 5E FE                  MOV  BX, [BP-02h]
0CA8  36                        SS:
0CA9  8D BF A4 FD               LEA  DI, [BX-025Ch]
0CAD  16                        PUSH SS
0CAE  E8 A5 7F                  CALL 8C56h
0CB1  E8 B6 65                  CALL 726Ah
0CB4  E8 E9 7A                  CALL 87A0h
0CB7  E8 EB 7E                  CALL 8BA5h
0CDD  E8 8A 65                  CALL 726Ah
0CE0  8D BE FC FE               LEA  DI, [BP-0104h]
0CE4  16                        PUSH SS
0CE5  57                        PUSH DI
0CE6  83 EC 03                  SUB  SP, 03h
0CE9  E8 16 84                  CALL 9102h
0CEC  B1 FF                     MOV  CL, FFh
0CEE  E8 52 67                  CALL 7443h
0CF1  8D BE FC FE               LEA  DI, [BP-0104h]
0CF5  16                        PUSH SS
0CF6  E8 1B 67                  CALL 7414h
0CF9  E8 31 67                  CALL 742Dh
0CFC  00 E8                     ADD  AL, CH
0CFE  CE                        INTO
0CFF  67                        ???
0D00  75 03                     JNZ  0D05h
0D02  E9 DB FF                  JMP  0CE0h
0D05  E8 98 7A                  CALL 87A0h
0D08  8D BE FC FE               LEA  DI, [BP-0104h]
0D0C  16                        PUSH SS
0D0D  E8 04 67                  CALL 7414h
0D10  B8 00 00                  MOV  AX, 0000h
0D13  E8 58 7E                  CALL 8B6Eh
0D16  E8 A4 7E                  CALL 8BBDh
0D19  E8 4E 65                  CALL 726Ah
0D1C  8A 86 FD FE               MOV  AL, [BP-0103h]
0D20  32 E4                     XOR  AH, AH
0D22  E8 91 58                  CALL 65B6h
0D25  3D 59 00                  CMP  AX, 0059h
0D28  75 03                     JNZ  0D2Dh
0D2A  E9 78 01                  JMP  0EA5h
0D2D  B8 01 00                  MOV  AX, 0001h
0D30  B9 00 00                  MOV  CX, 0000h
0D33  BA 01 00                  MOV  DX, 0001h
0D36  E8 D2 64                  CALL 720Bh
0D39  A2 8F 59                  MOV  [598Fh], AL
0D3C  E8 61 7A                  CALL 87A0h
0D3F  E8 7B 7E                  CALL 8BBDh
0D42  E8 25 65                  CALL 726Ah
0D45  E8 58 7A                  CALL 87A0h
0D48  E8 5A 7E                  CALL 8BA5h
0D6D  E8 FA 64                  CALL 726Ah
0D70  E8 5C 7A                  CALL 87CFh
0D73  8D 7E 04                  LEA  DI, [BP+04h]
0D76  16                        PUSH SS
0D77  B1 FF                     MOV  CL, FFh
0D79  E8 7F 7C                  CALL 89FBh
0D7C  E8 EB 64                  CALL 726Ah
0D7F  8D 7E 04                  LEA  DI, [BP+04h]
0D82  16                        PUSH SS
0D83  E8 8E 66                  CALL 7414h
0D86  E8 3D 68                  CALL 75C6h
0D89  3D 00 00                  CMP  AX, 0000h
0D8C  74 03                     JZ   0D91h
0D8E  E9 1A 00                  JMP  0DABh
0D91  B8 09 00                  MOV  AX, 0009h
0D94  B9 00 00                  MOV  CX, 0000h
0D97  BA 0C 00                  MOV  DX, 000Ch
0D9A  E8 6E 64                  CALL 720Bh
0D9D  8B 5E FE                  MOV  BX, [BP-02h]
0DA0  36                        SS:
0DA1  88 87 F3 FE               MOV  [BX-010Dh], AL
0DA5  E8 0A 95                  CALL A2B2h
0DA8  E9 07 02                  JMP  0FB2h
0DAB  8B 5E FE                  MOV  BX, [BP-02h]
0DAE  36                        SS:
0DAF  8D BF A4 FD               LEA  DI, [BX-025Ch]
0DB3  16                        PUSH SS
0DB4  57                        PUSH DI
0DB5  8D 7E 04                  LEA  DI, [BP+04h]
0DB8  16                        PUSH SS
0DB9  E8 58 66                  CALL 7414h
0DBC  E8 4D 7E                  CALL 8C0Ch
0DBF  8B 5E FE                  MOV  BX, [BP-02h]
0DC2  36                        SS:
0DC3  8D BF A4 FD               LEA  DI, [BX-025Ch]
0DC7  16                        PUSH SS
0DC8  B9 01 00                  MOV  CX, 0001h
0DCB  E8 43 7E                  CALL 8C11h
0DCE  E8 92 64                  CALL 7263h
0DD1  3D 00 00                  CMP  AX, 0000h
0DD4  B8 01 00                  MOV  AX, 0001h
0DD7  74 01                     JZ   0DDAh
0DD9  48                        DEC  AX
0DDA  B9 00 00                  MOV  CX, 0000h
0DDD  BA 01 00                  MOV  DX, 0001h
0DE0  E8 28 64                  CALL 720Bh
0DE3  88 86 FB FE               MOV  [BP-0105h], AL
0DE7  8A 86 FB FE               MOV  AL, [BP-0105h]
0DEB  32 E4                     XOR  AH, AH
0DED  0B C0                     OR   AX, AX
0DEF  75 03                     JNZ  0DF4h
0DF1  E9 A5 00                  JMP  0E99h
0DF4  B8 00 00                  MOV  AX, 0000h
0DF7  B9 00 00                  MOV  CX, 0000h
0DFA  BA 01 00                  MOV  DX, 0001h
0DFD  E8 0B 64                  CALL 720Bh
0E00  A2 8F 59                  MOV  [598Fh], AL
0E03  8B 5E FE                  MOV  BX, [BP-02h]
0E06  36                        SS:
0E07  8D BF A4 FD               LEA  DI, [BX-025Ch]
0E0B  16                        PUSH SS
0E0C  E8 47 7E                  CALL 8C56h
0E0F  E8 58 64                  CALL 726Ah
0E12  E8 8B 79                  CALL 87A0h
0E15  E8 8D 7D                  CALL 8BA5h
0E3A  E8 2D 64                  CALL 726Ah
0E3D  8D BE FC FE               LEA  DI, [BP-0104h]
0E41  16                        PUSH SS
0E42  57                        PUSH DI
0E43  83 EC 03                  SUB  SP, 03h
0E46  E8 B9 82                  CALL 9102h
0E49  B1 FF                     MOV  CL, FFh
0E4B  E8 F5 65                  CALL 7443h
0E4E  8D BE FC FE               LEA  DI, [BP-0104h]
0E52  16                        PUSH SS
0E53  E8 BE 65                  CALL 7414h
0E56  E8 D4 65                  CALL 742Dh
0E59  00 E8                     ADD  AL, CH
0E5B  71 66                     JNO  0EC3h
0E5D  75 03                     JNZ  0E62h
0E5F  E9 DB FF                  JMP  0E3Dh
0E62  E8 3B 79                  CALL 87A0h
0E65  8D BE FC FE               LEA  DI, [BP-0104h]
0E69  16                        PUSH SS
0E6A  E8 A7 65                  CALL 7414h
0E6D  B8 00 00                  MOV  AX, 0000h
0E70  E8 FB 7C                  CALL 8B6Eh
0E73  E8 47 7D                  CALL 8BBDh
0E76  E8 F1 63                  CALL 726Ah
0E79  8A 86 FD FE               MOV  AL, [BP-0103h]
0E7D  32 E4                     XOR  AH, AH
0E7F  E8 34 57                  CALL 65B6h
0E84  00 74 03                  ADD  [SI+03h], DH
0E87  E9 0F 00                  JMP  0E99h
0E8A  B8 01 00                  MOV  AX, 0001h
0E8D  B9 00 00                  MOV  CX, 0000h
0E90  BA 01 00                  MOV  DX, 0001h
0E93  E8 75 63                  CALL 720Bh
0E96  A2 8F 59                  MOV  [598Fh], AL
0E99  A0 8F 59                  MOV  AL, [598Fh]
0E9C  32 E4                     XOR  AH, AH
0E9E  0B C0                     OR   AX, AX
0EA0  75 03                     JNZ  0EA5h
0EA2  E9 88 FE                  JMP  0D2Dh
0EA5  8A 86 F9 FE               MOV  AL, [BP-0107h]
0EA9  32 E4                     XOR  AH, AH
0EAB  0B C0                     OR   AX, AX
0EAD  75 03                     JNZ  0EB2h
0EAF  E9 D6 00                  JMP  0F88h
0EB2  8B 5E FE                  MOV  BX, [BP-02h]
0EB5  36                        SS:
0EB6  8D BF A4 FD               LEA  DI, [BX-025Ch]
0EBA  16                        PUSH SS
0EBB  B9 01 00                  MOV  CX, 0001h
0EBE  E8 54 7D                  CALL 8C15h
0EC1  E8 9F 63                  CALL 7263h
0EC4  3D 00 00                  CMP  AX, 0000h
0EC7  B8 01 00                  MOV  AX, 0001h
0ECA  74 01                     JZ   0ECDh
0ECC  48                        DEC  AX
0ECD  B9 00 00                  MOV  CX, 0000h
0ED0  BA 01 00                  MOV  DX, 0001h
0ED3  E8 35 63                  CALL 720Bh
0ED6  88 86 FA FE               MOV  [BP-0106h], AL
0EDA  8A 86 FA FE               MOV  AL, [BP-0106h]
0EDE  32 E4                     XOR  AH, AH
0EE0  34 01                     XOR  AL, 01h
0EE2  75 03                     JNZ  0EE7h
0EE4  E9 A1 00                  JMP  0F88h
0EE7  B8 00 00                  MOV  AX, 0000h
0EEA  B9 00 00                  MOV  CX, 0000h
0EED  BA 01 00                  MOV  DX, 0001h
0EF0  E8 18 63                  CALL 720Bh
0EF3  88 86 F9 FE               MOV  [BP-0107h], AL
0EF7  E8 A6 78                  CALL 87A0h
0EFA  E8 A8 7C                  CALL 8BA5h
0EFD  15 20 2A                  ADC  AX, 2A20h
0F13  E8 A7 7C                  CALL 8BBDh
0F16  E8 51 63                  CALL 726Ah
0F19  E8 84 78                  CALL 87A0h
0F1C  E8 9E 7C                  CALL 8BBDh
0F1F  E8 48 63                  CALL 726Ah
0F22  E8 7B 78                  CALL 87A0h
0F25  E8 7D 7C                  CALL 8BA5h
0F4A  E8 1D 63                  CALL 726Ah
0F4D  E8 7F 78                  CALL 87CFh
0F50  8D 7E 04                  LEA  DI, [BP+04h]
0F53  16                        PUSH SS
0F54  B1 FF                     MOV  CL, FFh
0F56  E8 A2 7A                  CALL 89FBh
0F59  E8 0E 63                  CALL 726Ah
0F5C  8D 7E 04                  LEA  DI, [BP+04h]
0F5F  16                        PUSH SS
0F60  E8 B1 64                  CALL 7414h
0F63  E8 60 66                  CALL 75C6h
0F66  3D 00 00                  CMP  AX, 0000h
0F69  74 03                     JZ   0F6Eh
0F6B  E9 1A 00                  JMP  0F88h
0F6E  B8 09 00                  MOV  AX, 0009h
0F71  B9 00 00                  MOV  CX, 0000h
0F74  BA 0C 00                  MOV  DX, 000Ch
0F77  E8 91 62                  CALL 720Bh
0F7A  8B 5E FE                  MOV  BX, [BP-02h]
0F7D  36                        SS:
0F7E  88 87 F3 FE               MOV  [BX-010Dh], AL
0F82  E8 2D 93                  CALL A2B2h
0F85  E9 2A 00                  JMP  0FB2h
0F88  8A 86 F9 FE               MOV  AL, [BP-0107h]
0F8C  32 E4                     XOR  AH, AH
0F8E  0B C0                     OR   AX, AX
0F90  75 03                     JNZ  0F95h
0F92  E9 B7 FC                  JMP  0C4Ch
0F95  B8 01 00                  MOV  AX, 0001h
0F98  B9 00 00                  MOV  CX, 0000h
0F9B  BA 01 00                  MOV  DX, 0001h
0F9E  E8 6A 62                  CALL 720Bh
0FA1  8B 5E FE                  MOV  BX, [BP-02h]
0FA4  36                        SS:
0FA5  88 87 F5 FE               MOV  [BX-010Bh], AL
0FA9  B8 E8 03                  MOV  AX, 03E8h
0FAC  E8 AC 54                  CALL 645Bh
0FAF  E8 00 93                  CALL A2B2h
0FB2  E9 00 00                  JMP  0FB5h
0FB5  8B E5                     MOV  SP, BP
0FB7  5D                        POP  BP
0FB8  C2 00 01                  RET  0100h
0FBB  55                        PUSH BP
0FBC  8B C4                     MOV  AX, SP
0FBE  FF 76 FE                  PUSH  [BP-02h]
0FC1  8B E8                     MOV  BP, AX
0FC3  55                        PUSH BP
0FC4  E9 00 00                  JMP  0FC7h
0FC7  81 EC 0A 01               SUB  SP, 010Ah
0FCB  B8 00 00                  MOV  AX, 0000h
0FCE  B9 00 00                  MOV  CX, 0000h
0FD1  BA 01 00                  MOV  DX, 0001h
0FD4  E8 34 62                  CALL 720Bh
0FD7  88 46 04                  MOV  [BP+04h], AL
0FDA  8B 5E FE                  MOV  BX, [BP-02h]
0FDD  36                        SS:
0FDE  8D BF 39 FD               LEA  DI, [BX-02C7h]
0FE2  16                        PUSH SS
0FE3  E8 2E 64                  CALL 7414h
0FE6  B8 02 00                  MOV  AX, 0002h
0FE9  50                        PUSH AX
0FEA  B8 01 00                  MOV  AX, 0001h
0FED  E8 97 65                  CALL 7587h
0FF0  B8 01 3A                  MOV  AX, 3A01h
0FF3  50                        PUSH AX
0FF4  E8 CB 64                  CALL 74C2h
0FF7  75 03                     JNZ  0FFCh
0FF9  E9 28 00                  JMP  1024h
0FFC  8B 5E FE                  MOV  BX, [BP-02h]
0FFF  36                        SS:
1000  8D BF 39 FD               LEA  DI, [BX-02C7h]
1004  16                        PUSH SS
1005  E8 0C 64                  CALL 7414h
1008  B8 01 00                  MOV  AX, 0001h
100B  50                        PUSH AX
100C  B8 01 00                  MOV  AX, 0001h
100F  E8 75 65                  CALL 7587h
1012  E8 A3 66                  CALL 76B8h
1015  B9 00 00                  MOV  CX, 0000h
1018  BA FF 00                  MOV  DX, 00FFh
101B  E8 ED 61                  CALL 720Bh
101E  88 46 FA                  MOV  [BP-06h], AL
1021  E9 10 00                  JMP  1034h
1024  4C                        DEC  SP
1025  E8 45 A3                  CALL B36Dh
1028  B9 00 00                  MOV  CX, 0000h
102B  BA FF 00                  MOV  DX, 00FFh
102E  E8 DA 61                  CALL 720Bh
1031  88 46 FA                  MOV  [BP-06h], AL
1034  8D BE FA FE               LEA  DI, [BP-0106h]
1038  16                        PUSH SS
1039  57                        PUSH DI
103A  E8 F0 63                  CALL 742Dh
103D  00 B1 FF E8               ADD  [BX+DI-1701h], DH
1041  00 64 B8                  ADD  [SI-48h], AH
1044  01 00                     ADD  [BX+SI], AX
1046  50                        PUSH AX
1047  8B 5E FE                  MOV  BX, [BP-02h]
104A  36                        SS:
104B  8D BF 93 FA               LEA  DI, [BX-056Dh]
104F  16                        PUSH SS
1050  E8 C1 63                  CALL 7414h
1053  E8 70 65                  CALL 75C6h
1056  59                        POP  CX
1057  91                        XCHG AX, CX
1058  2B C8                     SUB  CX, AX
105A  7D 03                     JGE  105Fh
105C  E9 7E 00                  JMP  10DDh
105F  41                        INC  CX
1060  88 46 FB                  MOV  [BP-05h], AL
1063  51                        PUSH CX
1064  8B 5E FE                  MOV  BX, [BP-02h]
1067  36                        SS:
1068  8D BF 93 FA               LEA  DI, [BX-056Dh]
106C  16                        PUSH SS
106D  E8 A4 63                  CALL 7414h
1070  8A 46 FB                  MOV  AL, [BP-05h]
1073  32 E4                     XOR  AH, AH
1075  50                        PUSH AX
1076  B8 01 00                  MOV  AX, 0001h
1079  E8 0B 65                  CALL 7587h
107C  B8 01 20                  MOV  AX, 2001h
107F  50                        PUSH AX
1080  E8 3F 64                  CALL 74C2h
1083  75 03                     JNZ  1088h
1085  E9 1D 00                  JMP  10A5h
1088  8D BE FA FE               LEA  DI, [BP-0106h]
108C  16                        PUSH SS
108D  57                        PUSH DI
108E  8D BE FA FE               LEA  DI, [BP-0106h]
1092  16                        PUSH SS
1093  E8 7E 63                  CALL 7414h
1096  B8 01 30                  MOV  AX, 3001h
1099  50                        PUSH AX
109A  E8 A8 64                  CALL 7545h
109D  B1 FF                     MOV  CL, FFh
109F  E8 A1 63                  CALL 7443h
10A2  E9 2E 00                  JMP  10D3h
10A5  8D BE FA FE               LEA  DI, [BP-0106h]
10A9  16                        PUSH SS
10AA  57                        PUSH DI
10AB  8D BE FA FE               LEA  DI, [BP-0106h]
10AF  16                        PUSH SS
10B0  E8 61 63                  CALL 7414h
10B3  8B 5E FE                  MOV  BX, [BP-02h]
10B6  36                        SS:
10B7  8D BF 93 FA               LEA  DI, [BX-056Dh]
10BB  16                        PUSH SS
10BC  E8 55 63                  CALL 7414h
10BF  8A 46 FB                  MOV  AL, [BP-05h]
10C2  32 E4                     XOR  AH, AH
10C4  50                        PUSH AX
10C5  B8 01 00                  MOV  AX, 0001h
10C8  E8 BC 64                  CALL 7587h
10CB  E8 77 64                  CALL 7545h
10CE  B1 FF                     MOV  CL, FFh
10D0  E8 70 63                  CALL 7443h
10D6  06                        PUSH ES
10D7  FE 46 FB                  INC  [BP-05h]
10DA  E9 86 FF                  JMP  1063h
10DD  8D BE FA FE               LEA  DI, [BP-0106h]
10E1  16                        PUSH SS
10E2  E8 2F 63                  CALL 7414h
10E5  8D BE F4 FE               LEA  DI, [BP-010Ch]
10E9  16                        PUSH SS
10EA  57                        PUSH DI
10EB  8D BE F2 FE               LEA  DI, [BP-010Eh]
10EF  16                        PUSH SS
10F0  E8 E0 5F                  CALL 70D3h
10F3  8B 86 F2 FE               MOV  AX, [BP-010Eh]
10F7  3D 00 00                  CMP  AX, 0000h
10FA  74 03                     JZ   10FFh
10FC  E9 34 00                  JMP  1133h
10FF  8D BE F4 FE               LEA  DI, [BP-010Ch]
1103  16                        PUSH SS
1104  E8 B4 6A                  CALL 7BBBh
1107  83 EC 06                  SUB  SP, 06h
110A  8A 46 FA                  MOV  AL, [BP-06h]
110D  32 E4                     XOR  AH, AH
110F  B9 00 00                  MOV  CX, 0000h
1112  BA FF 00                  MOV  DX, 00FFh
1115  E8 F3 60                  CALL 720Bh
1118  50                        PUSH AX
1119  E8 EB A1                  CALL B307h
111C  E8 9F 6B                  CALL 7CBEh
111F  75 03                     JNZ  1124h
1121  E9 0F 00                  JMP  1133h
1124  B8 01 00                  MOV  AX, 0001h
1127  B9 00 00                  MOV  CX, 0000h
112A  BA 01 00                  MOV  DX, 0001h
112D  E8 DB 60                  CALL 720Bh
1130  88 46 04                  MOV  [BP+04h], AL
1133  E9 00 00                  JMP  1136h
1136  8A 46 04                  MOV  AL, [BP+04h]
1139  32 E4                     XOR  AH, AH
113B  0B C0                     OR   AX, AX
113D  8B E5                     MOV  SP, BP
113F  5D                        POP  BP
1140  C2 01 00                  RET  0001h
1143  55                        PUSH BP
1144  8B C4                     MOV  AX, SP
1146  FF 76 FE                  PUSH  [BP-02h]
1149  8B E8                     MOV  BP, AX
114B  55                        PUSH BP
114C  E9 00 00                  JMP  114Fh
114F  4C                        DEC  SP
1150  E8 3B AA                  CALL BB8Eh
1153  E9 00 00                  JMP  1156h
1156  8B E5                     MOV  SP, BP
1158  5D                        POP  BP
1159  C3                        RET
115A  55                        PUSH BP
115B  8B C4                     MOV  AX, SP
115D  FF 76 FE                  PUSH  [BP-02h]
1160  8B E8                     MOV  BP, AX
1162  55                        PUSH BP
1163  E9 00 00                  JMP  1166h
1166  A0 7F 02                  MOV  AL, [027Fh]
1169  32 E4                     XOR  AH, AH
116B  34 01                     XOR  AL, 01h
116D  B9 00 00                  MOV  CX, 0000h
1170  BA 01 00                  MOV  DX, 0001h
1173  E8 95 60                  CALL 720Bh
1176  88 46 04                  MOV  [BP+04h], AL
1179  E9 00 00                  JMP  117Ch
117C  8A 46 04                  MOV  AL, [BP+04h]
117F  32 E4                     XOR  AH, AH
1181  0B C0                     OR   AX, AX
1183  8B E5                     MOV  SP, BP
1185  5D                        POP  BP
1186  C2 01 00                  RET  0001h
1189  55                        PUSH BP
118A  8B C4                     MOV  AX, SP
118C  FF 76 FE                  PUSH  [BP-02h]
118F  8B E8                     MOV  BP, AX
1191  55                        PUSH BP
1192  E9 00 00                  JMP  1195h
1195  A1 7A 02                  MOV  AX, [027Ah]
1198  A3 78 02                  MOV  [0278h], AX
119B  A1 6C 02                  MOV  AX, [026Ch]
119E  A3 6E 02                  MOV  [026Eh], AX
11A1  E9 00 00                  JMP  11A4h
11A4  8B E5                     MOV  SP, BP
11A6  5D                        POP  BP
11A7  C3                        RET
11A8  55                        PUSH BP
11A9  8B C4                     MOV  AX, SP
11AB  FF 76 FE                  PUSH  [BP-02h]
11AE  8B E8                     MOV  BP, AX
11B0  55                        PUSH BP
11B1  E9 00 00                  JMP  11B4h
11B4  E9 00 00                  JMP  11B7h
11B7  8B E5                     MOV  SP, BP
11B9  5D                        POP  BP
11BA  C3                        RET
11BB  55                        PUSH BP
11BC  8B C4                     MOV  AX, SP
11BE  FF 76 FE                  PUSH  [BP-02h]
11C1  8B E8                     MOV  BP, AX
11C3  55                        PUSH BP
11C4  E9 00 00                  JMP  11C7h
11C7  B8 00 00                  MOV  AX, 0000h
11CA  B9 00 00                  MOV  CX, 0000h
11CD  BA 01 00                  MOV  DX, 0001h
11D0  E8 38 60                  CALL 720Bh
11D3  88 46 04                  MOV  [BP+04h], AL
11D6  8B 5E FE                  MOV  BX, [BP-02h]
11D9  36                        SS:
11DA  8A 87 F3 FE               MOV  AL, [BX-010Dh]
11DE  32 E4                     XOR  AH, AH
11E0  3D 00 00                  CMP  AX, 0000h
11E3  B8 01 00                  MOV  AX, 0001h
11E6  74 01                     JZ   11E9h
11E8  48                        DEC  AX
11E9  50                        PUSH AX
11EA  8B 5E FE                  MOV  BX, [BP-02h]
11ED  36                        SS:
11EE  8A 87 F3 FE               MOV  AL, [BX-010Dh]
11F2  32 E4                     XOR  AH, AH
11F4  3D 01 00                  CMP  AX, 0001h
11F7  B8 01 00                  MOV  AX, 0001h
11FA  74 01                     JZ   11FDh
11FC  48                        DEC  AX
11FD  59                        POP  CX
11FE  0B C1                     OR   AX, CX
1200  0B C0                     OR   AX, AX
1202  75 03                     JNZ  1207h
1204  E9 0A 00                  JMP  1211h
1207  B8 14 00                  MOV  AX, 0014h
120A  50                        PUSH AX
120B  E8 DA F1                  CALL 03E8h
120E  E9 07 00                  JMP  1218h
1211  B8 78 00                  MOV  AX, 0078h
1214  50                        PUSH AX
1215  E8 D0 F1                  CALL 03E8h
1218  4C                        DEC  SP
1219  E8 EC F1                  CALL 0408h
121C  75 03                     JNZ  1221h
121E  E9 26 00                  JMP  1247h
1221  B8 0E 00                  MOV  AX, 000Eh
1224  B9 00 00                  MOV  CX, 0000h
1227  BA 10 00                  MOV  DX, 0010h
122A  E8 DE 5F                  CALL 720Bh
122D  8B 5E FE                  MOV  BX, [BP-02h]
1230  36                        SS:
1231  88 87 F2 FE               MOV  [BX-010Eh], AL
1235  B8 01 00                  MOV  AX, 0001h
1238  B9 00 00                  MOV  CX, 0000h
123B  BA 01 00                  MOV  DX, 0001h
123E  E8 CA 5F                  CALL 720Bh
1241  88 46 04                  MOV  [BP+04h], AL
1244  E9 3F 00                  JMP  1286h
1247  4C                        DEC  SP
1248  E8 57 F2                  CALL 04A2h
124B  75 03                     JNZ  1250h
124D  E9 12 00                  JMP  1262h
1250  B8 01 00                  MOV  AX, 0001h
1253  B9 00 00                  MOV  CX, 0000h
1256  BA 01 00                  MOV  DX, 0001h
1259  E8 AF 5F                  CALL 720Bh
125C  88 46 04                  MOV  [BP+04h], AL
125F  E9 24 00                  JMP  1286h
1262  4C                        DEC  SP
1263  E8 F4 FE                  CALL 115Ah
1266  75 03                     JNZ  126Bh
1268  E9 12 00                  JMP  127Dh
126B  B8 01 00                  MOV  AX, 0001h
126E  B9 00 00                  MOV  CX, 0000h
1271  BA 01 00                  MOV  DX, 0001h
1274  E8 94 5F                  CALL 720Bh
1277  88 46 04                  MOV  [BP+04h], AL
127A  E9 09 00                  JMP  1286h
127D  4C                        DEC  SP
127E  E8 A9 F2                  CALL 052Ah
1281  75 03                     JNZ  1286h
1283  E9 92 FF                  JMP  1218h
1286  E9 00 00                  JMP  1289h
1289  8A 46 04                  MOV  AL, [BP+04h]
128C  32 E4                     XOR  AH, AH
128E  0B C0                     OR   AX, AX
1290  8B E5                     MOV  SP, BP
1292  5D                        POP  BP
1293  C2 01 00                  RET  0001h
1296  55                        PUSH BP
1297  8B C4                     MOV  AX, SP
1299  FF 76 FE                  PUSH  [BP-02h]
129C  8B E8                     MOV  BP, AX
129E  55                        PUSH BP
129F  E9 00 00                  JMP  12A2h
12A2  83 EC 03                  SUB  SP, 03h
12A5  4C                        DEC  SP
12A6  E8 12 FF                  CALL 11BBh
12A9  75 03                     JNZ  12AEh
12AB  E9 03 00                  JMP  12B1h
12AE  E9 CD 00                  JMP  137Eh
12B1  4C                        DEC  SP
12B2  E8 BE F2                  CALL 0573h
12B5  B9 00 00                  MOV  CX, 0000h
12B8  BA FF 00                  MOV  DX, 00FFh
12BB  E8 4D 5F                  CALL 720Bh
12BE  88 46 F9                  MOV  [BP-07h], AL
12C1  8A 46 F9                  MOV  AL, [BP-07h]
12C4  32 E4                     XOR  AH, AH
12C6  8B 5E FE                  MOV  BX, [BP-02h]
12C9  36                        SS:
12CA  89 87 F0 FD               MOV  [BX-0210h], AX
12CE  8B 5E FE                  MOV  BX, [BP-02h]
12D1  36                        SS:
12D2  8A 87 F2 FE               MOV  AL, [BX-010Eh]
12D6  32 E4                     XOR  AH, AH
12D8  3D 05 00                  CMP  AX, 0005h
12DB  B8 01 00                  MOV  AX, 0001h
12DE  74 01                     JZ   12E1h
12E0  48                        DEC  AX
12E1  50                        PUSH AX
12E2  8B 5E FE                  MOV  BX, [BP-02h]
12E5  36                        SS:
12E6  8B 87 F0 FD               MOV  AX, [BX-0210h]
12EA  3D 00 00                  CMP  AX, 0000h
12ED  B8 01 00                  MOV  AX, 0001h
12F0  74 01                     JZ   12F3h
12F2  48                        DEC  AX
12F3  59                        POP  CX
12F4  23 C1                     AND  AX, CX
12F6  0B C0                     OR   AX, AX
12F8  75 03                     JNZ  12FDh
12FA  E9 0B 00                  JMP  1308h
12FD  B8 00 01                  MOV  AX, 0100h
1300  8B 5E FE                  MOV  BX, [BP-02h]
1303  36                        SS:
1304  89 87 F0 FD               MOV  [BX-0210h], AX
1308  8B 5E FE                  MOV  BX, [BP-02h]
130B  36                        SS:
130C  8B 87 F0 FD               MOV  AX, [BX-0210h]
1310  3D 00 00                  CMP  AX, 0000h
1313  74 03                     JZ   1318h
1315  E9 03 00                  JMP  131Bh
1318  E9 63 00                  JMP  137Eh
131B  B8 01 00                  MOV  AX, 0001h
131E  50                        PUSH AX
131F  8B 5E FE                  MOV  BX, [BP-02h]
1322  36                        SS:
1323  8B 87 F0 FD               MOV  AX, [BX-0210h]
1327  59                        POP  CX
1328  91                        XCHG AX, CX
1329  2B C8                     SUB  CX, AX
132B  7D 03                     JGE  1330h
132D  E9 4E 00                  JMP  137Eh
1330  41                        INC  CX
1331  89 46 FA                  MOV  [BP-06h], AX
1334  51                        PUSH CX
1335  4C                        DEC  SP
1336  E8 82 FE                  CALL 11BBh
1339  75 03                     JNZ  133Eh
133B  E9 03 00                  JMP  1341h
133E  E9 40 00                  JMP  1381h
1341  4C                        DEC  SP
1342  E8 2E F2                  CALL 0573h
1345  B9 00 00                  MOV  CX, 0000h
1348  BA FF 00                  MOV  DX, 00FFh
134B  E8 BD 5E                  CALL 720Bh
134E  88 46 F9                  MOV  [BP-07h], AL
1351  8B 46 FA                  MOV  AX, [BP-06h]
1354  48                        DEC  AX
1355  B9 00 01                  MOV  CX, 0100h
1358  E8 A6 5E                  CALL 7201h
135B  97                        XCHG AX, DI
135C  57                        PUSH DI
135D  8A 46 F9                  MOV  AL, [BP-07h]
1360  32 E4                     XOR  AH, AH
1362  5F                        POP  DI
1363  B9 00 00                  MOV  CX, 0000h
1366  BA FF 00                  MOV  DX, 00FFh
1369  E8 9F 5E                  CALL 720Bh
136C  8B 5E FE                  MOV  BX, [BP-02h]
136F  36                        SS:
1370  88 81 F2 FD               MOV  [BX+DI-020Eh], AL
1374  59                        POP  CX
1375  49                        DEC  CX
1376  74 06                     JZ   137Eh
1378  FF 46 FA                  INC  [BP-06h]
137B  E9 B6 FF                  JMP  1334h
137E  E9 04 00                  JMP  1385h
1381  58                        POP  AX
1382  E9 F9 FF                  JMP  137Eh
1385  8B E5                     MOV  SP, BP
1387  5D                        POP  BP
1388  C3                        RET
1389  55                        PUSH BP
138A  8B C4                     MOV  AX, SP
138C  FF 76 FE                  PUSH  [BP-02h]
138F  8B E8                     MOV  BP, AX
1391  55                        PUSH BP
1392  E9 00 00                  JMP  1395h
1395  4C                        DEC  SP
1396  B8 00 00                  MOV  AX, 0000h
1399  B9 00 00                  MOV  CX, 0000h
139C  BA 10 00                  MOV  DX, 0010h
139F  E8 69 5E                  CALL 720Bh
13A2  8B 5E FE                  MOV  BX, [BP-02h]
13A5  36                        SS:
13A6  88 87 F2 FE               MOV  [BX-010Eh], AL
13AA  4C                        DEC  SP
13AB  E8 0D FE                  CALL 11BBh
13AE  75 03                     JNZ  13B3h
13B0  E9 03 00                  JMP  13B6h
13B3  E9 94 02                  JMP  164Ah
13B6  4C                        DEC  SP
13B7  E8 B9 F1                  CALL 0573h
13BA  B9 00 00                  MOV  CX, 0000h
13BD  BA FF 00                  MOV  DX, 00FFh
13C0  E8 48 5E                  CALL 720Bh
13C3  88 46 FB                  MOV  [BP-05h], AL
13C6  8A 46 FB                  MOV  AL, [BP-05h]
13C9  32 E4                     XOR  AH, AH
13CB  3D 06 00                  CMP  AX, 0006h
13CE  74 03                     JZ   13D3h
13D0  E9 BF 00                  JMP  1492h
13D3  4C                        DEC  SP
13D4  E8 E4 FD                  CALL 11BBh
13D7  75 03                     JNZ  13DCh
13D9  E9 03 00                  JMP  13DFh
13DC  E9 6B 02                  JMP  164Ah
13DF  4C                        DEC  SP
13E0  E8 90 F1                  CALL 0573h
13E3  B9 00 00                  MOV  CX, 0000h
13E6  BA FF 00                  MOV  DX, 00FFh
13E9  E8 1F 5E                  CALL 720Bh
13EC  88 46 FB                  MOV  [BP-05h], AL
13EF  8A 46 FB                  MOV  AL, [BP-05h]
13F2  32 E4                     XOR  AH, AH
13F4  3D 01 00                  CMP  AX, 0001h
13F7  74 03                     JZ   13FCh
13F9  E9 17 00                  JMP  1413h
13FC  B8 01 00                  MOV  AX, 0001h
13FF  B9 00 00                  MOV  CX, 0000h
1402  BA 10 00                  MOV  DX, 0010h
1405  E8 03 5E                  CALL 720Bh
1408  8B 5E FE                  MOV  BX, [BP-02h]
140B  36                        SS:
140C  88 87 F2 FE               MOV  [BX-010Eh], AL
1410  E9 7C 00                  JMP  148Fh
1413  3D 02 00                  CMP  AX, 0002h
1416  74 03                     JZ   141Bh
1418  E9 17 00                  JMP  1432h
141B  B8 02 00                  MOV  AX, 0002h
141E  B9 00 00                  MOV  CX, 0000h
1421  BA 10 00                  MOV  DX, 0010h
1424  E8 E4 5D                  CALL 720Bh
1427  8B 5E FE                  MOV  BX, [BP-02h]
142A  36                        SS:
142B  88 87 F2 FE               MOV  [BX-010Eh], AL
142F  E9 5D 00                  JMP  148Fh
1432  3D 03 00                  CMP  AX, 0003h
1435  74 03                     JZ   143Ah
1437  E9 17 00                  JMP  1451h
143A  B8 0F 00                  MOV  AX, 000Fh
143D  B9 00 00                  MOV  CX, 0000h
1440  BA 10 00                  MOV  DX, 0010h
1443  E8 C5 5D                  CALL 720Bh
1446  8B 5E FE                  MOV  BX, [BP-02h]
1449  36                        SS:
144A  88 87 F2 FE               MOV  [BX-010Eh], AL
144E  E9 3E 00                  JMP  148Fh
1451  3D 04 00                  CMP  AX, 0004h
1454  74 03                     JZ   1459h
1456  E9 17 00                  JMP  1470h
1459  B8 10 00                  MOV  AX, 0010h
145C  B9 00 00                  MOV  CX, 0000h
145F  BA 10 00                  MOV  DX, 0010h
1462  E8 A6 5D                  CALL 720Bh
1465  8B 5E FE                  MOV  BX, [BP-02h]
1468  36                        SS:
1469  88 87 F2 FE               MOV  [BX-010Eh], AL
146D  E9 1F 00                  JMP  148Fh
1470  3D 05 00                  CMP  AX, 0005h
1473  74 03                     JZ   1478h
1475  E9 17 00                  JMP  148Fh
1478  B8 0A 00                  MOV  AX, 000Ah
147B  B9 00 00                  MOV  CX, 0000h
147E  BA 10 00                  MOV  DX, 0010h
1481  E8 87 5D                  CALL 720Bh
1484  8B 5E FE                  MOV  BX, [BP-02h]
1487  36                        SS:
1488  88 87 F2 FE               MOV  [BX-010Eh], AL
148C  E9 00 00                  JMP  148Fh
148F  E9 B8 01                  JMP  164Ah
1492  3D 05 00                  CMP  AX, 0005h
1495  74 03                     JZ   149Ah
1497  E9 76 00                  JMP  1510h
149A  4C                        DEC  SP
149B  E8 1D FD                  CALL 11BBh
149E  75 03                     JNZ  14A3h
14A0  E9 03 00                  JMP  14A6h
14A3  E9 A4 01                  JMP  164Ah
14A6  4C                        DEC  SP
14A7  E8 C9 F0                  CALL 0573h
14AA  B9 00 00                  MOV  CX, 0000h
14AD  BA FF 00                  MOV  DX, 00FFh
14B0  E8 58 5D                  CALL 720Bh
14B3  88 46 FB                  MOV  [BP-05h], AL
14B6  8A 46 FB                  MOV  AL, [BP-05h]
14B9  32 E4                     XOR  AH, AH
14BB  3D 01 00                  CMP  AX, 0001h
14BE  74 03                     JZ   14C3h
14C0  E9 17 00                  JMP  14DAh
14C3  B8 03 00                  MOV  AX, 0003h
14C6  B9 00 00                  MOV  CX, 0000h
14C9  BA 10 00                  MOV  DX, 0010h
14CC  E8 3C 5D                  CALL 720Bh
14CF  8B 5E FE                  MOV  BX, [BP-02h]
14D2  36                        SS:
14D3  88 87 F2 FE               MOV  [BX-010Eh], AL
14D7  E9 33 00                  JMP  150Dh
14DA  3D 02 00                  CMP  AX, 0002h
14DD  74 03                     JZ   14E2h
14DF  E9 17 00                  JMP  14F9h
14E2  B8 0B 00                  MOV  AX, 000Bh
14E5  B9 00 00                  MOV  CX, 0000h
14E8  BA 10 00                  MOV  DX, 0010h
14EB  E8 1D 5D                  CALL 720Bh
14EE  8B 5E FE                  MOV  BX, [BP-02h]
14F1  36                        SS:
14F2  88 87 F2 FE               MOV  [BX-010Eh], AL
14F6  E9 14 00                  JMP  150Dh
14F9  B8 0D 00                  MOV  AX, 000Dh
14FC  B9 00 00                  MOV  CX, 0000h
14FF  BA 10 00                  MOV  DX, 0010h
1502  E8 06 5D                  CALL 720Bh
1505  8B 5E FE                  MOV  BX, [BP-02h]
1508  36                        SS:
1509  88 87 F2 FE               MOV  [BX-010Eh], AL
150D  E9 3A 01                  JMP  164Ah
1510  3D 01 00                  CMP  AX, 0001h
1513  74 03                     JZ   1518h
1515  E9 1A 00                  JMP  1532h
1518  B8 04 00                  MOV  AX, 0004h
151B  B9 00 00                  MOV  CX, 0000h
151E  BA 10 00                  MOV  DX, 0010h
1521  E8 E7 5C                  CALL 720Bh
1524  8B 5E FE                  MOV  BX, [BP-02h]
1527  36                        SS:
1528  88 87 F2 FE               MOV  [BX-010Eh], AL
152C  E8 67 FD                  CALL 1296h
152F  E9 18 01                  JMP  164Ah
1532  3D 02 00                  CMP  AX, 0002h
1535  74 03                     JZ   153Ah
1537  E9 1A 00                  JMP  1554h
153A  B8 05 00                  MOV  AX, 0005h
153D  B9 00 00                  MOV  CX, 0000h
1540  BA 10 00                  MOV  DX, 0010h
1543  E8 C5 5C                  CALL 720Bh
1546  8B 5E FE                  MOV  BX, [BP-02h]
1549  36                        SS:
154A  88 87 F2 FE               MOV  [BX-010Eh], AL
154E  E8 45 FD                  CALL 1296h
1551  E9 F6 00                  JMP  164Ah
1554  3D 03 00                  CMP  AX, 0003h
1557  74 03                     JZ   155Ch
1559  E9 40 00                  JMP  159Ch
155C  4C                        DEC  SP
155D  E8 5B FC                  CALL 11BBh
1560  75 03                     JNZ  1565h
1562  E9 03 00                  JMP  1568h
1565  E9 E2 00                  JMP  164Ah
1568  4C                        DEC  SP
1569  E8 07 F0                  CALL 0573h
156C  B9 00 00                  MOV  CX, 0000h
156F  BA FF 00                  MOV  DX, 00FFh
1572  E8 96 5C                  CALL 720Bh
1575  88 46 FB                  MOV  [BP-05h], AL
1578  8A 46 FB                  MOV  AL, [BP-05h]
157B  32 E4                     XOR  AH, AH
157D  3D 01 00                  CMP  AX, 0001h
1580  74 03                     JZ   1585h
1582  E9 14 00                  JMP  1599h
1585  B8 06 00                  MOV  AX, 0006h
1588  B9 00 00                  MOV  CX, 0000h
158B  BA 10 00                  MOV  DX, 0010h
158E  E8 7A 5C                  CALL 720Bh
1591  8B 5E FE                  MOV  BX, [BP-02h]
1594  36                        SS:
1595  88 87 F2 FE               MOV  [BX-010Eh], AL
1599  E9 AE 00                  JMP  164Ah
159C  3D 04 00                  CMP  AX, 0004h
159F  74 03                     JZ   15A4h
15A1  E9 40 00                  JMP  15E4h
15A4  4C                        DEC  SP
15A5  E8 13 FC                  CALL 11BBh
15A8  75 03                     JNZ  15ADh
15AA  E9 03 00                  JMP  15B0h
15AD  E9 9A 00                  JMP  164Ah
15B0  4C                        DEC  SP
15B1  E8 BF EF                  CALL 0573h
15B4  B9 00 00                  MOV  CX, 0000h
15B7  BA FF 00                  MOV  DX, 00FFh
15BA  E8 4E 5C                  CALL 720Bh
15BD  88 46 FB                  MOV  [BP-05h], AL
15C0  8A 46 FB                  MOV  AL, [BP-05h]
15C3  32 E4                     XOR  AH, AH
15C5  3D 01 00                  CMP  AX, 0001h
15C8  74 03                     JZ   15CDh
15CA  E9 14 00                  JMP  15E1h
15CD  B8 07 00                  MOV  AX, 0007h
15D0  B9 00 00                  MOV  CX, 0000h
15D3  BA 10 00                  MOV  DX, 0010h
15D6  E8 32 5C                  CALL 720Bh
15D9  8B 5E FE                  MOV  BX, [BP-02h]
15DC  36                        SS:
15DD  88 87 F2 FE               MOV  [BX-010Eh], AL
15E1  E9 66 00                  JMP  164Ah
15E4  3D 15 00                  CMP  AX, 0015h
15E7  74 03                     JZ   15ECh
15E9  E9 1A 00                  JMP  1606h
15EC  B8 08 00                  MOV  AX, 0008h
15EF  B9 00 00                  MOV  CX, 0000h
15F2  BA 10 00                  MOV  DX, 0010h
15F5  E8 13 5C                  CALL 720Bh
15F8  8B 5E FE                  MOV  BX, [BP-02h]
15FB  36                        SS:
15FC  88 87 F2 FE               MOV  [BX-010Eh], AL
1600  E8 93 FC                  CALL 1296h
1603  E9 44 00                  JMP  164Ah
1606  3D 18 00                  CMP  AX, 0018h
1609  74 03                     JZ   160Eh
160B  E9 1A 00                  JMP  1628h
160E  B8 09 00                  MOV  AX, 0009h
1611  B9 00 00                  MOV  CX, 0000h
1614  BA 10 00                  MOV  DX, 0010h
1617  E8 F1 5B                  CALL 720Bh
161A  8B 5E FE                  MOV  BX, [BP-02h]
161D  36                        SS:
161E  88 87 F2 FE               MOV  [BX-010Eh], AL
1622  E8 71 FC                  CALL 1296h
1625  E9 22 00                  JMP  164Ah
1628  3D 10 00                  CMP  AX, 0010h
162B  74 03                     JZ   1630h
162D  E9 1A 00                  JMP  164Ah
1630  B8 0C 00                  MOV  AX, 000Ch
1633  B9 00 00                  MOV  CX, 0000h
1636  BA 10 00                  MOV  DX, 0010h
1639  E8 CF 5B                  CALL 720Bh
163C  8B 5E FE                  MOV  BX, [BP-02h]
163F  36                        SS:
1640  88 87 F2 FE               MOV  [BX-010Eh], AL
1644  E8 4F FC                  CALL 1296h
1647  E9 00 00                  JMP  164Ah
164A  E9 00 00                  JMP  164Dh
164D  8B E5                     MOV  SP, BP
164F  5D                        POP  BP
1650  C3                        RET
1651  55                        PUSH BP
1652  8B C4                     MOV  AX, SP
1654  FF 76 FE                  PUSH  [BP-02h]
1657  8B E8                     MOV  BP, AX
1659  55                        PUSH BP
165A  E9 00 00                  JMP  165Dh
165D  B8 00 00                  MOV  AX, 0000h
1660  8B 5E FE                  MOV  BX, [BP-02h]
1663  36                        SS:
1664  89 47 FC                  MOV  [BX-04h], AX
1667  B8 05 00                  MOV  AX, 0005h
166A  50                        PUSH AX
166B  B8 01 01                  MOV  AX, 0101h
166E  50                        PUSH AX
166F  E8 59 60                  CALL 76CBh
1672  E8 D0 5E                  CALL 7545h
1675  B1 FF                     MOV  CL, FFh
1677  E8 0B 5E                  CALL 7485h
167A  E8 B3 EF                  CALL 0630h
167D  B8 01 00                  MOV  AX, 0001h
1680  50                        PUSH AX
1681  E8 EE F2                  CALL 0972h
1684  E8 02 FD                  CALL 1389h
1687  8B 5E FE                  MOV  BX, [BP-02h]
168A  36                        SS:
168B  8A 87 F2 FE               MOV  AL, [BX-010Eh]
168F  32 E4                     XOR  AH, AH
1691  3D 0E 00                  CMP  AX, 000Eh
1694  74 03                     JZ   1699h
1696  E9 17 00                  JMP  16B0h
1699  B8 01 00                  MOV  AX, 0001h
169C  B9 00 00                  MOV  CX, 0000h
169F  BA 0C 00                  MOV  DX, 000Ch
16A2  E8 66 5B                  CALL 720Bh
16A5  8B 5E FE                  MOV  BX, [BP-02h]
16A8  36                        SS:
16A9  88 87 F3 FE               MOV  [BX-010Dh], AL
16AD  E9 CB 00                  JMP  177Bh
16B0  3D 0B 00                  CMP  AX, 000Bh
16B3  74 03                     JZ   16B8h
16B5  E9 17 00                  JMP  16CFh
16B8  B8 00 00                  MOV  AX, 0000h
16BB  B9 00 00                  MOV  CX, 0000h
16BE  BA 0C 00                  MOV  DX, 000Ch
16C1  E8 47 5B                  CALL 720Bh
16C4  8B 5E FE                  MOV  BX, [BP-02h]
16C7  36                        SS:
16C8  88 87 F3 FE               MOV  [BX-010Dh], AL
16CC  E9 AC 00                  JMP  177Bh
16CF  3D 01 00                  CMP  AX, 0001h
16D2  74 03                     JZ   16D7h
16D4  E9 17 00                  JMP  16EEh
16D7  B8 02 00                  MOV  AX, 0002h
16DA  B9 00 00                  MOV  CX, 0000h
16DD  BA 0C 00                  MOV  DX, 000Ch
16E0  E8 28 5B                  CALL 720Bh
16E3  8B 5E FE                  MOV  BX, [BP-02h]
16E6  36                        SS:
16E7  88 87 F3 FE               MOV  [BX-010Dh], AL
16EB  E9 8D 00                  JMP  177Bh
16EE  3D 02 00                  CMP  AX, 0002h
16F1  74 03                     JZ   16F6h
16F3  E9 1E 00                  JMP  1714h
16F6  B8 03 00                  MOV  AX, 0003h
16F9  B9 00 00                  MOV  CX, 0000h
16FC  BA 0C 00                  MOV  DX, 000Ch
16FF  E8 09 5B                  CALL 720Bh
1702  8B 5E FE                  MOV  BX, [BP-02h]
1705  36                        SS:
1706  88 87 F3 FE               MOV  [BX-010Dh], AL
170A  B8 03 00                  MOV  AX, 0003h
170D  50                        PUSH AX
170E  E8 61 F2                  CALL 0972h
1711  E9 67 00                  JMP  177Bh
1714  3D 09 00                  CMP  AX, 0009h
1717  74 03                     JZ   171Ch
1719  E9 17 00                  JMP  1733h
171C  B8 0B 00                  MOV  AX, 000Bh
171F  B9 00 00                  MOV  CX, 0000h
1722  BA 0C 00                  MOV  DX, 000Ch
1725  E8 E3 5A                  CALL 720Bh
1728  8B 5E FE                  MOV  BX, [BP-02h]
172B  36                        SS:
172C  88 87 F3 FE               MOV  [BX-010Dh], AL
1730  E9 48 00                  JMP  177Bh
1733  3D 08 00                  CMP  AX, 0008h
1736  74 03                     JZ   173Bh
1738  E9 17 00                  JMP  1752h
173B  B8 0C 00                  MOV  AX, 000Ch
173E  B9 00 00                  MOV  CX, 0000h
1741  BA 0C 00                  MOV  DX, 000Ch
1744  E8 C4 5A                  CALL 720Bh
1747  8B 5E FE                  MOV  BX, [BP-02h]
174A  36                        SS:
174B  88 87 F3 FE               MOV  [BX-010Dh], AL
174F  E9 29 00                  JMP  177Bh
1752  3D 0C 00                  CMP  AX, 000Ch
1755  74 03                     JZ   175Ah
1757  E9 06 00                  JMP  1760h
175A  E8 4B FA                  CALL 11A8h
175D  E9 1B 00                  JMP  177Bh
1760  B8 09 00                  MOV  AX, 0009h
1763  B9 00 00                  MOV  CX, 0000h
1766  BA 0C 00                  MOV  DX, 000Ch
1769  E8 9F 5A                  CALL 720Bh
176C  8B 5E FE                  MOV  BX, [BP-02h]
176F  36                        SS:
1770  88 87 F3 FE               MOV  [BX-010Dh], AL
1774  B8 11 00                  MOV  AX, 0011h
1777  50                        PUSH AX
1778  E8 F7 F1                  CALL 0972h
177B  E9 00 00                  JMP  177Eh
177E  8B E5                     MOV  SP, BP
1780  5D                        POP  BP
1781  C3                        RET
1782  55                        PUSH BP
1783  8B C4                     MOV  AX, SP
1785  FF 76 FE                  PUSH  [BP-02h]
1788  8B E8                     MOV  BP, AX
178A  55                        PUSH BP
178B  E9 00 00                  JMP  178Eh
178E  8B 5E FE                  MOV  BX, [BP-02h]
1791  36                        SS:
1792  8B 47 FC                  MOV  AX, [BX-04h]
1795  05 01 00                  ADD  AX, 0001h
1798  8B 5E FE                  MOV  BX, [BP-02h]
179B  36                        SS:
179C  89 47 FC                  MOV  [BX-04h], AX
179F  8B 5E FE                  MOV  BX, [BP-02h]
17A2  36                        SS:
17A3  8B 47 FC                  MOV  AX, [BX-04h]
17A6  3D 06 00                  CMP  AX, 0006h
17A9  7F 03                     JG   17AEh
17AB  E9 1E 00                  JMP  17CCh
17AE  B8 09 00                  MOV  AX, 0009h
17B1  B9 00 00                  MOV  CX, 0000h
17B4  BA 0C 00                  MOV  DX, 000Ch
17B7  E8 51 5A                  CALL 720Bh
17BA  8B 5E FE                  MOV  BX, [BP-02h]
17BD  36                        SS:
17BE  88 87 F3 FE               MOV  [BX-010Dh], AL
17C2  B8 10 00                  MOV  AX, 0010h
17C5  50                        PUSH AX
17C6  E8 A9 F1                  CALL 0972h
17C9  E9 0D 01                  JMP  18D9h
17CC  B8 05 00                  MOV  AX, 0005h
17CF  50                        PUSH AX
17D0  B8 01 01                  MOV  AX, 0101h
17D3  50                        PUSH AX
17D4  E8 F4 5E                  CALL 76CBh
17D7  E8 6B 5D                  CALL 7545h
17DA  B1 FF                     MOV  CL, FFh
17DC  E8 A6 5C                  CALL 7485h
17DF  E8 4E EE                  CALL 0630h
17E2  E8 A4 FB                  CALL 1389h
17E5  8B 5E FE                  MOV  BX, [BP-02h]
17E8  36                        SS:
17E9  8A 87 F2 FE               MOV  AL, [BX-010Eh]
17ED  32 E4                     XOR  AH, AH
17EF  3D 0E 00                  CMP  AX, 000Eh
17F2  74 03                     JZ   17F7h
17F4  E9 17 00                  JMP  180Eh
17F7  B8 01 00                  MOV  AX, 0001h
17FA  B9 00 00                  MOV  CX, 0000h
17FD  BA 0C 00                  MOV  DX, 000Ch
1800  E8 08 5A                  CALL 720Bh
1803  8B 5E FE                  MOV  BX, [BP-02h]
1806  36                        SS:
1807  88 87 F3 FE               MOV  [BX-010Dh], AL
180B  E9 CB 00                  JMP  18D9h
180E  3D 0B 00                  CMP  AX, 000Bh
1811  74 03                     JZ   1816h
1813  E9 17 00                  JMP  182Dh
1816  B8 00 00                  MOV  AX, 0000h
1819  B9 00 00                  MOV  CX, 0000h
181C  BA 0C 00                  MOV  DX, 000Ch
181F  E8 E9 59                  CALL 720Bh
1822  8B 5E FE                  MOV  BX, [BP-02h]
1825  36                        SS:
1826  88 87 F3 FE               MOV  [BX-010Dh], AL
182A  E9 AC 00                  JMP  18D9h
182D  3D 01 00                  CMP  AX, 0001h
1830  74 03                     JZ   1835h
1832  E9 17 00                  JMP  184Ch
1835  B8 02 00                  MOV  AX, 0002h
1838  B9 00 00                  MOV  CX, 0000h
183B  BA 0C 00                  MOV  DX, 000Ch
183E  E8 CA 59                  CALL 720Bh
1841  8B 5E FE                  MOV  BX, [BP-02h]
1844  36                        SS:
1845  88 87 F3 FE               MOV  [BX-010Dh], AL
1849  E9 8D 00                  JMP  18D9h
184C  3D 02 00                  CMP  AX, 0002h
184F  74 03                     JZ   1854h
1851  E9 1E 00                  JMP  1872h
1854  B8 03 00                  MOV  AX, 0003h
1857  B9 00 00                  MOV  CX, 0000h
185A  BA 0C 00                  MOV  DX, 000Ch
185D  E8 AB 59                  CALL 720Bh
1860  8B 5E FE                  MOV  BX, [BP-02h]
1863  36                        SS:
1864  88 87 F3 FE               MOV  [BX-010Dh], AL
1868  B8 03 00                  MOV  AX, 0003h
186B  50                        PUSH AX
186C  E8 03 F1                  CALL 0972h
186F  E9 67 00                  JMP  18D9h
1872  3D 09 00                  CMP  AX, 0009h
1875  74 03                     JZ   187Ah
1877  E9 17 00                  JMP  1891h
187A  B8 0B 00                  MOV  AX, 000Bh
187D  B9 00 00                  MOV  CX, 0000h
1880  BA 0C 00                  MOV  DX, 000Ch
1883  E8 85 59                  CALL 720Bh
1886  8B 5E FE                  MOV  BX, [BP-02h]
1889  36                        SS:
188A  88 87 F3 FE               MOV  [BX-010Dh], AL
188E  E9 48 00                  JMP  18D9h
1891  3D 08 00                  CMP  AX, 0008h
1894  74 03                     JZ   1899h
1896  E9 17 00                  JMP  18B0h
1899  B8 0C 00                  MOV  AX, 000Ch
189C  B9 00 00                  MOV  CX, 0000h
189F  BA 0C 00                  MOV  DX, 000Ch
18A2  E8 66 59                  CALL 720Bh
18A5  8B 5E FE                  MOV  BX, [BP-02h]
18A8  36                        SS:
18A9  88 87 F3 FE               MOV  [BX-010Dh], AL
18AD  E9 29 00                  JMP  18D9h
18B0  3D 0C 00                  CMP  AX, 000Ch
18B3  74 03                     JZ   18B8h
18B5  E9 06 00                  JMP  18BEh
18B8  E8 ED F8                  CALL 11A8h
18BB  E9 1B 00                  JMP  18D9h
18BE  B8 09 00                  MOV  AX, 0009h
18C1  B9 00 00                  MOV  CX, 0000h
18C4  BA 0C 00                  MOV  DX, 000Ch
18C7  E8 41 59                  CALL 720Bh
18CA  8B 5E FE                  MOV  BX, [BP-02h]
18CD  36                        SS:
18CE  88 87 F3 FE               MOV  [BX-010Dh], AL
18D2  B8 11 00                  MOV  AX, 0011h
18D5  50                        PUSH AX
18D6  E8 99 F0                  CALL 0972h
18D9  E9 00 00                  JMP  18DCh
18DC  8B E5                     MOV  SP, BP
18DE  5D                        POP  BP
18DF  C3                        RET
18E0  55                        PUSH BP
18E1  8B C4                     MOV  AX, SP
18E3  FF 76 FE                  PUSH  [BP-02h]
18E6  8B E8                     MOV  BP, AX
18E8  55                        PUSH BP
18E9  E9 00 00                  JMP  18ECh
18EC  4C                        DEC  SP
18ED  8B 5E FE                  MOV  BX, [BP-02h]
18F0  36                        SS:
18F1  8D BF 35 FB               LEA  DI, [BX-04CBh]
18F5  16                        PUSH SS
18F6  57                        PUSH DI
18F7  81 EC 00 01               SUB  SP, 0100h
18FB  8B 5E FE                  MOV  BX, [BP-02h]
18FE  36                        SS:
18FF  8D BF 39 FD               LEA  DI, [BX-02C7h]
1903  16                        PUSH SS
1904  E8 0D 5B                  CALL 7414h
1907  B1 FF                     MOV  CL, FFh
1909  E8 79 5B                  CALL 7485h
190C  E8 AE ED                  CALL 06BDh
190F  B8 01 00                  MOV  AX, 0001h
1912  50                        PUSH AX
1913  E8 2F 5C                  CALL 7545h
1916  83 EC 07                  SUB  SP, 07h
1919  E8 DA F1                  CALL 0AF6h
191C  E8 26 5C                  CALL 7545h
191F  B8 01 00                  MOV  AX, 0001h
1922  50                        PUSH AX
1923  E8 1F 5C                  CALL 7545h
1926  B1 FF                     MOV  CL, FFh
1928  E8 18 5B                  CALL 7443h
192B  8B 5E FE                  MOV  BX, [BP-02h]
192E  36                        SS:
192F  8D BF FC FE               LEA  DI, [BX-0104h]
1933  16                        PUSH SS
1934  57                        PUSH DI
1935  8B 5E FE                  MOV  BX, [BP-02h]
1938  36                        SS:
1939  8D BF 35 FB               LEA  DI, [BX-04CBh]
193D  16                        PUSH SS
193E  E8 D3 5A                  CALL 7414h
1941  B1 FF                     MOV  CL, FFh
1943  E8 FD 5A                  CALL 7443h
1946  E8 5C EE                  CALL 07A5h
1949  E8 57 EF                  CALL 08A3h
194C  8B 5E FE                  MOV  BX, [BP-02h]
194F  36                        SS:
1950  8D BF 35 FB               LEA  DI, [BX-04CBh]
1954  16                        PUSH SS
1955  E8 BC 5A                  CALL 7414h
1958  E8 6B 5C                  CALL 75C6h
195B  B9 00 00                  MOV  CX, 0000h
195E  BA FF 00                  MOV  DX, 00FFh
1961  E8 A7 58                  CALL 720Bh
1964  88 46 FB                  MOV  [BP-05h], AL
1967  B8 01 00                  MOV  AX, 0001h
196A  50                        PUSH AX
196B  8A 46 FB                  MOV  AL, [BP-05h]
196E  32 E4                     XOR  AH, AH
1970  8A E0                     MOV  AH, AL
1972  B0 01                     MOV  AL, 01h
1974  50                        PUSH AX
1975  E8 53 5D                  CALL 76CBh
1978  E8 CA 5B                  CALL 7545h
197B  8B 5E FE                  MOV  BX, [BP-02h]
197E  36                        SS:
197F  8D BF 35 FB               LEA  DI, [BX-04CBh]
1983  16                        PUSH SS
1984  E8 8D 5A                  CALL 7414h
1987  E8 BB 5B                  CALL 7545h
198A  B1 FF                     MOV  CL, FFh
198C  E8 F6 5A                  CALL 7485h
198F  E8 9E EC                  CALL 0630h
1992  B8 02 00                  MOV  AX, 0002h
1995  50                        PUSH AX
1996  E8 D9 EF                  CALL 0972h
1999  E8 ED F9                  CALL 1389h
199C  8B 5E FE                  MOV  BX, [BP-02h]
199F  36                        SS:
19A0  8A 87 F2 FE               MOV  AL, [BX-010Eh]
19A4  32 E4                     XOR  AH, AH
19A6  3D 02 00                  CMP  AX, 0002h
19A9  74 03                     JZ   19AEh
19AB  E9 1E 00                  JMP  19CCh
19AE  B8 03 00                  MOV  AX, 0003h
19B1  B9 00 00                  MOV  CX, 0000h
19B4  BA 0C 00                  MOV  DX, 000Ch
19B7  E8 51 58                  CALL 720Bh
19BA  8B 5E FE                  MOV  BX, [BP-02h]
19BD  36                        SS:
19BE  88 87 F3 FE               MOV  [BX-010Dh], AL
19C2  B8 03 00                  MOV  AX, 0003h
19C5  50                        PUSH AX
19C6  E8 A9 EF                  CALL 0972h
19C9  E9 83 00                  JMP  1A4Fh
19CC  3D 09 00                  CMP  AX, 0009h
19CF  74 03                     JZ   19D4h
19D1  E9 17 00                  JMP  19EBh
19D4  B8 0B 00                  MOV  AX, 000Bh
19D7  B9 00 00                  MOV  CX, 0000h
19DA  BA 0C 00                  MOV  DX, 000Ch
19DD  E8 2B 58                  CALL 720Bh
19E0  8B 5E FE                  MOV  BX, [BP-02h]
19E3  36                        SS:
19E4  88 87 F3 FE               MOV  [BX-010Dh], AL
19E8  E9 64 00                  JMP  1A4Fh
19EB  3D 08 00                  CMP  AX, 0008h
19EE  74 03                     JZ   19F3h
19F0  E9 17 00                  JMP  1A0Ah
19F3  B8 0C 00                  MOV  AX, 000Ch
19F6  B9 00 00                  MOV  CX, 0000h
19F9  BA 0C 00                  MOV  DX, 000Ch
19FC  E8 0C 58                  CALL 720Bh
19FF  8B 5E FE                  MOV  BX, [BP-02h]
1A02  36                        SS:
1A03  88 87 F3 FE               MOV  [BX-010Dh], AL
1A07  E9 45 00                  JMP  1A4Fh
1A0A  3D 0C 00                  CMP  AX, 000Ch
1A0D  74 03                     JZ   1A12h
1A0F  E9 06 00                  JMP  1A18h
1A12  E8 93 F7                  CALL 11A8h
1A15  E9 37 00                  JMP  1A4Fh
1A18  B8 09 00                  MOV  AX, 0009h
1A1B  B9 00 00                  MOV  CX, 0000h
1A1E  BA 0C 00                  MOV  DX, 000Ch
1A21  E8 E7 57                  CALL 720Bh
1A24  8B 5E FE                  MOV  BX, [BP-02h]
1A27  36                        SS:
1A28  88 87 F3 FE               MOV  [BX-010Dh], AL
1A2C  8B 5E FE                  MOV  BX, [BP-02h]
1A2F  36                        SS:
1A30  8A 87 F2 FE               MOV  AL, [BX-010Eh]
1A34  32 E4                     XOR  AH, AH
1A36  3D 0E 00                  CMP  AX, 000Eh
1A39  74 03                     JZ   1A3Eh
1A3B  E9 0A 00                  JMP  1A48h
1A3E  B8 10 00                  MOV  AX, 0010h
1A41  50                        PUSH AX
1A42  E8 2D EF                  CALL 0972h
1A45  E9 07 00                  JMP  1A4Fh
1A48  B8 11 00                  MOV  AX, 0011h
1A4B  50                        PUSH AX
1A4C  E8 23 EF                  CALL 0972h
1A4F  E9 00 00                  JMP  1A52h
1A52  8B E5                     MOV  SP, BP
1A54  5D                        POP  BP
1A55  C3                        RET
1A56  55                        PUSH BP
1A57  8B C4                     MOV  AX, SP
1A59  FF 76 FE                  PUSH  [BP-02h]
1A5C  8B E8                     MOV  BP, AX
1A5E  55                        PUSH BP
1A5F  E9 00 00                  JMP  1A62h
1A62  81 EC 06 01               SUB  SP, 0106h
1A66  4C                        DEC  SP
1A67  E8 38 EA                  CALL 04A2h
1A6A  75 03                     JNZ  1A6Fh
1A6C  E9 17 00                  JMP  1A86h
1A6F  B8 09 00                  MOV  AX, 0009h
1A72  B9 00 00                  MOV  CX, 0000h
1A75  BA 0C 00                  MOV  DX, 000Ch
1A78  E8 90 57                  CALL 720Bh
1A7B  8B 5E FE                  MOV  BX, [BP-02h]
1A7E  36                        SS:
1A7F  88 87 F3 FE               MOV  [BX-010Dh], AL
1A83  E9 A4 01                  JMP  1C2Ah
1A86  4C                        DEC  SP
1A87  E8 A0 EA                  CALL 052Ah
1A8A  75 03                     JNZ  1A8Fh
1A8C  E9 5B 00                  JMP  1AEAh
1A8F  E8 F7 F8                  CALL 1389h
1A92  8B 5E FE                  MOV  BX, [BP-02h]
1A95  36                        SS:
1A96  8A 87 F2 FE               MOV  AL, [BX-010Eh]
1A9A  32 E4                     XOR  AH, AH
1A9C  3D 09 00                  CMP  AX, 0009h
1A9F  74 03                     JZ   1AA4h
1AA1  E9 1A 00                  JMP  1ABEh
1AA4  B8 0B 00                  MOV  AX, 000Bh
1AA7  B9 00 00                  MOV  CX, 0000h
1AAA  BA 0C 00                  MOV  DX, 000Ch
1AAD  E8 5B 57                  CALL 720Bh
1AB0  8B 5E FE                  MOV  BX, [BP-02h]
1AB3  36                        SS:
1AB4  88 87 F3 FE               MOV  [BX-010Dh], AL
1AB8  E9 6F 01                  JMP  1C2Ah
1ABB  E9 2C 00                  JMP  1AEAh
1ABE  3D 0C 00                  CMP  AX, 000Ch
1AC1  74 03                     JZ   1AC6h
1AC3  E9 06 00                  JMP  1ACCh
1AC6  E8 DF F6                  CALL 11A8h
1AC9  E9 1E 00                  JMP  1AEAh
1ACC  B8 04 00                  MOV  AX, 0004h
1ACF  50                        PUSH AX
1AD0  E8 9F EE                  CALL 0972h
1AD3  B8 09 00                  MOV  AX, 0009h
1AD6  B9 00 00                  MOV  CX, 0000h
1AD9  BA 0C 00                  MOV  DX, 000Ch
1ADC  E8 2C 57                  CALL 720Bh
1ADF  8B 5E FE                  MOV  BX, [BP-02h]
1AE2  36                        SS:
1AE3  88 87 F3 FE               MOV  [BX-010Dh], AL
1AE7  E9 40 01                  JMP  1C2Ah
1AEA  B8 00 00                  MOV  AX, 0000h
1AED  89 46 F8                  MOV  [BP-08h], AX
1AF0  8B 5E FE                  MOV  BX, [BP-02h]
1AF3  36                        SS:
1AF4  8D BF 58 FD               LEA  DI, [BX-02A8h]
1AF8  16                        PUSH SS
1AF9  E8 1C 72                  CALL 8D18h
1AFC  34 01                     XOR  AL, 01h
1AFE  50                        PUSH AX
1AFF  8B 46 F8                  MOV  AX, [BP-08h]
1B02  3D 00 01                  CMP  AX, 0100h
1B05  B8 01 00                  MOV  AX, 0001h
1B08  7C 01                     JL   1B0Bh
1B0A  48                        DEC  AX
1B0B  59                        POP  CX
1B0C  23 C1                     AND  AX, CX
1B0E  0B C0                     OR   AX, AX
1B10  75 03                     JNZ  1B15h
1B12  E9 41 00                  JMP  1B56h
1B15  8B 46 F8                  MOV  AX, [BP-08h]
1B18  05 01 00                  ADD  AX, 0001h
1B1B  89 46 F8                  MOV  [BP-08h], AX
1B1E  8B 5E FE                  MOV  BX, [BP-02h]
1B21  36                        SS:
1B22  8D BF 58 FD               LEA  DI, [BX-02A8h]
1B26  16                        PUSH SS
1B27  E8 3E 71                  CALL 8C68h
1B2A  8D 7E F7                  LEA  DI, [BP-09h]
1B2D  16                        PUSH SS
1B2E  E8 54 71                  CALL 8C85h
1B31  E8 36 57                  CALL 726Ah
1B34  8B 46 F8                  MOV  AX, [BP-08h]
1B37  48                        DEC  AX
1B38  B9 00 01                  MOV  CX, 0100h
1B3B  E8 C3 56                  CALL 7201h
1B3E  97                        XCHG AX, DI
1B3F  57                        PUSH DI
1B40  8A 46 F7                  MOV  AL, [BP-09h]
1B43  32 E4                     XOR  AH, AH
1B45  5F                        POP  DI
1B46  B9 00 00                  MOV  CX, 0000h
1B49  BA FF 00                  MOV  DX, 00FFh
1B4C  E8 BC 56                  CALL 720Bh
1B4F  88 83 F7 FE               MOV  [BP+DI-0109h], AL
1B53  E9 9A FF                  JMP  1AF0h
1B56  8B 46 F8                  MOV  AX, [BP-08h]
1B59  3D 00 00                  CMP  AX, 0000h
1B5C  75 03                     JNZ  1B61h
1B5E  E9 85 00                  JMP  1BE6h
1B61  8B 46 F8                  MOV  AX, [BP-08h]
1B64  3D 00 01                  CMP  AX, 0100h
1B67  74 03                     JZ   1B6Ch
1B69  E9 12 00                  JMP  1B7Eh
1B6C  B8 00 00                  MOV  AX, 0000h
1B6F  B9 00 00                  MOV  CX, 0000h
1B72  BA FF 00                  MOV  DX, 00FFh
1B75  E8 93 56                  CALL 720Bh
1B78  88 46 F7                  MOV  [BP-09h], AL
1B7B  E9 0F 00                  JMP  1B8Dh
1B7E  8B 46 F8                  MOV  AX, [BP-08h]
1B81  B9 00 00                  MOV  CX, 0000h
1B84  BA FF 00                  MOV  DX, 00FFh
1B87  E8 81 56                  CALL 720Bh
1B8A  88 46 F7                  MOV  [BP-09h], AL
1B8D  B8 02 00                  MOV  AX, 0002h
1B90  50                        PUSH AX
1B91  8A 46 F7                  MOV  AL, [BP-09h]
1B94  32 E4                     XOR  AH, AH
1B96  8A E0                     MOV  AH, AL
1B98  B0 01                     MOV  AL, 01h
1B9A  50                        PUSH AX
1B9B  E8 2D 5B                  CALL 76CBh
1B9E  E8 A4 59                  CALL 7545h
1BA1  B1 FF                     MOV  CL, FFh
1BA3  E8 DF 58                  CALL 7485h
1BA6  E8 87 EA                  CALL 0630h
1BA9  B8 01 00                  MOV  AX, 0001h
1BAC  50                        PUSH AX
1BAD  8B 46 F8                  MOV  AX, [BP-08h]
1BB0  59                        POP  CX
1BB1  91                        XCHG AX, CX
1BB2  2B C8                     SUB  CX, AX
1BB4  7D 03                     JGE  1BB9h
1BB6  E9 2D 00                  JMP  1BE6h
1BB9  41                        INC  CX
1BBA  89 46 FA                  MOV  [BP-06h], AX
1BBD  51                        PUSH CX
1BBE  8B 46 FA                  MOV  AX, [BP-06h]
1BC1  48                        DEC  AX
1BC2  B9 00 01                  MOV  CX, 0100h
1BC5  E8 39 56                  CALL 7201h
1BC8  97                        XCHG AX, DI
1BC9  8A 83 F7 FE               MOV  AL, [BP+DI-0109h]
1BCD  32 E4                     XOR  AH, AH
1BCF  B9 00 00                  MOV  CX, 0000h
1BD2  BA FF 00                  MOV  DX, 00FFh
1BD5  E8 33 56                  CALL 720Bh
1BD8  50                        PUSH AX
1BD9  E8 00 EA                  CALL 05DCh
1BDC  59                        POP  CX
1BDD  49                        DEC  CX
1BDE  74 06                     JZ   1BE6h
1BE0  FF 46 FA                  INC  [BP-06h]
1BE3  E9 D7 FF                  JMP  1BBDh
1BE6  8B 46 F8                  MOV  AX, [BP-08h]
1BE9  3D 00 01                  CMP  AX, 0100h
1BEC  7C 03                     JL   1BF1h
1BEE  E9 14 00                  JMP  1C05h
1BF1  B8 04 00                  MOV  AX, 0004h
1BF4  B9 00 00                  MOV  CX, 0000h
1BF7  BA 0C 00                  MOV  DX, 000Ch
1BFA  E8 0E 56                  CALL 720Bh
1BFD  8B 5E FE                  MOV  BX, [BP-02h]
1C00  36                        SS:
1C01  88 87 F3 FE               MOV  [BX-010Dh], AL
1C05  8B 5E FE                  MOV  BX, [BP-02h]
1C08  36                        SS:
1C09  8D BF F6 FE               LEA  DI, [BX-010Ah]
1C0D  16                        PUSH SS
1C0E  57                        PUSH DI
1C0F  8B 5E FE                  MOV  BX, [BP-02h]
1C12  36                        SS:
1C13  8D BF F6 FE               LEA  DI, [BX-010Ah]
1C17  16                        PUSH SS
1C18  E8 A0 5F                  CALL 7BBBh
1C1B  8B 46 F8                  MOV  AX, [BP-08h]
1C1E  E8 56 61                  CALL 7D77h
1C21  E8 CA 5F                  CALL 7BEEh
1C24  E8 B4 5F                  CALL 7BDBh
1C27  E8 79 EC                  CALL 08A3h
1C2A  E9 00 00                  JMP  1C2Dh
1C2D  8B E5                     MOV  SP, BP
1C2F  5D                        POP  BP
1C30  C3                        RET
1C31  55                        PUSH BP
1C32  8B C4                     MOV  AX, SP
1C34  FF 76 FE                  PUSH  [BP-02h]
1C37  8B E8                     MOV  BP, AX
1C39  55                        PUSH BP
1C3A  E9 00 00                  JMP  1C3Dh
1C3D  B8 03 00                  MOV  AX, 0003h
1C40  50                        PUSH AX
1C41  B8 01 01                  MOV  AX, 0101h
1C44  50                        PUSH AX
1C45  E8 83 5A                  CALL 76CBh
1C48  E8 FA 58                  CALL 7545h
1C4B  B1 FF                     MOV  CL, FFh
1C4D  E8 35 58                  CALL 7485h
1C50  E8 DD E9                  CALL 0630h
1C53  B8 05 00                  MOV  AX, 0005h
1C56  50                        PUSH AX
1C57  E8 18 ED                  CALL 0972h
1C5A  E8 2C F7                  CALL 1389h
1C5D  8B 5E FE                  MOV  BX, [BP-02h]
1C60  36                        SS:
1C61  8A 87 F2 FE               MOV  AL, [BX-010Eh]
1C65  32 E4                     XOR  AH, AH
1C67  3D 0F 00                  CMP  AX, 000Fh
1C6A  74 03                     JZ   1C6Fh
1C6C  E9 17 00                  JMP  1C86h
1C6F  B8 05 00                  MOV  AX, 0005h
1C72  B9 00 00                  MOV  CX, 0000h
1C75  BA 0C 00                  MOV  DX, 000Ch
1C78  E8 90 55                  CALL 720Bh
1C7B  8B 5E FE                  MOV  BX, [BP-02h]
1C7E  36                        SS:
1C7F  88 87 F3 FE               MOV  [BX-010Dh], AL
1C83  E9 45 00                  JMP  1CCBh
1C86  3D 0C 00                  CMP  AX, 000Ch
1C89  74 03                     JZ   1C8Eh
1C8B  E9 06 00                  JMP  1C94h
1C8E  E8 17 F5                  CALL 11A8h
1C91  E9 37 00                  JMP  1CCBh
1C94  B8 09 00                  MOV  AX, 0009h
1C97  B9 00 00                  MOV  CX, 0000h
1C9A  BA 0C 00                  MOV  DX, 000Ch
1C9D  E8 6B 55                  CALL 720Bh
1CA0  8B 5E FE                  MOV  BX, [BP-02h]
1CA3  36                        SS:
1CA4  88 87 F3 FE               MOV  [BX-010Dh], AL
1CA8  8B 5E FE                  MOV  BX, [BP-02h]
1CAB  36                        SS:
1CAC  8A 87 F2 FE               MOV  AL, [BX-010Eh]
1CB0  32 E4                     XOR  AH, AH
1CB2  3D 0E 00                  CMP  AX, 000Eh
1CB5  74 03                     JZ   1CBAh
1CB7  E9 0A 00                  JMP  1CC4h
1CBA  B8 10 00                  MOV  AX, 0010h
1CBD  50                        PUSH AX
1CBE  E8 B1 EC                  CALL 0972h
1CC1  E9 07 00                  JMP  1CCBh
1CC4  B8 11 00                  MOV  AX, 0011h
1CC7  50                        PUSH AX
1CC8  E8 A7 EC                  CALL 0972h
1CCB  E9 00 00                  JMP  1CCEh
1CCE  8B E5                     MOV  SP, BP
1CD0  5D                        POP  BP
1CD1  C3                        RET
1CD2  55                        PUSH BP
1CD3  8B C4                     MOV  AX, SP
1CD5  FF 76 FE                  PUSH  [BP-02h]
1CD8  8B E8                     MOV  BP, AX
1CDA  55                        PUSH BP
1CDB  E9 00 00                  JMP  1CDEh
1CDE  B8 04 00                  MOV  AX, 0004h
1CE1  50                        PUSH AX
1CE2  B8 01 01                  MOV  AX, 0101h
1CE5  50                        PUSH AX
1CE6  E8 E2 59                  CALL 76CBh
1CE9  E8 59 58                  CALL 7545h
1CEC  B1 FF                     MOV  CL, FFh
1CEE  E8 94 57                  CALL 7485h
1CF1  E8 3C E9                  CALL 0630h
1CF4  B8 06 00                  MOV  AX, 0006h
1CF7  50                        PUSH AX
1CF8  E8 77 EC                  CALL 0972h
1CFB  E8 8B F6                  CALL 1389h
1CFE  8B 5E FE                  MOV  BX, [BP-02h]
1D01  36                        SS:
1D02  8A 87 F2 FE               MOV  AL, [BX-010Eh]
1D06  32 E4                     XOR  AH, AH
1D08  3D 10 00                  CMP  AX, 0010h
1D0B  74 03                     JZ   1D10h
1D0D  E9 17 00                  JMP  1D27h
1D10  B8 0C 00                  MOV  AX, 000Ch
1D13  B9 00 00                  MOV  CX, 0000h
1D16  BA 0C 00                  MOV  DX, 000Ch
1D19  E8 EF 54                  CALL 720Bh
1D1C  8B 5E FE                  MOV  BX, [BP-02h]
1D1F  36                        SS:
1D20  88 87 F3 FE               MOV  [BX-010Dh], AL
1D24  E9 22 00                  JMP  1D49h
1D27  3D 0C 00                  CMP  AX, 000Ch
1D2A  74 03                     JZ   1D2Fh
1D2C  E9 06 00                  JMP  1D35h
1D2F  E8 76 F4                  CALL 11A8h
1D32  E9 14 00                  JMP  1D49h
1D35  B8 0C 00                  MOV  AX, 000Ch
1D38  B9 00 00                  MOV  CX, 0000h
1D3B  BA 0C 00                  MOV  DX, 000Ch
1D3E  E8 CA 54                  CALL 720Bh
1D41  8B 5E FE                  MOV  BX, [BP-02h]
1D44  36                        SS:
1D45  88 87 F3 FE               MOV  [BX-010Dh], AL
1D49  E9 00 00                  JMP  1D4Ch
1D4C  8B E5                     MOV  SP, BP
1D4E  5D                        POP  BP
1D4F  C3                        RET
1D50  55                        PUSH BP
1D51  8B C4                     MOV  AX, SP
1D53  FF 76 FE                  PUSH  [BP-02h]
1D56  8B E8                     MOV  BP, AX
1D58  55                        PUSH BP
1D59  E9 00 00                  JMP  1D5Ch
1D5C  B8 07 00                  MOV  AX, 0007h
1D5F  50                        PUSH AX
1D60  E8 0F EC                  CALL 0972h
1D63  E8 23 F6                  CALL 1389h
1D66  8B 5E FE                  MOV  BX, [BP-02h]
1D69  36                        SS:
1D6A  8A 87 F2 FE               MOV  AL, [BX-010Eh]
1D6E  32 E4                     XOR  AH, AH
1D70  3D 03 00                  CMP  AX, 0003h
1D73  74 03                     JZ   1D78h
1D75  E9 34 00                  JMP  1DACh
1D78  B8 06 00                  MOV  AX, 0006h
1D7B  50                        PUSH AX
1D7C  B8 01 01                  MOV  AX, 0101h
1D7F  50                        PUSH AX
1D80  E8 48 59                  CALL 76CBh
1D83  E8 BF 57                  CALL 7545h
1D86  B1 FF                     MOV  CL, FFh
1D88  E8 FA 56                  CALL 7485h
1D8B  E8 A2 E8                  CALL 0630h
1D8E  B8 08 00                  MOV  AX, 0008h
1D91  50                        PUSH AX
1D92  E8 DD EB                  CALL 0972h
1D95  B8 07 00                  MOV  AX, 0007h
1D98  B9 00 00                  MOV  CX, 0000h
1D9B  BA 0C 00                  MOV  DX, 000Ch
1D9E  E8 6A 54                  CALL 720Bh
1DA1  8B 5E FE                  MOV  BX, [BP-02h]
1DA4  36                        SS:
1DA5  88 87 F3 FE               MOV  [BX-010Dh], AL
1DA9  E9 64 00                  JMP  1E10h
1DAC  3D 09 00                  CMP  AX, 0009h
1DAF  74 03                     JZ   1DB4h
1DB1  E9 17 00                  JMP  1DCBh
1DB4  B8 0B 00                  MOV  AX, 000Bh
1DB7  B9 00 00                  MOV  CX, 0000h
1DBA  BA 0C 00                  MOV  DX, 000Ch
1DBD  E8 4B 54                  CALL 720Bh
1DC0  8B 5E FE                  MOV  BX, [BP-02h]
1DC3  36                        SS:
1DC4  88 87 F3 FE               MOV  [BX-010Dh], AL
1DC8  E9 45 00                  JMP  1E10h
1DCB  3D 0C 00                  CMP  AX, 000Ch
1DCE  74 03                     JZ   1DD3h
1DD0  E9 06 00                  JMP  1DD9h
1DD3  E8 D2 F3                  CALL 11A8h
1DD6  E9 37 00                  JMP  1E10h
1DD9  B8 09 00                  MOV  AX, 0009h
1DDC  B9 00 00                  MOV  CX, 0000h
1DDF  BA 0C 00                  MOV  DX, 000Ch
1DE2  E8 26 54                  CALL 720Bh
1DE5  8B 5E FE                  MOV  BX, [BP-02h]
1DE8  36                        SS:
1DE9  88 87 F3 FE               MOV  [BX-010Dh], AL
1DED  8B 5E FE                  MOV  BX, [BP-02h]
1DF0  36                        SS:
1DF1  8A 87 F2 FE               MOV  AL, [BX-010Eh]
1DF5  32 E4                     XOR  AH, AH
1DF7  3D 0E 00                  CMP  AX, 000Eh
1DFA  74 03                     JZ   1DFFh
1DFC  E9 0A 00                  JMP  1E09h
1DFF  B8 10 00                  MOV  AX, 0010h
1E02  50                        PUSH AX
1E03  E8 6C EB                  CALL 0972h
1E06  E9 07 00                  JMP  1E10h
1E09  B8 11 00                  MOV  AX, 0011h
1E0C  50                        PUSH AX
1E0D  E8 62 EB                  CALL 0972h
1E10  E9 00 00                  JMP  1E13h
1E13  8B E5                     MOV  SP, BP
1E15  5D                        POP  BP
1E16  C3                        RET
1E17  55                        PUSH BP
1E18  8B C4                     MOV  AX, SP
1E1A  FF 76 FE                  PUSH  [BP-02h]
1E1D  8B E8                     MOV  BP, AX
1E1F  55                        PUSH BP
1E20  E9 00 00                  JMP  1E23h
1E23  81 EC 02 01               SUB  SP, 0102h
1E27  8D BE FA FE               LEA  DI, [BP-0106h]
1E2B  16                        PUSH SS
1E2C  57                        PUSH DI
1E2D  E8 FD 55                  CALL 742Dh
1E30  00 B1 FF E8               ADD  [BX+DI-1701h], DH
1E34  0D 56 E8                  OR   AX, E856h
1E37  50                        PUSH AX
1E38  F5                        CMC
1E39  8B 5E FE                  MOV  BX, [BP-02h]
1E3C  36                        SS:
1E3D  8A 87 F2 FE               MOV  AL, [BX-010Eh]
1E41  32 E4                     XOR  AH, AH
1E43  3D 04 00                  CMP  AX, 0004h
1E46  74 03                     JZ   1E4Bh
1E48  E9 05 01                  JMP  1F50h
1E4B  B8 0C 00                  MOV  AX, 000Ch
1E4E  50                        PUSH AX
1E4F  E8 AC EB                  CALL 09FEh
1E52  B8 01 00                  MOV  AX, 0001h
1E55  50                        PUSH AX
1E56  8B 5E FE                  MOV  BX, [BP-02h]
1E59  36                        SS:
1E5A  8B 87 F0 FD               MOV  AX, [BX-0210h]
1E5E  59                        POP  CX
1E5F  91                        XCHG AX, CX
1E60  2B C8                     SUB  CX, AX
1E62  7D 03                     JGE  1E67h
1E64  E9 3F 00                  JMP  1EA6h
1E67  41                        INC  CX
1E68  89 46 FA                  MOV  [BP-06h], AX
1E6B  51                        PUSH CX
1E6C  8D BE FA FE               LEA  DI, [BP-0106h]
1E70  16                        PUSH SS
1E71  57                        PUSH DI
1E72  8D BE FA FE               LEA  DI, [BP-0106h]
1E76  16                        PUSH SS
1E77  E8 9A 55                  CALL 7414h
1E7A  8B 46 FA                  MOV  AX, [BP-06h]
1E7D  48                        DEC  AX
1E7E  B9 00 01                  MOV  CX, 0100h
1E81  E8 7D 53                  CALL 7201h
1E84  97                        XCHG AX, DI
1E85  8B 5E FE                  MOV  BX, [BP-02h]
1E88  36                        SS:
1E89  8A 81 F2 FD               MOV  AL, [BX+DI-020Eh]
1E8D  32 E4                     XOR  AH, AH
1E8F  8A E0                     MOV  AH, AL
1E91  B0 01                     MOV  AL, 01h
1E93  50                        PUSH AX
1E94  E8 AE 56                  CALL 7545h
1E97  B1 FF                     MOV  CL, FFh
1E99  E8 A7 55                  CALL 7443h
1E9F  06                        PUSH ES
1EA0  FF 46 FA                  INC  [BP-06h]
1EA3  E9 C5 FF                  JMP  1E6Bh
1EA6  8B 5E FE                  MOV  BX, [BP-02h]
1EA9  36                        SS:
1EAA  8D BF FC FE               LEA  DI, [BX-0104h]
1EAE  16                        PUSH SS
1EAF  57                        PUSH DI
1EB0  8D BE FA FE               LEA  DI, [BP-0106h]
1EB4  16                        PUSH SS
1EB5  E8 5C 55                  CALL 7414h
1EB8  B1 FF                     MOV  CL, FFh
1EBA  E8 86 55                  CALL 7443h
1EBD  E8 E5 E8                  CALL 07A5h
1EC0  E8 E0 E9                  CALL 08A3h
1EC3  81 EC 00 01               SUB  SP, 0100h
1EC7  8B 5E FE                  MOV  BX, [BP-02h]
1ECA  36                        SS:
1ECB  8D BF E4 FA               LEA  DI, [BX-051Ch]
1ECF  16                        PUSH SS
1ED0  E8 41 55                  CALL 7414h
1ED3  B1 FF                     MOV  CL, FFh
1ED5  E8 AD 55                  CALL 7485h
1ED8  E8 E2 E7                  CALL 06BDh
1EDB  B1 FF                     MOV  CL, FFh
1EDD  E8 A5 55                  CALL 7485h
1EE0  E8 E6 EC                  CALL 0BC9h
1EE3  8B 5E FE                  MOV  BX, [BP-02h]
1EE6  36                        SS:
1EE7  8A 87 F3 FE               MOV  AL, [BX-010Dh]
1EEB  32 E4                     XOR  AH, AH
1EED  3D 09 00                  CMP  AX, 0009h
1EF0  75 03                     JNZ  1EF5h
1EF2  E9 58 00                  JMP  1F4Dh
1EF5  4C                        DEC  SP
1EF6  E8 C2 F0                  CALL 0FBBh
1EF9  75 03                     JNZ  1EFEh
1EFB  E9 1E 00                  JMP  1F1Ch
1EFE  B8 09 00                  MOV  AX, 0009h
1F01  B9 00 00                  MOV  CX, 0000h
1F04  BA 0C 00                  MOV  DX, 000Ch
1F07  E8 01 53                  CALL 720Bh
1F0A  8B 5E FE                  MOV  BX, [BP-02h]
1F0D  36                        SS:
1F0E  88 87 F3 FE               MOV  [BX-010Dh], AL
1F12  B8 13 00                  MOV  AX, 0013h
1F15  50                        PUSH AX
1F16  E8 59 EA                  CALL 0972h
1F19  E9 31 00                  JMP  1F4Dh
1F1C  B8 06 00                  MOV  AX, 0006h
1F1F  50                        PUSH AX
1F20  B8 01 02                  MOV  AX, 0201h
1F23  50                        PUSH AX
1F24  E8 A4 57                  CALL 76CBh
1F27  E8 1B 56                  CALL 7545h
1F2A  B1 FF                     MOV  CL, FFh
1F2C  E8 56 55                  CALL 7485h
1F2F  E8 FE E6                  CALL 0630h
1F32  B8 08 00                  MOV  AX, 0008h
1F35  B9 00 00                  MOV  CX, 0000h
1F38  BA 0C 00                  MOV  DX, 000Ch
1F3B  E8 CD 52                  CALL 720Bh
1F3E  8B 5E FE                  MOV  BX, [BP-02h]
1F41  36                        SS:
1F42  88 87 F3 FE               MOV  [BX-010Dh], AL
1F46  B8 09 00                  MOV  AX, 0009h
1F49  50                        PUSH AX
1F4A  E8 25 EA                  CALL 0972h
1F4D  E9 B8 00                  JMP  2008h
1F50  3D 03 00                  CMP  AX, 0003h
1F53  74 03                     JZ   1F58h
1F55  E9 17 00                  JMP  1F6Fh
1F58  B8 07 00                  MOV  AX, 0007h
1F5B  B9 00 00                  MOV  CX, 0000h
1F5E  BA 0C 00                  MOV  DX, 000Ch
1F61  E8 A7 52                  CALL 720Bh
1F64  8B 5E FE                  MOV  BX, [BP-02h]
1F67  36                        SS:
1F68  88 87 F3 FE               MOV  [BX-010Dh], AL
1F6C  E9 99 00                  JMP  2008h
1F6F  3D 09 00                  CMP  AX, 0009h
1F72  74 03                     JZ   1F77h
1F74  E9 17 00                  JMP  1F8Eh
1F77  B8 0B 00                  MOV  AX, 000Bh
1F7A  B9 00 00                  MOV  CX, 0000h
1F7D  BA 0C 00                  MOV  DX, 000Ch
1F80  E8 88 52                  CALL 720Bh
1F83  8B 5E FE                  MOV  BX, [BP-02h]
1F86  36                        SS:
1F87  88 87 F3 FE               MOV  [BX-010Dh], AL
1F8B  E9 7A 00                  JMP  2008h
1F8E  3D 07 00                  CMP  AX, 0007h
1F91  74 03                     JZ   1F96h
1F93  E9 2D 00                  JMP  1FC3h
1F96  B8 06 00                  MOV  AX, 0006h
1F99  50                        PUSH AX
1F9A  B8 01 04                  MOV  AX, 0401h
1F9D  50                        PUSH AX
1F9E  E8 2A 57                  CALL 76CBh
1FA1  E8 A1 55                  CALL 7545h
1FA4  B1 FF                     MOV  CL, FFh
1FA6  E8 DC 54                  CALL 7485h
1FA9  E8 84 E6                  CALL 0630h
1FAC  B8 0C 00                  MOV  AX, 000Ch
1FAF  B9 00 00                  MOV  CX, 0000h
1FB2  BA 0C 00                  MOV  DX, 000Ch
1FB5  E8 53 52                  CALL 720Bh
1FB8  8B 5E FE                  MOV  BX, [BP-02h]
1FBB  36                        SS:
1FBC  88 87 F3 FE               MOV  [BX-010Dh], AL
1FC0  E9 45 00                  JMP  2008h
1FC3  3D 0C 00                  CMP  AX, 000Ch
1FC6  74 03                     JZ   1FCBh
1FC8  E9 06 00                  JMP  1FD1h
1FCB  E8 DA F1                  CALL 11A8h
1FCE  E9 37 00                  JMP  2008h
1FD1  B8 09 00                  MOV  AX, 0009h
1FD4  B9 00 00                  MOV  CX, 0000h
1FD7  BA 0C 00                  MOV  DX, 000Ch
1FDA  E8 2E 52                  CALL 720Bh
1FDD  8B 5E FE                  MOV  BX, [BP-02h]
1FE0  36                        SS:
1FE1  88 87 F3 FE               MOV  [BX-010Dh], AL
1FE5  8B 5E FE                  MOV  BX, [BP-02h]
1FE8  36                        SS:
1FE9  8A 87 F2 FE               MOV  AL, [BX-010Eh]
1FED  32 E4                     XOR  AH, AH
1FEF  3D 0E 00                  CMP  AX, 000Eh
1FF2  74 03                     JZ   1FF7h
1FF4  E9 0A 00                  JMP  2001h
1FF7  B8 10 00                  MOV  AX, 0010h
1FFA  50                        PUSH AX
1FFB  E8 74 E9                  CALL 0972h
1FFE  E9 07 00                  JMP  2008h
2001  B8 11 00                  MOV  AX, 0011h
2004  50                        PUSH AX
2005  E8 6A E9                  CALL 0972h
2008  E9 00 00                  JMP  200Bh
200B  8B E5                     MOV  SP, BP
200D  5D                        POP  BP
200E  C3                        RET
200F  55                        PUSH BP
2010  8B C4                     MOV  AX, SP
2012  FF 76 FE                  PUSH  [BP-02h]
2015  8B E8                     MOV  BP, AX
2017  55                        PUSH BP
2018  E9 00 00                  JMP  201Bh
201B  83 EC 03                  SUB  SP, 03h
201E  E8 68 F3                  CALL 1389h
2021  8B 5E FE                  MOV  BX, [BP-02h]
2024  36                        SS:
2025  8A 87 F2 FE               MOV  AL, [BX-010Eh]
2029  32 E4                     XOR  AH, AH
202B  3D 05 00                  CMP  AX, 0005h
202E  74 03                     JZ   2033h
2030  E9 9C 00                  JMP  20CFh
2033  B8 01 00                  MOV  AX, 0001h
2036  50                        PUSH AX
2037  8B 5E FE                  MOV  BX, [BP-02h]
203A  36                        SS:
203B  8B 87 F0 FD               MOV  AX, [BX-0210h]
203F  59                        POP  CX
2040  91                        XCHG AX, CX
2041  2B C8                     SUB  CX, AX
2043  7D 03                     JGE  2048h
2045  E9 46 00                  JMP  208Eh
2048  41                        INC  CX
2049  89 46 FA                  MOV  [BP-06h], AX
204C  51                        PUSH CX
204D  8B 46 FA                  MOV  AX, [BP-06h]
2050  48                        DEC  AX
2051  B9 00 01                  MOV  CX, 0100h
2054  E8 AA 51                  CALL 7201h
2057  97                        XCHG AX, DI
2058  8B 5E FE                  MOV  BX, [BP-02h]
205B  36                        SS:
205C  8A 81 F2 FD               MOV  AL, [BX+DI-020Eh]
2060  32 E4                     XOR  AH, AH
2062  B9 00 00                  MOV  CX, 0000h
2065  BA FF 00                  MOV  DX, 00FFh
2068  E8 A0 51                  CALL 720Bh
206B  88 46 F9                  MOV  [BP-07h], AL
206E  8B 5E FE                  MOV  BX, [BP-02h]
2071  36                        SS:
2072  8D BF A4 FD               LEA  DI, [BX-025Ch]
2076  16                        PUSH SS
2077  E8 EE 6B                  CALL 8C68h
207A  8D 7E F9                  LEA  DI, [BP-07h]
207D  16                        PUSH SS
207E  E8 0C 6C                  CALL 8C8Dh
2081  E8 E6 51                  CALL 726Ah
2087  06                        PUSH ES
2088  FF 46 FA                  INC  [BP-06h]
208B  E9 BE FF                  JMP  204Ch
208E  8B 5E FE                  MOV  BX, [BP-02h]
2091  36                        SS:
2092  8D BF F6 FE               LEA  DI, [BX-010Ah]
2096  16                        PUSH SS
2097  57                        PUSH DI
2098  8B 5E FE                  MOV  BX, [BP-02h]
209B  36                        SS:
209C  8D BF F6 FE               LEA  DI, [BX-010Ah]
20A0  16                        PUSH SS
20A1  E8 17 5B                  CALL 7BBBh
20A4  8B 5E FE                  MOV  BX, [BP-02h]
20A7  36                        SS:
20A8  8B 87 F0 FD               MOV  AX, [BX-0210h]
20AC  E8 C8 5C                  CALL 7D77h
20AF  E8 3C 5B                  CALL 7BEEh
20B2  E8 26 5B                  CALL 7BDBh
20B5  E8 EB E7                  CALL 08A3h
20B8  B8 08 00                  MOV  AX, 0008h
20BB  B9 00 00                  MOV  CX, 0000h
20BE  BA 0C 00                  MOV  DX, 000Ch
20C1  E8 47 51                  CALL 720Bh
20C4  8B 5E FE                  MOV  BX, [BP-02h]
20C7  36                        SS:
20C8  88 87 F3 FE               MOV  [BX-010Dh], AL
20CC  E9 CA 00                  JMP  2199h
20CF  3D 06 00                  CMP  AX, 0006h
20D2  74 03                     JZ   20D7h
20D4  E9 5E 00                  JMP  2135h
20D7  8B 5E FE                  MOV  BX, [BP-02h]
20DA  36                        SS:
20DB  8D BF A4 FD               LEA  DI, [BX-025Ch]
20DF  16                        PUSH SS
20E0  E8 73 6B                  CALL 8C56h
20E3  E8 84 51                  CALL 726Ah
20E6  B8 01 00                  MOV  AX, 0001h
20E9  B9 00 00                  MOV  CX, 0000h
20EC  BA 01 00                  MOV  DX, 0001h
20EF  E8 19 51                  CALL 720Bh
20F2  8B 5E FE                  MOV  BX, [BP-02h]
20F5  36                        SS:
20F6  88 87 F4 FE               MOV  [BX-010Ch], AL
20FA  B8 06 00                  MOV  AX, 0006h
20FD  50                        PUSH AX
20FE  B8 01 03                  MOV  AX, 0301h
2101  50                        PUSH AX
2102  E8 C6 55                  CALL 76CBh
2105  E8 3D 54                  CALL 7545h
2108  B1 FF                     MOV  CL, FFh
210A  E8 78 53                  CALL 7485h
210D  E8 20 E5                  CALL 0630h
2110  B8 0A 00                  MOV  AX, 000Ah
2113  50                        PUSH AX
2114  E8 5B E8                  CALL 0972h
2117  B8 0B 00                  MOV  AX, 000Bh
211A  50                        PUSH AX
211B  E8 E0 E8                  CALL 09FEh
211E  B8 07 00                  MOV  AX, 0007h
2121  B9 00 00                  MOV  CX, 0000h
2124  BA 0C 00                  MOV  DX, 000Ch
2127  E8 E1 50                  CALL 720Bh
212A  8B 5E FE                  MOV  BX, [BP-02h]
212D  36                        SS:
212E  88 87 F3 FE               MOV  [BX-010Dh], AL
2132  E9 64 00                  JMP  2199h
2135  3D 09 00                  CMP  AX, 0009h
2138  74 03                     JZ   213Dh
213A  E9 17 00                  JMP  2154h
213D  B8 0B 00                  MOV  AX, 000Bh
2140  B9 00 00                  MOV  CX, 0000h
2143  BA 0C 00                  MOV  DX, 000Ch
2146  E8 C2 50                  CALL 720Bh
2149  8B 5E FE                  MOV  BX, [BP-02h]
214C  36                        SS:
214D  88 87 F3 FE               MOV  [BX-010Dh], AL
2151  E9 45 00                  JMP  2199h
2154  3D 0C 00                  CMP  AX, 000Ch
2157  74 03                     JZ   215Ch
2159  E9 06 00                  JMP  2162h
215C  E8 49 F0                  CALL 11A8h
215F  E9 37 00                  JMP  2199h
2162  B8 09 00                  MOV  AX, 0009h
2165  B9 00 00                  MOV  CX, 0000h
2168  BA 0C 00                  MOV  DX, 000Ch
216B  E8 9D 50                  CALL 720Bh
216E  8B 5E FE                  MOV  BX, [BP-02h]
2171  36                        SS:
2172  88 87 F3 FE               MOV  [BX-010Dh], AL
2176  8B 5E FE                  MOV  BX, [BP-02h]
2179  36                        SS:
217A  8A 87 F2 FE               MOV  AL, [BX-010Eh]
217E  32 E4                     XOR  AH, AH
2180  3D 0E 00                  CMP  AX, 000Eh
2183  74 03                     JZ   2188h
2185  E9 0A 00                  JMP  2192h
2188  B8 10 00                  MOV  AX, 0010h
218B  50                        PUSH AX
218C  E8 E3 E7                  CALL 0972h
218F  E9 07 00                  JMP  2199h
2192  B8 11 00                  MOV  AX, 0011h
2195  50                        PUSH AX
2196  E8 D9 E7                  CALL 0972h
2199  E9 00 00                  JMP  219Ch
219C  8B E5                     MOV  SP, BP
219E  5D                        POP  BP
219F  C3                        RET
21A0  55                        PUSH BP
21A1  8B C4                     MOV  AX, SP
21A3  FF 76 FE                  PUSH  [BP-02h]
21A6  8B E8                     MOV  BP, AX
21A8  55                        PUSH BP
21A9  E9 00 00                  JMP  21ACh
21AC  4C                        DEC  SP
21AD  E8 AA EF                  CALL 115Ah
21B0  75 03                     JNZ  21B5h
21B2  E9 1E 00                  JMP  21D3h
21B5  B8 12 00                  MOV  AX, 0012h
21B8  50                        PUSH AX
21B9  E8 B6 E7                  CALL 0972h
21BC  B8 0C 00                  MOV  AX, 000Ch
21BF  B9 00 00                  MOV  CX, 0000h
21C2  BA 0C 00                  MOV  DX, 000Ch
21C5  E8 43 50                  CALL 720Bh
21C8  8B 5E FE                  MOV  BX, [BP-02h]
21CB  36                        SS:
21CC  88 87 F3 FE               MOV  [BX-010Dh], AL
21D0  E9 2A 00                  JMP  21FDh
21D3  B8 18 00                  MOV  AX, 0018h
21D6  50                        PUSH AX
21D7  B8 01 00                  MOV  AX, 0001h
21DA  50                        PUSH AX
21DB  E8 ED 54                  CALL 76CBh
21DE  E8 64 53                  CALL 7545h
21E1  B1 FF                     MOV  CL, FFh
21E3  E8 9F 52                  CALL 7485h
21E6  E8 47 E4                  CALL 0630h
21E9  B8 0A 00                  MOV  AX, 000Ah
21EC  B9 00 00                  MOV  CX, 0000h
21EF  BA 0C 00                  MOV  DX, 000Ch
21F2  E8 16 50                  CALL 720Bh
21F5  8B 5E FE                  MOV  BX, [BP-02h]
21F8  36                        SS:
21F9  88 87 F3 FE               MOV  [BX-010Dh], AL
21FD  E9 00 00                  JMP  2200h
2200  8B E5                     MOV  SP, BP
2202  5D                        POP  BP
2203  C3                        RET
2204  55                        PUSH BP
2205  8B C4                     MOV  AX, SP
2207  FF 76 FE                  PUSH  [BP-02h]
220A  8B E8                     MOV  BP, AX
220C  55                        PUSH BP
220D  E9 00 00                  JMP  2210h
2210  B8 0E 00                  MOV  AX, 000Eh
2213  50                        PUSH AX
2214  E8 E7 E7                  CALL 09FEh
2217  E8 6F F1                  CALL 1389h
221A  8B 5E FE                  MOV  BX, [BP-02h]
221D  36                        SS:
221E  8A 87 F2 FE               MOV  AL, [BX-010Eh]
2222  32 E4                     XOR  AH, AH
2224  3D 0A 00                  CMP  AX, 000Ah
2227  74 03                     JZ   222Ch
2229  E9 17 00                  JMP  2243h
222C  B8 0C 00                  MOV  AX, 000Ch
222F  B9 00 00                  MOV  CX, 0000h
2232  BA 0C 00                  MOV  DX, 000Ch
2235  E8 D3 4F                  CALL 720Bh
2238  8B 5E FE                  MOV  BX, [BP-02h]
223B  36                        SS:
223C  88 87 F3 FE               MOV  [BX-010Dh], AL
2240  E9 6D 00                  JMP  22B0h
2243  3D 09 00                  CMP  AX, 0009h
2246  74 03                     JZ   224Bh
2248  E9 19 00                  JMP  2264h
224B  B8 06 00                  MOV  AX, 0006h
224E  50                        PUSH AX
224F  B8 01 05                  MOV  AX, 0501h
2252  50                        PUSH AX
2253  E8 75 54                  CALL 76CBh
2256  E8 EC 52                  CALL 7545h
2259  B1 FF                     MOV  CL, FFh
225B  E8 27 52                  CALL 7485h
225E  E8 CF E3                  CALL 0630h
2261  E9 4C 00                  JMP  22B0h
2264  3D 0E 00                  CMP  AX, 000Eh
2267  74 03                     JZ   226Ch
2269  E9 17 00                  JMP  2283h
226C  B8 0C 00                  MOV  AX, 000Ch
226F  B9 00 00                  MOV  CX, 0000h
2272  BA 0C 00                  MOV  DX, 000Ch
2275  E8 93 4F                  CALL 720Bh
2278  8B 5E FE                  MOV  BX, [BP-02h]
227B  36                        SS:
227C  88 87 F3 FE               MOV  [BX-010Dh], AL
2280  E9 2D 00                  JMP  22B0h
2283  3D 00 00                  CMP  AX, 0000h
2286  74 03                     JZ   228Bh
2288  E9 17 00                  JMP  22A2h
228B  B8 0C 00                  MOV  AX, 000Ch
228E  B9 00 00                  MOV  CX, 0000h
2291  BA 0C 00                  MOV  DX, 000Ch
2294  E8 74 4F                  CALL 720Bh
2297  8B 5E FE                  MOV  BX, [BP-02h]
229A  36                        SS:
229B  88 87 F3 FE               MOV  [BX-010Dh], AL
229F  E9 0E 00                  JMP  22B0h
22A2  3D 0C 00                  CMP  AX, 000Ch
22A5  74 03                     JZ   22AAh
22A7  E9 06 00                  JMP  22B0h
22AA  E8 FB EE                  CALL 11A8h
22AD  E9 00 00                  JMP  22B0h
22B0  E9 00 00                  JMP  22B3h
22B3  8B E5                     MOV  SP, BP
22B5  5D                        POP  BP
22B6  C3                        RET
22B7  55                        PUSH BP
22B8  8B C4                     MOV  AX, SP
22BA  FF 76 FE                  PUSH  [BP-02h]
22BD  8B E8                     MOV  BP, AX
22BF  55                        PUSH BP
22C0  E9 00 00                  JMP  22C3h
22C3  83 EC 03                  SUB  SP, 03h
22C6  B8 06 00                  MOV  AX, 0006h
22C9  50                        PUSH AX
22CA  B8 01 05                  MOV  AX, 0501h
22CD  50                        PUSH AX
22CE  E8 FA 53                  CALL 76CBh
22D1  E8 71 52                  CALL 7545h
22D4  B1 FF                     MOV  CL, FFh
22D6  E8 AC 51                  CALL 7485h
22D9  E8 54 E3                  CALL 0630h
22DC  B8 0F 00                  MOV  AX, 000Fh
22DF  50                        PUSH AX
22E0  E8 8F E6                  CALL 0972h
22E3  B8 0C 00                  MOV  AX, 000Ch
22E6  B9 00 00                  MOV  CX, 0000h
22E9  BA 0C 00                  MOV  DX, 000Ch
22EC  E8 1C 4F                  CALL 720Bh
22EF  8B 5E FE                  MOV  BX, [BP-02h]
22F2  36                        SS:
22F3  88 87 F3 FE               MOV  [BX-010Dh], AL
22F7  E9 00 00                  JMP  22FAh
22FA  8B E5                     MOV  SP, BP
22FC  5D                        POP  BP
22FD  C3                        RET
22FE  55                        PUSH BP
22FF  8B C4                     MOV  AX, SP
2301  FF 76 FE                  PUSH  [BP-02h]
2304  8B E8                     MOV  BP, AX
2306  55                        PUSH BP
2307  E9 00 00                  JMP  230Ah
230A  8B 5E FE                  MOV  BX, [BP-02h]
230D  36                        SS:
230E  8D BF FC FE               LEA  DI, [BX-0104h]
2312  16                        PUSH SS
2313  57                        PUSH DI
2314  E8 16 51                  CALL 742Dh
2317  00 B1 FF E8               ADD  [BX+DI-1701h], DH
231B  26                        ES:
231C  51                        PUSH CX
231D  8B 5E FE                  MOV  BX, [BP-02h]
2320  36                        SS:
2321  8D BF F6 FE               LEA  DI, [BX-010Ah]
2325  16                        PUSH SS
2326  57                        PUSH DI
2327  B8 00 00                  MOV  AX, 0000h
232A  E8 4A 5A                  CALL 7D77h
232D  E8 AB 58                  CALL 7BDBh
2330  B8 00 00                  MOV  AX, 0000h
2333  B9 00 00                  MOV  CX, 0000h
2336  BA 10 00                  MOV  DX, 0010h
2339  E8 CF 4E                  CALL 720Bh
233C  8B 5E FE                  MOV  BX, [BP-02h]
233F  36                        SS:
2340  88 87 F2 FE               MOV  [BX-010Eh], AL
2344  E8 FC ED                  CALL 1143h
2347  B8 E8 03                  MOV  AX, 03E8h
234A  E8 0E 41                  CALL 645Bh
234D  E8 39 EE                  CALL 1189h
2350  E8 DA 50                  CALL 742Dh
2353  07                        POP  ES
2354  75 73 65 72 73 20 31      db  "users 1"
235B  B1 FF                     MOV  CL, FFh
235D  E8 25 51                  CALL 7485h
2360  E8 26 E3                  CALL 0689h
2363  B8 F4 01                  MOV  AX, 01F4h
2366  E8 F2 40                  CALL 645Bh
2369  B8 74 00                  MOV  AX, 0074h
236C  8A E0                     MOV  AH, AL
236E  B0 01                     MOV  AL, 01h
2370  50                        PUSH AX
2371  B1 FF                     MOV  CL, FFh
2373  E8 0F 51                  CALL 7485h
2376  E8 10 E3                  CALL 0689h
2379  B8 F4 01                  MOV  AX, 01F4h
237C  E8 DC 40                  CALL 645Bh
237F  8B 5E FE                  MOV  BX, [BP-02h]
2382  36                        SS:
2383  8D BF 39 FC               LEA  DI, [BX-03C7h]
2387  16                        PUSH SS
2388  57                        PUSH DI
2389  E8 A1 50                  CALL 742Dh
238C  00 B1 FF E8               ADD  [BX+DI-1701h], DH
2390  B1 50                     MOV  CL, 50h
2392  E8 F4 ED                  CALL 1189h
2395  E8 44 E5                  CALL 08DCh
2398  8B 5E FE                  MOV  BX, [BP-02h]
239B  36                        SS:
239C  8A 87 38 FC               MOV  AL, [BX-03C8h]
23A0  32 E4                     XOR  AH, AH
23A2  0B C0                     OR   AX, AX
23A4  75 03                     JNZ  23A9h
23A6  E9 3E 00                  JMP  23E7h
23A9  BF 4E 01                  MOV  DI, 014Eh
23AC  1E                        PUSH DS
23AD  E8 02 64                  CALL 87B2h
23B0  E8 0A 68                  CALL 8BBDh
23B3  E8 B4 4E                  CALL 726Ah
23B6  BF 4E 01                  MOV  DI, 014Eh
23B9  1E                        PUSH DS
23BA  E8 F5 63                  CALL 87B2h
23BD  8B 5E FE                  MOV  BX, [BP-02h]
23C0  36                        SS:
23C1  8A 87 F2 FE               MOV  AL, [BX-010Eh]
23C5  32 E4                     XOR  AH, AH
23C7  B9 11 00                  MOV  CX, 0011h
23CA  E8 34 4E                  CALL 7201h
23CD  B9 03 00                  MOV  CX, 0003h
23D0  F7 E1                     MUL  CX
23D2  97                        XCHG AX, DI
23D3  81 C7 62 9E               ADD  DI, 9E62h
23D7  0E                        PUSH CS
23D8  E8 39 50                  CALL 7414h
23DB  B8 00 00                  MOV  AX, 0000h
23DE  E8 8D 67                  CALL 8B6Eh
23E1  E8 D9 67                  CALL 8BBDh
23E4  E8 83 4E                  CALL 726Ah
23E7  8B 5E FE                  MOV  BX, [BP-02h]
23EA  36                        SS:
23EB  8A 87 F3 FE               MOV  AL, [BX-010Dh]
23EF  32 E4                     XOR  AH, AH
23F1  3D 00 00                  CMP  AX, 0000h
23F4  74 03                     JZ   23F9h
23F6  E9 06 00                  JMP  23FFh
23F9  E8 55 F2                  CALL 1651h
23FC  E9 9A 00                  JMP  2499h
23FF  3D 01 00                  CMP  AX, 0001h
2402  74 03                     JZ   2407h
2404  E9 06 00                  JMP  240Dh
2407  E8 78 F3                  CALL 1782h
240A  E9 8C 00                  JMP  2499h
240D  3D 02 00                  CMP  AX, 0002h
2410  74 03                     JZ   2415h
2412  E9 06 00                  JMP  241Bh
2415  E8 C8 F4                  CALL 18E0h
2418  E9 7E 00                  JMP  2499h
241B  3D 03 00                  CMP  AX, 0003h
241E  74 03                     JZ   2423h
2420  E9 06 00                  JMP  2429h
2423  E8 30 F6                  CALL 1A56h
2426  E9 70 00                  JMP  2499h
2429  3D 04 00                  CMP  AX, 0004h
242C  74 03                     JZ   2431h
242E  E9 06 00                  JMP  2437h
2431  E8 FD F7                  CALL 1C31h
2434  E9 62 00                  JMP  2499h
2437  3D 05 00                  CMP  AX, 0005h
243A  74 03                     JZ   243Fh
243C  E9 06 00                  JMP  2445h
243F  E8 90 F8                  CALL 1CD2h
2442  E9 54 00                  JMP  2499h
2445  3D 06 00                  CMP  AX, 0006h
2448  74 03                     JZ   244Dh
244A  E9 06 00                  JMP  2453h
244D  E8 00 F9                  CALL 1D50h
2450  E9 46 00                  JMP  2499h
2453  3D 07 00                  CMP  AX, 0007h
2456  74 03                     JZ   245Bh
2458  E9 06 00                  JMP  2461h
245B  E8 B9 F9                  CALL 1E17h
245E  E9 38 00                  JMP  2499h
2461  3D 08 00                  CMP  AX, 0008h
2464  74 03                     JZ   2469h
2466  E9 06 00                  JMP  246Fh
2469  E8 A3 FB                  CALL 200Fh
246C  E9 2A 00                  JMP  2499h
246F  3D 09 00                  CMP  AX, 0009h
2472  74 03                     JZ   2477h
2474  E9 06 00                  JMP  247Dh
2477  E8 26 FD                  CALL 21A0h
247A  E9 1C 00                  JMP  2499h
247D  3D 0A 00                  CMP  AX, 000Ah
2480  74 03                     JZ   2485h
2482  E9 06 00                  JMP  248Bh
2485  E8 7C FD                  CALL 2204h
2488  E9 0E 00                  JMP  2499h
248B  3D 0B 00                  CMP  AX, 000Bh
248E  74 03                     JZ   2493h
2490  E9 06 00                  JMP  2499h
2493  E8 21 FE                  CALL 22B7h
2496  E9 00 00                  JMP  2499h
2499  8B 5E FE                  MOV  BX, [BP-02h]
249C  36                        SS:
249D  8A 87 F3 FE               MOV  AL, [BX-010Dh]
24A1  32 E4                     XOR  AH, AH
24A3  3D 0C 00                  CMP  AX, 000Ch
24A6  74 03                     JZ   24ABh
24A8  E9 EA FE                  JMP  2395h
24AB  B8 0D 00                  MOV  AX, 000Dh
24AE  50                        PUSH AX
24AF  E8 4C E5                  CALL 09FEh
24B2  B8 01 00                  MOV  AX, 0001h
24B5  50                        PUSH AX
24B6  B8 03 00                  MOV  AX, 0003h
24B9  59                        POP  CX
24BA  91                        XCHG AX, CX
24BB  2B C8                     SUB  CX, AX
24BD  7D 03                     JGE  24C2h
24BF  E9 2F 00                  JMP  24F1h
24C2  41                        INC  CX
24C3  8B 5E FE                  MOV  BX, [BP-02h]
24C6  36                        SS:
24C7  88 87 8E FA               MOV  [BX-0572h], AL
24CB  51                        PUSH CX
24CC  E8 D1 62                  CALL 87A0h
24CF  B8 07 00                  MOV  AX, 0007h
24D2  50                        PUSH AX
24D3  B8 00 00                  MOV  AX, 0000h
24D6  E8 0C 66                  CALL 8AE5h
24D9  E8 8E 4D                  CALL 726Ah
24DC  B8 F4 01                  MOV  AX, 01F4h
24DF  E8 79 3F                  CALL 645Bh
24E5  0B 8B 5E FE               OR   CX, [BP+DI-01A2h]
24E9  36                        SS:
24EA  FE 87 8E FA               INC  [BX-0572h]
24EE  E9 DA FF                  JMP  24CBh
24F1  E8 4F EC                  CALL 1143h
24F4  B8 E8 03                  MOV  AX, 03E8h
24F7  E8 61 3F                  CALL 645Bh
24FA  E8 8C EC                  CALL 1189h
24FD  E8 2D 4F                  CALL 742Dh
2500  08 75 73                  OR   [DI+73h], DH
2509  B1 FF                     MOV  CL, FFh
250B  E8 77 4F                  CALL 7485h
250E  E8 78 E1                  CALL 0689h
2511  B8 E8 03                  MOV  AX, 03E8h
2514  E8 44 3F                  CALL 645Bh
2517  E8 6F EC                  CALL 1189h
251A  E8 10 4F                  CALL 742Dh
251D  04 63                     ADD  AL, 63h
2522  B1 FF                     MOV  CL, FFh
2524  E8 5E 4F                  CALL 7485h
2527  E8 5F E1                  CALL 0689h
252A  8B 5E FE                  MOV  BX, [BP-02h]
252D  36                        SS:
252E  8A 87 38 FC               MOV  AL, [BX-03C8h]
2532  32 E4                     XOR  AH, AH
2534  0B C0                     OR   AX, AX
2536  75 03                     JNZ  253Bh
2538  E9 0D 00                  JMP  2548h
253B  BF 4E 01                  MOV  DI, 014Eh
253E  1E                        PUSH DS
253F  E8 70 62                  CALL 87B2h
2542  E8 78 66                  CALL 8BBDh
2545  E8 22 4D                  CALL 726Ah
2548  E9 00 00                  JMP  254Bh
254B  8B E5                     MOV  SP, BP
254D  5D                        POP  BP
254E  C3                        RET
254F  55                        PUSH BP
2550  8B C4                     MOV  AX, SP
2552  FF 76 FE                  PUSH  [BP-02h]
2555  8B E8                     MOV  BP, AX
2557  55                        PUSH BP
2558  E9 00 00                  JMP  255Bh
255B  4C                        DEC  SP
255C  4C                        DEC  SP
255D  E8 0E 3F                  CALL 646Eh
2560  E8 3D 62                  CALL 87A0h
2563  E8 57 66                  CALL 8BBDh
2566  E8 01 4D                  CALL 726Ah
2569  E8 34 62                  CALL 87A0h
256C  E8 36 66                  CALL 8BA5h
256F  1B 20                     SBB  SP, [BX+SI]
258B  E8 DC 4C                  CALL 726Ah
258E  E8 3E 62                  CALL 87CFh
2591  8B 5E FE                  MOV  BX, [BP-02h]
2594  36                        SS:
2595  8D BF 39 FD               LEA  DI, [BX-02C7h]
2599  16                        PUSH SS
259A  B1 1E                     MOV  CL, 1Eh
259C  E8 5C 64                  CALL 89FBh
259F  E8 C8 4C                  CALL 726Ah
25A2  8B 5E FE                  MOV  BX, [BP-02h]
25A5  36                        SS:
25A6  8D BF 39 FD               LEA  DI, [BX-02C7h]
25AA  16                        PUSH SS
25AB  E8 66 4E                  CALL 7414h
25AE  E8 15 50                  CALL 75C6h
25B1  3D 00 00                  CMP  AX, 0000h
25B4  74 03                     JZ   25B9h
25B6  E9 03 00                  JMP  25BCh
25B9  E9 12 01                  JMP  26CEh
25BC  B8 01 00                  MOV  AX, 0001h
25BF  50                        PUSH AX
25C0  8B 5E FE                  MOV  BX, [BP-02h]
25C3  36                        SS:
25C4  8D BF 39 FD               LEA  DI, [BX-02C7h]
25C8  16                        PUSH SS
25C9  E8 48 4E                  CALL 7414h
25CC  E8 F7 4F                  CALL 75C6h
25CF  59                        POP  CX
25D0  91                        XCHG AX, CX
25D1  2B C8                     SUB  CX, AX
25D3  7D 03                     JGE  25D8h
25D5  E9 43 00                  JMP  261Bh
25D8  41                        INC  CX
25D9  89 46 FA                  MOV  [BP-06h], AX
25DC  51                        PUSH CX
25DD  8B 46 FA                  MOV  AX, [BP-06h]
25E0  B9 1F 00                  MOV  CX, 001Fh
25E3  E8 1B 4C                  CALL 7201h
25E6  97                        XCHG AX, DI
25E7  57                        PUSH DI
25E8  8B 46 FA                  MOV  AX, [BP-06h]
25EB  B9 1F 00                  MOV  CX, 001Fh
25EE  E8 10 4C                  CALL 7201h
25F1  97                        XCHG AX, DI
25F2  8B 5E FE                  MOV  BX, [BP-02h]
25F5  36                        SS:
25F6  8A 81 39 FD               MOV  AL, [BX+DI-02C7h]
25FA  32 E4                     XOR  AH, AH
25FC  E8 B7 3F                  CALL 65B6h
25FF  5F                        POP  DI
2600  B9 00 00                  MOV  CX, 0000h
2603  BA FF 00                  MOV  DX, 00FFh
2606  E8 02 4C                  CALL 720Bh
2609  8B 5E FE                  MOV  BX, [BP-02h]
260C  36                        SS:
260D  88 81 39 FD               MOV  [BX+DI-02C7h], AL
2611  59                        POP  CX
2612  49                        DEC  CX
2613  74 06                     JZ   261Bh
2615  FF 46 FA                  INC  [BP-06h]
2618  E9 C1 FF                  JMP  25DCh
261B  8B 5E FE                  MOV  BX, [BP-02h]
261E  36                        SS:
261F  8D BF 58 FD               LEA  DI, [BX-02A8h]
2623  16                        PUSH SS
2624  57                        PUSH DI
2625  8B 5E FE                  MOV  BX, [BP-02h]
2628  36                        SS:
2629  8D BF 39 FD               LEA  DI, [BX-02C7h]
262D  16                        PUSH SS
262E  E8 E3 4D                  CALL 7414h
2631  E8 D8 65                  CALL 8C0Ch
2634  8B 5E FE                  MOV  BX, [BP-02h]
2637  36                        SS:
2638  8D BF 58 FD               LEA  DI, [BX-02A8h]
263C  16                        PUSH SS
263D  B9 01 00                  MOV  CX, 0001h
2640  E8 CE 65                  CALL 8C11h
2643  E8 1D 4C                  CALL 7263h
2646  3D 00 00                  CMP  AX, 0000h
2649  B8 01 00                  MOV  AX, 0001h
264C  74 01                     JZ   264Fh
264E  48                        DEC  AX
264F  B9 00 00                  MOV  CX, 0000h
2652  BA 01 00                  MOV  DX, 0001h
2655  E8 B3 4B                  CALL 720Bh
2658  A2 8F 59                  MOV  [598Fh], AL
265B  A0 8F 59                  MOV  AL, [598Fh]
265E  32 E4                     XOR  AH, AH
2660  34 01                     XOR  AL, 01h
2662  75 03                     JNZ  2667h
2664  E9 32 00                  JMP  2699h
2667  E8 36 61                  CALL 87A0h
266A  E8 38 65                  CALL 8BA5h
266D  13 20                     ADC  SP, [BX+SI]
2681  8B 5E FE                  MOV  BX, [BP-02h]
2684  36                        SS:
2685  8D BF 39 FD               LEA  DI, [BX-02C7h]
2689  16                        PUSH SS
268A  E8 87 4D                  CALL 7414h
268D  B8 00 00                  MOV  AX, 0000h
2690  E8 DB 64                  CALL 8B6Eh
2693  E8 27 65                  CALL 8BBDh
2696  E8 D1 4B                  CALL 726Ah
2699  A0 8F 59                  MOV  AL, [598Fh]
269C  32 E4                     XOR  AH, AH
269E  0B C0                     OR   AX, AX
26A0  75 03                     JNZ  26A5h
26A2  E9 BB FE                  JMP  2560h
26A5  E8 E2 E3                  CALL 0A8Ah
26A8  B8 00 00                  MOV  AX, 0000h
26AB  B9 00 00                  MOV  CX, 0000h
26AE  BA 0C 00                  MOV  DX, 000Ch
26B1  E8 57 4B                  CALL 720Bh
26B4  8B 5E FE                  MOV  BX, [BP-02h]
26B7  36                        SS:
26B8  88 87 F3 FE               MOV  [BX-010Dh], AL
26BC  E8 3F FC                  CALL 22FEh
26BF  8B 5E FE                  MOV  BX, [BP-02h]
26C2  36                        SS:
26C3  8D BF 58 FD               LEA  DI, [BX-02A8h]
26C7  16                        PUSH SS
26C8  E8 8B 65                  CALL 8C56h
26CB  E8 9C 4B                  CALL 726Ah
26CE  E9 00 00                  JMP  26D1h
26D1  8B E5                     MOV  SP, BP
26D3  5D                        POP  BP
26D4  C3                        RET
26D5  55                        PUSH BP
26D6  8B C4                     MOV  AX, SP
26D8  FF 76 FE                  PUSH  [BP-02h]
26DB  8B E8                     MOV  BP, AX
26DD  55                        PUSH BP
26DE  E9 00 00                  JMP  26E1h
26E1  81 EC 01 01               SUB  SP, 0101h
26E5  E8 A2 E3                  CALL 0A8Ah
26E8  B8 06 00                  MOV  AX, 0006h
26EB  B9 00 00                  MOV  CX, 0000h
26EE  BA 0C 00                  MOV  DX, 000Ch
26F1  E8 17 4B                  CALL 720Bh
26F4  8B 5E FE                  MOV  BX, [BP-02h]
26F7  36                        SS:
26F8  88 87 F3 FE               MOV  [BX-010Dh], AL
26FC  B8 00 00                  MOV  AX, 0000h
26FF  B9 00 00                  MOV  CX, 0000h
2702  BA 01 00                  MOV  DX, 0001h
2705  E8 03 4B                  CALL 720Bh
2708  8B 5E FE                  MOV  BX, [BP-02h]
270B  36                        SS:
270C  88 87 F5 FE               MOV  [BX-010Bh], AL
2710  B8 00 00                  MOV  AX, 0000h
2713  B9 00 00                  MOV  CX, 0000h
2716  BA 01 00                  MOV  DX, 0001h
2719  E8 EF 4A                  CALL 720Bh
271C  8B 5E FE                  MOV  BX, [BP-02h]
271F  36                        SS:
2720  88 87 F4 FE               MOV  [BX-010Ch], AL
2724  E8 D7 FB                  CALL 22FEh
2727  8B 5E FE                  MOV  BX, [BP-02h]
272A  36                        SS:
272B  8A 87 F5 FE               MOV  AL, [BX-010Bh]
272F  32 E4                     XOR  AH, AH
2731  50                        PUSH AX
2732  8B 5E FE                  MOV  BX, [BP-02h]
2735  36                        SS:
2736  8A 87 F4 FE               MOV  AL, [BX-010Ch]
273A  32 E4                     XOR  AH, AH
273C  34 01                     XOR  AL, 01h
273E  59                        POP  CX
273F  23 C1                     AND  AX, CX
2741  0B C0                     OR   AX, AX
2743  75 03                     JNZ  2748h
2745  E9 1E 00                  JMP  2766h
2748  8B 5E FE                  MOV  BX, [BP-02h]
274B  36                        SS:
274C  8D BF A4 FD               LEA  DI, [BX-025Ch]
2750  16                        PUSH SS
2751  E8 02 65                  CALL 8C56h
2754  E8 13 4B                  CALL 726Ah
2757  8B 5E FE                  MOV  BX, [BP-02h]
275A  36                        SS:
275B  8D BF A4 FD               LEA  DI, [BX-025Ch]
275F  16                        PUSH SS
2760  E8 1C 67                  CALL 8E7Fh
2763  E8 04 4B                  CALL 726Ah
2766  E9 00 00                  JMP  2769h
2769  8B E5                     MOV  SP, BP
276B  5D                        POP  BP
276C  C3                        RET
276D  81 EC 70 05               SUB  SP, 0570h
2771  B8 25 00                  MOV  AX, 0025h
2774  50                        PUSH AX
2775  B8 01 00                  MOV  AX, 0001h
2778  50                        PUSH AX
2779  B8 50 00                  MOV  AX, 0050h
277C  50                        PUSH AX
277D  B8 0B 00                  MOV  AX, 000Bh
2780  50                        PUSH AX
2781  E8 A9 4C                  CALL 742Dh
2784  1B 59 41                  SBB  BX, [BX+DI+41h]
27A0  B1 46                     MOV  CL, 46h
27A2  E8 E0 4C                  CALL 7485h
27A5  E8 57 79                  CALL A0FFh
27A8  B8 00 00                  MOV  AX, 0000h
27AB  B9 00 00                  MOV  CX, 0000h
27AE  BA 01 00                  MOV  DX, 0001h
27B1  E8 57 4A                  CALL 720Bh
27B4  88 86 38 FC               MOV  [BP-03C8h], AL
27B8  E8 E5 5F                  CALL 87A0h
27BB  E8 FF 63                  CALL 8BBDh
27BE  E8 A9 4A                  CALL 726Ah
27C1  E8 DC 5F                  CALL 87A0h
27C4  E8 DE 63                  CALL 8BA5h
27C7  12 20                     ADC  AH, [BX+SI]
27DA  E8 E0 63                  CALL 8BBDh
27DD  E8 8A 4A                  CALL 726Ah
27E0  E8 BD 5F                  CALL 87A0h
27E3  E8 BF 63                  CALL 8BA5h
27E6  0F                        ???
27E7  20 20 53 2E 20 20 53 65...  db  "  S.  Send File"
27F6  E8 C4 63                  CALL 8BBDh
27F9  E8 6E 4A                  CALL 726Ah
27FC  E8 A1 5F                  CALL 87A0h
27FF  E8 BB 63                  CALL 8BBDh
2802  E8 65 4A                  CALL 726Ah
2805  E8 98 5F                  CALL 87A0h
2808  E8 9A 63                  CALL 8BA5h
280B  1A 20                     SBB  AH, [BX+SI]
2826  E8 94 63                  CALL 8BBDh
2829  E8 3E 4A                  CALL 726Ah
282C  E8 71 5F                  CALL 87A0h
282F  E8 73 63                  CALL 8BA5h
2832  1C 20                     SBB  AL, 20h
284F  E8 18 4A                  CALL 726Ah
2852  B8 1D 00                  MOV  AX, 001Dh
2855  50                        PUSH AX
2856  B8 06 00                  MOV  AX, 0006h
2859  E8 96 47                  CALL 6FF2h
285C  E8 93 3C                  CALL 64F2h
285F  8D BE 35 FC               LEA  DI, [BP-03CBh]
2863  16                        PUSH SS
2864  57                        PUSH DI
2865  83 EC 03                  SUB  SP, 03h
2868  E8 97 68                  CALL 9102h
286B  B1 02                     MOV  CL, 02h
286D  E8 D3 4B                  CALL 7443h
2870  8D BE 35 FC               LEA  DI, [BP-03CBh]
2874  16                        PUSH SS
2875  E8 9C 4B                  CALL 7414h
2878  E8 B2 4B                  CALL 742Dh
287B  00 E8                     ADD  AL, CH
287D  4F                        DEC  DI
287E  4C                        DEC  SP
287F  75 03                     JNZ  2884h
2881  E9 DB FF                  JMP  285Fh
2884  E8 19 5F                  CALL 87A0h
2887  8D BE 35 FC               LEA  DI, [BP-03CBh]
288B  16                        PUSH SS
288C  E8 85 4B                  CALL 7414h
288F  B8 00 00                  MOV  AX, 0000h
2892  E8 D9 62                  CALL 8B6Eh
2895  E8 25 63                  CALL 8BBDh
2898  E8 CF 49                  CALL 726Ah
289B  8D BE 35 FC               LEA  DI, [BP-03CBh]
289F  16                        PUSH SS
28A0  E8 71 4B                  CALL 7414h
28A3  E8 12 4E                  CALL 76B8h
28A6  E8 0D 3D                  CALL 65B6h
28A9  3D 52 00                  CMP  AX, 0052h
28AC  74 03                     JZ   28B1h
28AE  E9 06 00                  JMP  28B7h
28B1  E8 21 FE                  CALL 26D5h
28B4  E9 2B 00                  JMP  28E2h
28B7  3D 53 00                  CMP  AX, 0053h
28BA  74 03                     JZ   28BFh
28BC  E9 06 00                  JMP  28C5h
28BF  E8 8D FC                  CALL 254Fh
28C2  E9 1D 00                  JMP  28E2h
28C5  3D 50 00                  CMP  AX, 0050h
28C8  74 03                     JZ   28CDh
28CA  E9 15 00                  JMP  28E2h
28CD  8A 86 38 FC               MOV  AL, [BP-03C8h]
28D1  32 E4                     XOR  AH, AH
28D3  34 01                     XOR  AL, 01h
28D5  B9 00 00                  MOV  CX, 0000h
28D8  BA 01 00                  MOV  DX, 0001h
28DB  E8 2D 49                  CALL 720Bh
28DE  88 86 38 FC               MOV  [BP-03C8h], AL
28E2  8D BE 35 FC               LEA  DI, [BP-03CBh]
28E6  16                        PUSH SS
28E7  E8 2A 4B                  CALL 7414h
28EA  E8 CB 4D                  CALL 76B8h
28ED  E8 C6 3C                  CALL 65B6h
28F0  3D 50 00                  CMP  AX, 0050h
28F3  75 03                     JNZ  28F8h
28F5  E9 67 FF                  JMP  285Fh
28F8  E8 B7 79                  CALL A2B2h
28FB  E9 00 00                  JMP  28FEh
28FE  8B E5                     MOV  SP, BP
2900  5D                        POP  BP
2901  C3                        RET
2902  00 00                     ADD  [BX+SI], AL
2904  00 00                     ADD  [BX+SI], AL
2906  00 00                     ADD  [BX+SI], AL
2908  00 00                     ADD  [BX+SI], AL
290A  00 00                     ADD  [BX+SI], AL
290C  00 00                     ADD  [BX+SI], AL
290E  00 00                     ADD  [BX+SI], AL
2910  00 00                     ADD  [BX+SI], AL
2912  00 00                     ADD  [BX+SI], AL
2914  00 00                     ADD  [BX+SI], AL
2916  00 00                     ADD  [BX+SI], AL
2918  00 00                     ADD  [BX+SI], AL
291A  00 00                     ADD  [BX+SI], AL
291C  00 00                     ADD  [BX+SI], AL
291E  00 00                     ADD  [BX+SI], AL
2920  00 00                     ADD  [BX+SI], AL
2922  00 00                     ADD  [BX+SI], AL
2924  00 00                     ADD  [BX+SI], AL
2926  00 00                     ADD  [BX+SI], AL
2928  00 00                     ADD  [BX+SI], AL
292A  00 00                     ADD  [BX+SI], AL
292C  00 00                     ADD  [BX+SI], AL
292E  00 00                     ADD  [BX+SI], AL
2930  00 00                     ADD  [BX+SI], AL
2932  00 00                     ADD  [BX+SI], AL
2934  00 00                     ADD  [BX+SI], AL
2936  00 00                     ADD  [BX+SI], AL
2938  00 00                     ADD  [BX+SI], AL
293A  00 00                     ADD  [BX+SI], AL
293C  00 00                     ADD  [BX+SI], AL
293E  00 00                     ADD  [BX+SI], AL
2940  00 00                     ADD  [BX+SI], AL
2942  00 00                     ADD  [BX+SI], AL
2944  00 00                     ADD  [BX+SI], AL
2946  00 00                     ADD  [BX+SI], AL
2948  00 00                     ADD  [BX+SI], AL
294A  00 00                     ADD  [BX+SI], AL
294C  00 00                     ADD  [BX+SI], AL
294E  00 00                     ADD  [BX+SI], AL
2950  00 00                     ADD  [BX+SI], AL
2952  00 00                     ADD  [BX+SI], AL
2954  00 00                     ADD  [BX+SI], AL
2956  00 00                     ADD  [BX+SI], AL
2958  00 00                     ADD  [BX+SI], AL
295A  00 00                     ADD  [BX+SI], AL
295C  00 00                     ADD  [BX+SI], AL
295E  00 00                     ADD  [BX+SI], AL
2960  00 00                     ADD  [BX+SI], AL
2962  00 00                     ADD  [BX+SI], AL
2964  00 00                     ADD  [BX+SI], AL
2966  00 00                     ADD  [BX+SI], AL
2968  00 00                     ADD  [BX+SI], AL
296A  00 00                     ADD  [BX+SI], AL
296C  00 00                     ADD  [BX+SI], AL
296E  00 00                     ADD  [BX+SI], AL
2970  00 00                     ADD  [BX+SI], AL
2972  00 00                     ADD  [BX+SI], AL
2974  00 00                     ADD  [BX+SI], AL
2976  00 00                     ADD  [BX+SI], AL
2978  00 00                     ADD  [BX+SI], AL
297A  00 00                     ADD  [BX+SI], AL
297C  00 00                     ADD  [BX+SI], AL
297E  00 00                     ADD  [BX+SI], AL
2980  00 00                     ADD  [BX+SI], AL
2982  00 00                     ADD  [BX+SI], AL
2984  00 00                     ADD  [BX+SI], AL
2986  00 00                     ADD  [BX+SI], AL
2988  00 00                     ADD  [BX+SI], AL
298A  00 00                     ADD  [BX+SI], AL
298C  00 00                     ADD  [BX+SI], AL
298E  00 00                     ADD  [BX+SI], AL
2990  00 00                     ADD  [BX+SI], AL
2992  00 00                     ADD  [BX+SI], AL
2994  00 00                     ADD  [BX+SI], AL
2996  00 00                     ADD  [BX+SI], AL
2998  00 00                     ADD  [BX+SI], AL
299A  00 00                     ADD  [BX+SI], AL
299C  00 00                     ADD  [BX+SI], AL
299E  00 00                     ADD  [BX+SI], AL
29A0  00 00                     ADD  [BX+SI], AL
29A2  00 00                     ADD  [BX+SI], AL
29A4  00 00                     ADD  [BX+SI], AL
29A6  00 00                     ADD  [BX+SI], AL
29A8  00 00                     ADD  [BX+SI], AL
29AA  00 00                     ADD  [BX+SI], AL
29AC  00 00                     ADD  [BX+SI], AL
29AE  00 00                     ADD  [BX+SI], AL
29B0  00 00                     ADD  [BX+SI], AL
29B2  00 00                     ADD  [BX+SI], AL
29B4  00 00                     ADD  [BX+SI], AL
29B6  00 00                     ADD  [BX+SI], AL
29B8  00 00                     ADD  [BX+SI], AL
29BA  00 00                     ADD  [BX+SI], AL
29BC  00 00                     ADD  [BX+SI], AL
29BE  00 00                     ADD  [BX+SI], AL
29C0  00 00                     ADD  [BX+SI], AL
29C2  00 00                     ADD  [BX+SI], AL
29C4  00 00                     ADD  [BX+SI], AL
29C6  00 00                     ADD  [BX+SI], AL
29C8  00 00                     ADD  [BX+SI], AL
29CA  00 00                     ADD  [BX+SI], AL
29CC  00 00                     ADD  [BX+SI], AL
29CE  00 00                     ADD  [BX+SI], AL
29D0  00 00                     ADD  [BX+SI], AL
29D2  00 00                     ADD  [BX+SI], AL
29D4  00 00                     ADD  [BX+SI], AL
29D6  00 00                     ADD  [BX+SI], AL
29D8  00 00                     ADD  [BX+SI], AL
29DA  00 00                     ADD  [BX+SI], AL
29DC  00 00                     ADD  [BX+SI], AL
29DE  00 00                     ADD  [BX+SI], AL
29E0  00 00                     ADD  [BX+SI], AL
29E2  00 00                     ADD  [BX+SI], AL
29E4  00 00                     ADD  [BX+SI], AL
29E6  00 00                     ADD  [BX+SI], AL
29E8  00 00                     ADD  [BX+SI], AL
29EA  00 00                     ADD  [BX+SI], AL
29EC  00 00                     ADD  [BX+SI], AL
29EE  00 00                     ADD  [BX+SI], AL
29F0  00 00                     ADD  [BX+SI], AL
29F2  00 00                     ADD  [BX+SI], AL
29F4  00 00                     ADD  [BX+SI], AL
29F6  00 00                     ADD  [BX+SI], AL
29F8  00 00                     ADD  [BX+SI], AL
29FA  00 00                     ADD  [BX+SI], AL
29FC  00 00                     ADD  [BX+SI], AL
29FE  00 00                     ADD  [BX+SI], AL
2A00  E8 11 6F                  CALL 9914h
2A03  FD                        STD
2A04  08 BF 9D 55               OR   [BX+559Dh], BH
2A08  8B EC                     MOV  BP, SP
2A0A  55                        PUSH BP
2A0B  E9 00 00                  JMP  2A0Eh
2A0E  BF 44 8F                  MOV  DI, 8F44h
2A11  1E                        PUSH DS
2A12  57                        PUSH DI
2A13  E8 17 74                  CALL 9E2Dh
2A16  0C 42                     OR   AL, 42h
2A23  B1 0C                     MOV  CL, 0Ch
2A25  E8 1B 74                  CALL 9E43h
2A28  BF 51 8F                  MOV  DI, 8F51h
2A2B  1E                        PUSH DS
2A2C  57                        PUSH DI
2A2D  E8 FD 73                  CALL 9E2Dh
2A30  0C 42                     OR   AL, 42h
2A3D  B1 0C                     MOV  CL, 0Ch
2A3F  E8 01 74                  CALL 9E43h
2A42  BF 5E 8F                  MOV  DI, 8F5Eh
2A45  1E                        PUSH DS
2A46  57                        PUSH DI
2A47  E8 E3 73                  CALL 9E2Dh
2A4A  0C 47                     OR   AL, 47h
2A57  B1 0C                     MOV  CL, 0Ch
2A59  E8 E7 73                  CALL 9E43h
2A5C  BF 6B 8F                  MOV  DI, 8F6Bh
2A5F  1E                        PUSH DS
2A60  57                        PUSH DI
2A61  E8 C9 73                  CALL 9E2Dh
2A64  0C 43                     OR   AL, 43h
2A71  B1 0C                     MOV  CL, 0Ch
2A73  E8 CD 73                  CALL 9E43h
2A76  BF 78 8F                  MOV  DI, 8F78h
2A79  1E                        PUSH DS
2A7A  57                        PUSH DI
2A7B  E8 AF 73                  CALL 9E2Dh
2A7E  0C 52                     OR   AL, 52h
2A8B  B1 0C                     MOV  CL, 0Ch
2A8D  E8 B3 73                  CALL 9E43h
2A90  BF 85 8F                  MOV  DI, 8F85h
2A93  1E                        PUSH DS
2A94  57                        PUSH DI
2A95  E8 95 73                  CALL 9E2Dh
2A98  0C 4D                     OR   AL, 4Dh
2AA5  B1 0C                     MOV  CL, 0Ch
2AA7  E8 99 73                  CALL 9E43h
2AAA  BF 92 8F                  MOV  DI, 8F92h
2AAD  1E                        PUSH DS
2AAE  57                        PUSH DI
2AAF  E8 7B 73                  CALL 9E2Dh
2AB2  0C 42                     OR   AL, 42h
2ABF  B1 0C                     MOV  CL, 0Ch
2AC1  E8 7F 73                  CALL 9E43h
2AC4  BF 9F 8F                  MOV  DI, 8F9Fh
2AC7  1E                        PUSH DS
2AC8  57                        PUSH DI
2AC9  E8 61 73                  CALL 9E2Dh
2ACC  0C 4C                     OR   AL, 4Ch
2AD9  B1 0C                     MOV  CL, 0Ch
2ADB  E8 65 73                  CALL 9E43h
2ADE  BF AC 8F                  MOV  DI, 8FACh
2AE1  1E                        PUSH DS
2AE2  57                        PUSH DI
2AE3  E8 47 73                  CALL 9E2Dh
2AE6  0C 44                     OR   AL, 44h
2AF3  B1 0C                     MOV  CL, 0Ch
2AF5  E8 4B 73                  CALL 9E43h
2AF8  BF B9 8F                  MOV  DI, 8FB9h
2AFB  1E                        PUSH DS
2AFC  57                        PUSH DI
2AFD  E8 2D 73                  CALL 9E2Dh
2B00  0C 4C                     OR   AL, 4Ch
2B0D  B1 0C                     MOV  CL, 0Ch
2B0F  E8 31 73                  CALL 9E43h
2B12  BF C6 8F                  MOV  DI, 8FC6h
2B15  1E                        PUSH DS
2B16  57                        PUSH DI
2B17  E8 13 73                  CALL 9E2Dh
2B1A  0C 6C                     OR   AL, 6Ch
2B27  B1 0C                     MOV  CL, 0Ch
2B29  E8 17 73                  CALL 9E43h
2B2C  BF D3 8F                  MOV  DI, 8FD3h
2B2F  1E                        PUSH DS
2B30  57                        PUSH DI
2B31  E8 F9 72                  CALL 9E2Dh
2B34  0C 4C                     OR   AL, 4Ch
2B41  B1 0C                     MOV  CL, 0Ch
2B43  E8 FD 72                  CALL 9E43h
2B46  BF E0 8F                  MOV  DI, 8FE0h
2B49  1E                        PUSH DS
2B4A  57                        PUSH DI
2B4B  E8 DF 72                  CALL 9E2Dh
2B4E  0C 4C                     OR   AL, 4Ch
2B5B  B1 0C                     MOV  CL, 0Ch
2B5D  E8 E3 72                  CALL 9E43h
2B60  BF ED 8F                  MOV  DI, 8FEDh
2B63  1E                        PUSH DS
2B64  57                        PUSH DI
2B65  E8 C5 72                  CALL 9E2Dh
2B68  0C 4C                     OR   AL, 4Ch
2B75  B1 0C                     MOV  CL, 0Ch
2B77  E8 C9 72                  CALL 9E43h
2B7A  BF FA 8F                  MOV  DI, 8FFAh
2B7D  1E                        PUSH DS
2B7E  57                        PUSH DI
2B7F  E8 AB 72                  CALL 9E2Dh
2B82  0C 59                     OR   AL, 59h
2B8F  B1 0C                     MOV  CL, 0Ch
2B91  E8 AF 72                  CALL 9E43h
2B94  BF 07 90                  MOV  DI, 9007h
2B97  1E                        PUSH DS
2B98  57                        PUSH DI
2B99  E8 91 72                  CALL 9E2Dh
2B9C  0C 57                     OR   AL, 57h
2BA9  B1 0C                     MOV  CL, 0Ch
2BAB  E8 95 72                  CALL 9E43h
2BAE  BF 14 90                  MOV  DI, 9014h
2BB1  1E                        PUSH DS
2BB2  57                        PUSH DI
2BB3  E8 77 72                  CALL 9E2Dh
2BB6  05 4E 4F                  ADD  AX, 4F4Eh
2BBC  B1 05                     MOV  CL, 05h
2BBE  E8 82 72                  CALL 9E43h
2BC1  BF 1A 90                  MOV  DI, 901Ah
2BC4  1E                        PUSH DS
2BC5  57                        PUSH DI
2BC6  E8 64 72                  CALL 9E2Dh
2BC9  05 42 45                  ADD  AX, 4542h
2BCF  B1 05                     MOV  CL, 05h
2BD1  E8 6F 72                  CALL 9E43h
2BD4  BF 20 90                  MOV  DI, 9020h
2BD7  1E                        PUSH DS
2BD8  57                        PUSH DI
2BD9  E8 51 72                  CALL 9E2Dh
2BDC  05 41 4C                  ADD  AX, 4C41h
2BE2  B1 05                     MOV  CL, 05h
2BE4  E8 5C 72                  CALL 9E43h
2BE7  BF 26 90                  MOV  DI, 9026h
2BEA  1E                        PUSH DS
2BEB  57                        PUSH DI
2BEC  E8 3E 72                  CALL 9E2Dh
2BEF  05 4C 41                  ADD  AX, 414Ch
2BF5  B1 05                     MOV  CL, 05h
2BF7  E8 49 72                  CALL 9E43h
2BFA  B8 01 00                  MOV  AX, 0001h
2BFD  B9 00 00                  MOV  CX, 0000h
2C00  BA 01 00                  MOV  DX, 0001h
2C03  E8 05 70                  CALL 9C0Bh
2C06  A2 CC 84                  MOV  [84CCh], AL
2C09  B8 00 00                  MOV  AX, 0000h
2C0C  B9 00 00                  MOV  CX, 0000h
2C0F  BA 01 00                  MOV  DX, 0001h
2C12  E8 F6 6F                  CALL 9C0Bh
2C15  A2 F4 52                  MOV  [52F4h], AL
2C18  B8 01 00                  MOV  AX, 0001h
2C1B  A3 F5 52                  MOV  [52F5h], AX
2C1E  B8 00 00                  MOV  AX, 0000h
2C21  B9 00 00                  MOV  CX, 0000h
2C24  BA 01 00                  MOV  DX, 0001h
2C27  E8 E1 6F                  CALL 9C0Bh
2C2A  A2 A2 91                  MOV  [91A2h], AL
2C2D  B8 00 00                  MOV  AX, 0000h
2C30  B9 00 00                  MOV  CX, 0000h
2C33  BA 01 00                  MOV  DX, 0001h
2C36  E8 D2 6F                  CALL 9C0Bh
2C39  A2 A8 92                  MOV  [92A8h], AL
2C3C  E8 61 85                  CALL B1A0h
2C3F  B8 07 00                  MOV  AX, 0007h
2C42  50                        PUSH AX
2C43  B8 00 00                  MOV  AX, 0000h
2C46  E8 9C 88                  CALL B4E5h
2C49  E8 1E 70                  CALL 9C6Ah
2C4C  E8 1F 62                  CALL 8E6Eh
2C4F  B8 00 01                  MOV  AX, 0100h
2C52  BA 00 00                  MOV  DX, 0000h
2C55  E8 84 EB                  CALL 17DCh
2C58  2E                        CS:
2C59  A1 DA 2D                  MOV  AX, [2DDAh]
2C5C  50                        PUSH AX
2C5D  B8 00 08                  MOV  AX, 0800h
2C60  BA 01 00                  MOV  DX, 0001h
2C63  E8 76 EB                  CALL 17DCh
2C66  2E                        CS:
2C67  A1 C6 2D                  MOV  AX, [2DC6h]
2C6A  05 01 00                  ADD  AX, 0001h
2C6D  A3 E2 52                  MOV  [52E2h], AX
2C70  B8 01 00                  MOV  AX, 0001h
2C73  50                        PUSH AX
2C74  A1 E2 52                  MOV  AX, [52E2h]
2C77  59                        POP  CX
2C78  91                        XCHG AX, CX
2C79  2B C8                     SUB  CX, AX
2C7B  7D 03                     JGE  2C80h
2C7D  E9 22 03                  JMP  2FA2h
2C80  41                        INC  CX
2C81  A3 E6 52                  MOV  [52E6h], AX
2C84  51                        PUSH CX
2C85  E8 D8 67                  CALL 9460h
2C88  3D 00 00                  CMP  AX, 0000h
2C8B  7C 03                     JL   2C90h
2C8D  E9 1D 00                  JMP  2CADh
2C90  BF C3 84                  MOV  DI, 84C3h
2C93  1E                        PUSH DS
2C94  57                        PUSH DI
2C95  E8 32 79                  CALL A5CAh
2C98  91                        XCHG AX, CX
2C99  00 00                     ADD  [BX+SI], AL
2C9B  00 00                     ADD  [BX+SI], AL
2C9D  00 E8                     ADD  AL, CH
2C9F  BF 67 E8                  MOV  DI, E867h
2CA2  D3 7A E8                  SAR  [BP+SI-18h], CL
2CA5  47                        INC  DI
2CA6  79 E8                     JNS  2C90h
2CA8  31 79 E9                  XOR  [BX+DI-17h], DI
2CAB  0E                        PUSH CS
2CAC  00 BF C3 84               ADD  [BX-7B3Dh], BH
2CB0  1E                        PUSH DS
2CB1  57                        PUSH DI
2CB2  E8 AB 67                  CALL 9460h
2CB5  E8 BF 7A                  CALL A777h
2CB8  E8 20 79                  CALL A5DBh
2CBB  BF C3 84                  MOV  DI, 84C3h
2CBE  1E                        PUSH DS
2CBF  E8 F9 78                  CALL A5BBh
2CC2  B8 C0 08                  MOV  AX, 08C0h
2CC5  E8 AF 7A                  CALL A777h
2CC8  E8 F3 79                  CALL A6BEh
2CCB  75 03                     JNZ  2CD0h
2CCD  E9 3B 00                  JMP  2D0Bh
2CD0  A1 E6 52                  MOV  AX, [52E6h]
2CD3  48                        DEC  AX
2CD4  B9 89 13                  MOV  CX, 1389h
2CD7  E8 27 6F                  CALL 9C01h
2CDA  D1 E0                     SHL  AX, 1
2CDC  D1 E0                     SHL  AX, 1
2CDE  97                        XCHG AX, DI
2CDF  81 C7 BE 04               ADD  DI, 04BEh
2CE3  1E                        PUSH DS
2CE4  B9 56 00                  MOV  CX, 0056h
2CE7  E8 55 65                  CALL 923Fh
2CEA  A1 E6 52                  MOV  AX, [52E6h]
2CED  48                        DEC  AX
2CEE  B9 89 13                  MOV  CX, 1389h
2CF1  E8 0D 6F                  CALL 9C01h
2CF4  D1 E0                     SHL  AX, 1
2CF6  D1 E0                     SHL  AX, 1
2CF8  97                        XCHG AX, DI
2CF9  C4 BD BE 04               LES  DI, [DI+04BEh]
2CFD  06                        PUSH ES
2CFE  57                        PUSH DI
2CFF  E8 2B 71                  CALL 9E2Dh
2D02  00 B1 52 E8               ADD  [BX+DI-17AEh], DH
2D06  3B 71 E9                  CMP  SI, [BX+DI-17h]
2D09  8C 02                     MOV  [BP+SI], ES
2D0B  E8 92 84                  CALL B1A0h
2D0E  E8 AC 88                  CALL B5BDh
2D11  E8 56 6F                  CALL 9C6Ah
2D14  E8 89 84                  CALL B1A0h
2D17  E8 8B 88                  CALL B5A5h
2D1A  0D 2A 2A                  OR   AX, 2A2Ah
2D28  E8 92 88                  CALL B5BDh
2D2B  E8 3C 6F                  CALL 9C6Ah
2D2E  E8 6F 84                  CALL B1A0h
2D31  E8 71 88                  CALL B5A5h
2D34  45 20 54 68 65 20 63 6F...  db  "E The combination of Program Size, Memory Allocation for DOS Programs,"
2D7A  E8 40 88                  CALL B5BDh
2D7D  E8 EA 6E                  CALL 9C6Ah
2D80  E8 1D 84                  CALL B1A0h
2D83  E8 1F 88                  CALL B5A5h
2D86  40 20 61 6E 64 20 53 63...  db  "@ and Scroll Back Buffer Size has cause you to run OUT OF MEMORY!"
2DC7  E8 F3 87                  CALL B5BDh
2DCA  E8 9D 6E                  CALL 9C6Ah
2DCD  E8 D0 83                  CALL B1A0h
2DD0  E8 EA 87                  CALL B5BDh
2DD3  E8 94 6E                  CALL 9C6Ah
2DD6  E8 C7 83                  CALL B1A0h
2DD9  E8 C9 87                  CALL B5A5h
2DDC  37 20 43 75 72 72 65 6E...  db  "7 Current Memory Allocation for DOS Programs is set to: ."
2E15  A1 DA 2D                  MOV  AX, [2DDAh]
2E18  50                        PUSH AX
2E19  B8 00 00                  MOV  AX, 0000h
2E1C  E8 E2 86                  CALL B501h
2E1F  B8 4B 00                  MOV  AX, 004Bh
2E22  50                        PUSH AX
2E23  B8 00 00                  MOV  AX, 0000h
2E26  E8 BC 86                  CALL B4E5h
2E29  E8 91 87                  CALL B5BDh
2E2C  E8 3B 6E                  CALL 9C6Ah
2E2F  E8 6E 83                  CALL B1A0h
2E32  E8 70 87                  CALL B5A5h
2E35  2C 20 43 75 72 72 65 6E...  db  ", Current Scroll Back Buffer Size is set to: ."
2E63  A1 C6 2D                  MOV  AX, [2DC6h]
2E66  50                        PUSH AX
2E67  B8 00 00                  MOV  AX, 0000h
2E6A  E8 94 86                  CALL B501h
2E6D  E8 35 87                  CALL B5A5h
2E70  06                        PUSH ES
2E71  20 4C 69 6E 65 73         db  " Lines"
2E77  E8 43 87                  CALL B5BDh
2E7A  E8 ED 6D                  CALL 9C6Ah
2E7D  E8 20 83                  CALL B1A0h
2E80  E8 3A 87                  CALL B5BDh
2E83  E8 E4 6D                  CALL 9C6Ah
2E86  E8 17 83                  CALL B1A0h
2E89  E8 19 87                  CALL B5A5h
2E8C  4C 20 59 6F 75 20 72 61...  db  "L You ran out of memory after the Memory for DOS Programs had been allocated,"
2ED9  E8 E1 86                  CALL B5BDh
2EDC  E8 8B 6D                  CALL 9C6Ah
2EDF  E8 BE 82                  CALL B1A0h
2EE2  E8 C0 86                  CALL B5A5h
2EE5  0B 20                     OR   SP, [BX+SI]
2EF1  A1 E6 52                  MOV  AX, [52E6h]
2EF4  2D 02 00                  SUB  AX, 0002h
2EF7  50                        PUSH AX
2EF8  B8 00 00                  MOV  AX, 0000h
2EFB  E8 03 86                  CALL B501h
2EFE  E8 A4 86                  CALL B5A5h
2F01  30 20 6C 69 6E 65 73 20...  db  "0 lines of Scroll Back Buffer had been allocated."
2F32  E8 88 86                  CALL B5BDh
2F35  E8 32 6D                  CALL 9C6Ah
2F38  E8 65 82                  CALL B1A0h
2F3B  E8 7F 86                  CALL B5BDh
2F3E  E8 29 6D                  CALL 9C6Ah
2F41  E8 5C 82                  CALL B1A0h
2F44  E8 5E 86                  CALL B5A5h
2F47  44 20 55 73 65 20 74 68...  db  "D Use the Command "PackCom /I" to reintialize the Configuration Parms"
2F8C  E8 2E 86                  CALL B5BDh
2F8F  E8 D8 6C                  CALL 9C6Ah
2F92  33 C0                     XOR  AX, AX
2F94  E9 3A 69                  JMP  98D1h
2F9A  07                        POP  ES
2F9B  FF 06 E6 52               INC  [52E6h]
2F9F  E9 E2 FC                  JMP  2C84h
2FA2  2E                        CS:
2FA3  A1 8D 2E                  MOV  AX, [2E8Dh]
2FA6  E8 5A 60                  CALL 9003h
2FA9  2E                        CS:
2FAA  A1 8F 2E                  MOV  AX, [2E8Fh]
2FAD  E8 67 60                  CALL 9017h
2FB0  2E                        CS:
2FB1  A1 97 2E                  MOV  AX, [2E97h]
2FB4  50                        PUSH AX
2FB5  E8 E1 97                  CALL C799h
2FB8  B8 13 00                  MOV  AX, 0013h
2FBB  A3 F0 52                  MOV  [52F0h], AX
2FBE  B8 01 00                  MOV  AX, 0001h
2FC1  50                        PUSH AX
2FC2  A1 F0 52                  MOV  AX, [52F0h]
2FC5  05 01 00                  ADD  AX, 0001h
2FC8  50                        PUSH AX
2FC9  B8 50 00                  MOV  AX, 0050h
2FCC  50                        PUSH AX
2FCD  B8 18 00                  MOV  AX, 0018h
2FD0  50                        PUSH AX
2FD1  E8 59 6E                  CALL 9E2Dh
2FD4  1B 4B 65                  SBB  CX, [BP+DI+65h]
2FF0  B1 46                     MOV  CL, 46h
2FF2  E8 90 6E                  CALL 9E85h
2FF5  E8 46 9E                  CALL CE3Eh
2FF8  B8 00 00                  MOV  AX, 0000h
2FFB  B9 00 00                  MOV  CX, 0000h
2FFE  BA 01 00                  MOV  DX, 0001h
3001  E8 07 6C                  CALL 9C0Bh
3004  A2 9E 91                  MOV  [919Eh], AL
3007  B8 01 00                  MOV  AX, 0001h
300A  A3 EC 52                  MOV  [52ECh], AX
300D  B8 01 00                  MOV  AX, 0001h
3010  A3 E6 52                  MOV  [52E6h], AX
3013  B8 01 00                  MOV  AX, 0001h
3016  A3 E4 52                  MOV  [52E4h], AX
3019  B8 01 00                  MOV  AX, 0001h
301C  A3 E8 52                  MOV  [52E8h], AX
301F  B8 00 00                  MOV  AX, 0000h
3022  B9 00 00                  MOV  CX, 0000h
3025  BA 01 00                  MOV  DX, 0001h
3028  E8 E0 6B                  CALL 9C0Bh
302B  A2 EA 52                  MOV  [52EAh], AL
302E  B8 01 00                  MOV  AX, 0001h
3031  B9 00 00                  MOV  CX, 0000h
3034  BA 01 00                  MOV  DX, 0001h
3037  E8 D1 6B                  CALL 9C0Bh
303A  A2 EB 52                  MOV  [52EBh], AL
303D  B8 01 00                  MOV  AX, 0001h
3040  B9 00 00                  MOV  CX, 0000h
3043  BA 01 00                  MOV  DX, 0001h
3046  E8 C2 6B                  CALL 9C0Bh
3049  A2 9F 91                  MOV  [919Fh], AL
304C  B8 01 00                  MOV  AX, 0001h
304F  B9 00 00                  MOV  CX, 0000h
3052  BA 01 00                  MOV  DX, 0001h
3055  E8 B3 6B                  CALL 9C0Bh
3058  A2 A1 91                  MOV  [91A1h], AL
305B  B8 00 00                  MOV  AX, 0000h
305E  A3 A6 92                  MOV  [92A6h], AX
3061  B8 01 00                  MOV  AX, 0001h
3064  50                        PUSH AX
3065  B8 28 00                  MOV  AX, 0028h
3068  59                        POP  CX
3069  91                        XCHG AX, CX
306A  2B C8                     SUB  CX, AX
306C  7D 03                     JGE  3071h
306E  E9 50 00                  JMP  30C1h
3071  41                        INC  CX
3072  A3 DD 59                  MOV  [59DDh], AX
3075  51                        PUSH CX
3076  A1 DD 59                  MOV  AX, [59DDh]
3079  48                        DEC  AX
307A  B9 28 00                  MOV  CX, 0028h
307D  E8 81 6B                  CALL 9C01h
3080  B9 FF 00                  MOV  CX, 00FFh
3083  F7 E1                     MUL  CX
3085  97                        XCHG AX, DI
3086  B8 0D 00                  MOV  AX, 000Dh
3089  B9 00 00                  MOV  CX, 0000h
308C  BA FF 00                  MOV  DX, 00FFh
308F  E8 79 6B                  CALL 9C0Bh
3092  88 85 E1 59               MOV  [DI+59E1h], AL
3096  A1 DD 59                  MOV  AX, [59DDh]
3099  48                        DEC  AX
309A  B9 28 00                  MOV  CX, 0028h
309D  E8 61 6B                  CALL 9C01h
30A0  B9 FF 00                  MOV  CX, 00FFh
30A3  F7 E1                     MUL  CX
30A5  97                        XCHG AX, DI
30A6  B8 FF 00                  MOV  AX, 00FFh
30A9  B9 00 00                  MOV  CX, 0000h
30AC  BA FF 00                  MOV  DX, 00FFh
30AF  E8 59 6B                  CALL 9C0Bh
30B2  88 85 E2 59               MOV  [DI+59E2h], AL
30B9  07                        POP  ES
30BA  FF 06 DD 59               INC  [59DDh]
30BE  E9 B4 FF                  JMP  3075h
30C1  B8 01 00                  MOV  AX, 0001h
30C4  A3 DF 59                  MOV  [59DFh], AX
30C7  B8 01 00                  MOV  AX, 0001h
30CA  A3 DD 59                  MOV  [59DDh], AX
30CD  B8 00 00                  MOV  AX, 0000h
30D0  B9 00 00                  MOV  CX, 0000h
30D3  BA 01 00                  MOV  DX, 0001h
30D6  E8 32 6B                  CALL 9C0Bh
30D9  A2 B9 81                  MOV  [81B9h], AL
30DC  B8 00 00                  MOV  AX, 0000h
30DF  B9 00 00                  MOV  CX, 0000h
30E2  BA FF 00                  MOV  DX, 00FFh
30E5  E8 23 6B                  CALL 9C0Bh
30E8  A2 BA 81                  MOV  [81BAh], AL
30EB  B8 00 00                  MOV  AX, 0000h
30EE  B9 00 00                  MOV  CX, 0000h
30F1  BA 03 00                  MOV  DX, 0003h
30F4  E8 14 6B                  CALL 9C0Bh
30F7  A2 BD 84                  MOV  [84BDh], AL
30FA  B8 00 00                  MOV  AX, 0000h
30FD  50                        PUSH AX
30FE  B8 02 00                  MOV  AX, 0002h
3101  59                        POP  CX
3102  91                        XCHG AX, CX
3103  2B C8                     SUB  CX, AX
3105  7D 03                     JGE  310Ah
3107  E9 38 00                  JMP  3142h
310A  41                        INC  CX
310B  A3 BB 84                  MOV  [84BBh], AX
310E  51                        PUSH CX
310F  A1 BB 84                  MOV  AX, [84BBh]
3112  B9 03 00                  MOV  CX, 0003h
3115  E8 E9 6A                  CALL 9C01h
3118  B9 00 01                  MOV  CX, 0100h
311B  F7 E1                     MUL  CX
311D  97                        XCHG AX, DI
311E  81 C7 BB 81               ADD  DI, 81BBh
3122  1E                        PUSH DS
3123  57                        PUSH DI
3124  E8 06 6D                  CALL 9E2Dh
3127  0A 21                     OR   AH, [BX+DI]
3132  B1 FF                     MOV  CL, FFh
3134  E8 0C 6D                  CALL 9E43h
313A  07                        POP  ES
313B  FF 06 BB 84               INC  [84BBh]
313F  E9 CC FF                  JMP  310Eh
3142  B8 00 00                  MOV  AX, 0000h
3145  A3 BB 84                  MOV  [84BBh], AX
3148  B8 00 00                  MOV  AX, 0000h
314B  B9 00 00                  MOV  CX, 0000h
314E  BA 01 00                  MOV  DX, 0001h
3151  E8 B7 6A                  CALL 9C0Bh
3154  A2 A4 04                  MOV  [04A4h], AL
3157  BF A8 04                  MOV  DI, 04A8h
315A  1E                        PUSH DS
315B  57                        PUSH DI
315C  B8 00 02                  MOV  AX, 0200h
315F  50                        PUSH AX
3160  E8 67 74                  CALL A5CAh
3163  88 00                     MOV  [BX+SI], AL
3165  00 00                     ADD  [BX+SI], AL
3167  00 00                     ADD  [BX+SI], AL
3169  E8 14 76                  CALL A780h
316C  E8 B8 74                  CALL A627h
316F  E8 58 74                  CALL A5CAh
3172  80 B4 C8 76 BE            XOR  [SI+76C8h], BEh
3177  7F E8                     JG   3161h
3179  73 74                     JNB  31EFh
317B  E8 5D 74                  CALL A5DBh
317E  BF A8 04                  MOV  DI, 04A8h
3181  1E                        PUSH DS
3182  E8 36 74                  CALL A5BBh
3185  E8 BA 75                  CALL A742h
3188  A3 AE 04                  MOV  [04AEh], AX
318B  B8 00 00                  MOV  AX, 0000h
318E  B9 00 00                  MOV  CX, 0000h
3191  BA 01 00                  MOV  DX, 0001h
3194  E8 74 6A                  CALL 9C0Bh
3197  A2 B8 04                  MOV  [04B8h], AL
319A  B8 00 00                  MOV  AX, 0000h
319D  B9 00 00                  MOV  CX, 0000h
31A0  BA 01 00                  MOV  DX, 0001h
31A3  E8 65 6A                  CALL 9C0Bh
31A6  A2 5A 58                  MOV  [585Ah], AL
31A9  B8 00 00                  MOV  AX, 0000h
31AC  B9 00 00                  MOV  CX, 0000h
31AF  BA 01 00                  MOV  DX, 0001h
31B2  E8 56 6A                  CALL 9C0Bh
31B5  A2 5B 58                  MOV  [585Bh], AL
31B8  B8 10 27                  MOV  AX, 2710h
31BB  A3 D9 59                  MOV  [59D9h], AX
31BE  B8 00 00                  MOV  AX, 0000h
31C1  A3 C7 59                  MOV  [59C7h], AX
31C4  B8 00 00                  MOV  AX, 0000h
31C7  A3 C9 59                  MOV  [59C9h], AX
31CA  BF CB 59                  MOV  DI, 59CBh
31CD  1E                        PUSH DS
31CE  57                        PUSH DI
31CF  E8 F8 73                  CALL A5CAh
31D2  59                        POP  CX
31D3  6F                        ???
31D4  09 CC                     OR   SP, CX
31D6  BC 0C E8                  MOV  SP, E80Ch
31D9  00 74 BF                  ADD  [SI-41h], DH
31DC  68                        ???
31DD  02 1E B9 00               ADD  BL, [00B9h]
31E1  28 E8                     SUB  AL, CH
31E3  5A                        POP  DX
31E4  60                        ???
31E5  BF 74 02                  MOV  DI, 0274h
31E8  1E                        PUSH DS
31E9  B9 00 02                  MOV  CX, 0200h
31EC  E8 50 60                  CALL 923Fh
31EF  BF BA 04                  MOV  DI, 04BAh
31F2  1E                        PUSH DS
31F3  B9 A8 0C                  MOV  CX, 0CA8h
31F6  E8 46 60                  CALL 923Fh
31F9  B8 01 00                  MOV  AX, 0001h
31FC  A3 6C 02                  MOV  [026Ch], AX
31FF  B8 01 00                  MOV  AX, 0001h
3202  A3 6E 02                  MOV  [026Eh], AX
3205  B8 00 00                  MOV  AX, 0000h
3208  A3 66 02                  MOV  [0266h], AX
320B  B8 01 00                  MOV  AX, 0001h
320E  A3 78 02                  MOV  [0278h], AX
3211  B8 01 00                  MOV  AX, 0001h
3214  A3 7A 02                  MOV  [027Ah], AX
3217  B8 01 00                  MOV  AX, 0001h
321A  A3 95 02                  MOV  [0295h], AX
321D  B8 00 02                  MOV  AX, 0200h
3220  BA 09 00                  MOV  DX, 0009h
3223  E8 B6 E5                  CALL 17DCh
3226  E8 6A E0                  CALL 1293h
3229  8C D8                     MOV  AX, DS
322B  2E                        CS:
322C  A3 A9 2D                  MOV  [2DA9h], AX
322F  2E                        CS:
3230  A1 A5 2D                  MOV  AX, [2DA5h]
3233  A3 39 58                  MOV  [5839h], AX
3236  2E                        CS:
3237  A1 9F 2D                  MOV  AX, [2D9Fh]
323A  A3 3B 58                  MOV  [583Bh], AX
323D  2E                        CS:
323E  A1 A1 2D                  MOV  AX, [2DA1h]
3241  A3 3D 58                  MOV  [583Dh], AX
3244  2E                        CS:
3245  A1 A3 2D                  MOV  AX, [2DA3h]
3248  A3 3F 58                  MOV  [583Fh], AX
324B  A1 39 58                  MOV  AX, [5839h]
324E  50                        PUSH AX
324F  A1 3B 58                  MOV  AX, [583Bh]
3252  50                        PUSH AX
3253  A1 3D 58                  MOV  AX, [583Dh]
3256  50                        PUSH AX
3257  A1 3F 58                  MOV  AX, [583Fh]
325A  50                        PUSH AX
325B  B8 00 02                  MOV  AX, 0200h
325E  BA 20 00                  MOV  DX, 0020h
3261  E8 78 E5                  CALL 17DCh
3264  B8 00 03                  MOV  AX, 0300h
3267  BA 1D 00                  MOV  DX, 001Dh
326A  E8 6F E5                  CALL 17DCh
326D  B8 00 00                  MOV  AX, 0000h
3270  B9 00 00                  MOV  CX, 0000h
3273  BA 01 00                  MOV  DX, 0001h
3276  E8 92 69                  CALL 9C0Bh
3279  A2 B9 04                  MOV  [04B9h], AL
327C  B8 00 00                  MOV  AX, 0000h
327F  B9 00 00                  MOV  CX, 0000h
3282  BA 01 00                  MOV  DX, 0001h
3285  E8 83 69                  CALL 9C0Bh
3288  A2 59 58                  MOV  [5859h], AL
328B  B8 50 00                  MOV  AX, 0050h
328E  A3 F2 52                  MOV  [52F2h], AX
3291  A1 6E 02                  MOV  AX, [026Eh]
3294  A3 6C 02                  MOV  [026Ch], AX
3297  A1 7A 02                  MOV  AX, [027Ah]
329A  A3 78 02                  MOV  [0278h], AX
329D  E8 1C 9B                  CALL CDBCh
32A0  2E                        CS:
32A1  A1 91 2E                  MOV  AX, [2E91h]
32A4  E8 5C 5D                  CALL 9003h
32A7  2E                        CS:
32A8  A1 93 2E                  MOV  AX, [2E93h]
32AB  E8 69 5D                  CALL 9017h
32AE  B8 01 00                  MOV  AX, 0001h
32B1  50                        PUSH AX
32B2  B8 19 00                  MOV  AX, 0019h
32B5  E8 3A 67                  CALL 99F2h
32B8  E8 E5 7E                  CALL B1A0h
32BB  81 EC 00 01               SUB  SP, 0100h
32BF  B8 04 00                  MOV  AX, 0004h
32C2  50                        PUSH AX
32C3  B8 20 00                  MOV  AX, 0020h
32C6  B9 00 00                  MOV  CX, 0000h
32C9  BA FF 00                  MOV  DX, 00FFh
32CC  E8 3C 69                  CALL 9C0Bh
32CF  50                        PUSH AX
32D0  E8 0E 89                  CALL BBE1h
32D3  B8 00 00                  MOV  AX, 0000h
32D6  E8 95 82                  CALL B56Eh
32D9  E8 8E 69                  CALL 9C6Ah
32DC  2E                        CS:
32DD  A1 8D 2E                  MOV  AX, [2E8Dh]
32E0  E8 20 5D                  CALL 9003h
32E3  2E                        CS:
32E4  A1 8F 2E                  MOV  AX, [2E8Fh]
32E7  E8 2D 5D                  CALL 9017h
32EA  E8 1B 9B                  CALL CE08h
32ED  E8 00 88                  CALL BAF0h
32F0  E8 9B B2                  CALL E58Eh
32F3  B8 4C 04                  MOV  AX, 044Ch
32F6  E8 62 5B                  CALL 8E5Bh
32F9  E9 00 00                  JMP  32FCh
32FC  8B E5                     MOV  SP, BP
32FE  5D                        POP  BP
32FF  C3                        RET
3300  00 00                     ADD  [BX+SI], AL
3302  00 00                     ADD  [BX+SI], AL
3304  00 00                     ADD  [BX+SI], AL
3306  00 00                     ADD  [BX+SI], AL
3308  00 00                     ADD  [BX+SI], AL
330A  00 00                     ADD  [BX+SI], AL
330C  00 00                     ADD  [BX+SI], AL
330E  00 00                     ADD  [BX+SI], AL
3310  00 00                     ADD  [BX+SI], AL
3312  00 00                     ADD  [BX+SI], AL
3314  00 00                     ADD  [BX+SI], AL
3316  00 00                     ADD  [BX+SI], AL
3318  00 00                     ADD  [BX+SI], AL
331A  00 00                     ADD  [BX+SI], AL
331C  00 00                     ADD  [BX+SI], AL
331E  00 00                     ADD  [BX+SI], AL
3320  00 00                     ADD  [BX+SI], AL
3322  00 00                     ADD  [BX+SI], AL
3324  00 00                     ADD  [BX+SI], AL
3326  00 00                     ADD  [BX+SI], AL
3328  00 00                     ADD  [BX+SI], AL
332A  00 00                     ADD  [BX+SI], AL
332C  00 00                     ADD  [BX+SI], AL
332E  00 00                     ADD  [BX+SI], AL
3330  00 00                     ADD  [BX+SI], AL
3332  00 00                     ADD  [BX+SI], AL
3334  00 00                     ADD  [BX+SI], AL
3336  00 00                     ADD  [BX+SI], AL
3338  00 00                     ADD  [BX+SI], AL
333A  00 00                     ADD  [BX+SI], AL
333C  00 00                     ADD  [BX+SI], AL
333E  00 00                     ADD  [BX+SI], AL
3340  00 00                     ADD  [BX+SI], AL
3342  00 00                     ADD  [BX+SI], AL
3344  00 00                     ADD  [BX+SI], AL
3346  00 00                     ADD  [BX+SI], AL
3348  00 00                     ADD  [BX+SI], AL
334A  00 00                     ADD  [BX+SI], AL
334C  00 00                     ADD  [BX+SI], AL
334E  00 00                     ADD  [BX+SI], AL
3350  00 00                     ADD  [BX+SI], AL
3352  00 00                     ADD  [BX+SI], AL
3354  00 00                     ADD  [BX+SI], AL
3356  00 00                     ADD  [BX+SI], AL
3358  00 00                     ADD  [BX+SI], AL
335A  00 00                     ADD  [BX+SI], AL
335C  00 00                     ADD  [BX+SI], AL
335E  00 00                     ADD  [BX+SI], AL
3360  00 00                     ADD  [BX+SI], AL
3362  00 00                     ADD  [BX+SI], AL
3364  00 00                     ADD  [BX+SI], AL
3366  00 00                     ADD  [BX+SI], AL
3368  00 00                     ADD  [BX+SI], AL
336A  00 00                     ADD  [BX+SI], AL
336C  00 00                     ADD  [BX+SI], AL
336E  00 00                     ADD  [BX+SI], AL
3370  00 00                     ADD  [BX+SI], AL
3372  00 00                     ADD  [BX+SI], AL
3374  00 00                     ADD  [BX+SI], AL
3376  00 00                     ADD  [BX+SI], AL
3378  00 00                     ADD  [BX+SI], AL
337A  00 00                     ADD  [BX+SI], AL
337C  00 00                     ADD  [BX+SI], AL
337E  00 00                     ADD  [BX+SI], AL
3380  00 00                     ADD  [BX+SI], AL
3382  00 00                     ADD  [BX+SI], AL
3384  00 00                     ADD  [BX+SI], AL
3386  00 00                     ADD  [BX+SI], AL
3388  00 00                     ADD  [BX+SI], AL
338A  00 00                     ADD  [BX+SI], AL
338C  00 00                     ADD  [BX+SI], AL
338E  00 00                     ADD  [BX+SI], AL
3390  00 00                     ADD  [BX+SI], AL
3392  00 00                     ADD  [BX+SI], AL
3394  00 00                     ADD  [BX+SI], AL
3396  00 00                     ADD  [BX+SI], AL
3398  00 00                     ADD  [BX+SI], AL
339A  00 00                     ADD  [BX+SI], AL
339C  00 00                     ADD  [BX+SI], AL
339E  00 00                     ADD  [BX+SI], AL
33A0  00 00                     ADD  [BX+SI], AL
33A2  00 00                     ADD  [BX+SI], AL
33A4  00 00                     ADD  [BX+SI], AL
33A6  00 00                     ADD  [BX+SI], AL
33A8  00 00                     ADD  [BX+SI], AL
33AA  00 00                     ADD  [BX+SI], AL
33AC  00 00                     ADD  [BX+SI], AL
33AE  00 00                     ADD  [BX+SI], AL
33B0  00 00                     ADD  [BX+SI], AL
33B2  00 00                     ADD  [BX+SI], AL
33B4  00 00                     ADD  [BX+SI], AL
33B6  00 00                     ADD  [BX+SI], AL
33B8  00 00                     ADD  [BX+SI], AL
33BA  00 00                     ADD  [BX+SI], AL
33BC  00 00                     ADD  [BX+SI], AL
33BE  00 00                     ADD  [BX+SI], AL
33C0  00 00                     ADD  [BX+SI], AL
33C2  00 00                     ADD  [BX+SI], AL
33C4  00 00                     ADD  [BX+SI], AL
33C6  00 00                     ADD  [BX+SI], AL
33C8  00 00                     ADD  [BX+SI], AL
33CA  00 00                     ADD  [BX+SI], AL
33CC  00 00                     ADD  [BX+SI], AL
33CE  00 00                     ADD  [BX+SI], AL
33D0  00 00                     ADD  [BX+SI], AL
33D2  00 00                     ADD  [BX+SI], AL
33D4  00 00                     ADD  [BX+SI], AL
33D6  00 00                     ADD  [BX+SI], AL
33D8  00 00                     ADD  [BX+SI], AL
33DA  00 00                     ADD  [BX+SI], AL
33DC  00 00                     ADD  [BX+SI], AL
33DE  00 00                     ADD  [BX+SI], AL
33E0  00 00                     ADD  [BX+SI], AL
33E2  00 00                     ADD  [BX+SI], AL
33E4  00 00                     ADD  [BX+SI], AL
33E6  00 00                     ADD  [BX+SI], AL
33E8  00 00                     ADD  [BX+SI], AL
33EA  00 00                     ADD  [BX+SI], AL
33EC  00 00                     ADD  [BX+SI], AL
33EE  00 00                     ADD  [BX+SI], AL
33F0  00 00                     ADD  [BX+SI], AL
33F2  00 00                     ADD  [BX+SI], AL
33F4  00 00                     ADD  [BX+SI], AL
33F6  00 00                     ADD  [BX+SI], AL
33F8  00 00                     ADD  [BX+SI], AL
33FA  00 00                     ADD  [BX+SI], AL
33FC  00 00                     ADD  [BX+SI], AL
33FE  00 00                     ADD  [BX+SI], AL
3400  E8 11 6F                  CALL A314h
3403  C5 03                     LDS  AX, [BP+DI]
3405  BF 9D 55                  MOV  DI, 559Dh
3408  8B EC                     MOV  BP, SP
340A  55                        PUSH BP
340B  E9 00 00                  JMP  340Eh
340E  B8 0D 00                  MOV  AX, 000Dh
3411  50                        PUSH AX
3412  B8 07 00                  MOV  AX, 0007h
3415  50                        PUSH AX
3416  B8 40 00                  MOV  AX, 0040h
3419  50                        PUSH AX
341A  B8 12 00                  MOV  AX, 0012h
341D  50                        PUSH AX
341E  E8 0C 74                  CALL A82Dh
3421  15 43 68                  ADC  AX, 6843h
3437  B1 46                     MOV  CL, 46h
3439  E8 49 74                  CALL A885h
343C  E8 C0 A0                  CALL D4FFh
343F  E8 5E 87                  CALL BBA0h
3442  E8 78 8B                  CALL BFBDh
3445  E8 22 72                  CALL A66Ah
3448  E8 55 87                  CALL BBA0h
344B  E8 57 8B                  CALL BFA5h
344E  15 20 20                  ADC  AX, 2020h
3464  A1 39 58                  MOV  AX, [5839h]
3467  50                        PUSH AX
3468  B8 04 00                  MOV  AX, 0004h
346B  E8 93 8A                  CALL BF01h
346E  E8 F9 71                  CALL A66Ah
3471  A1 3F 58                  MOV  AX, [583Fh]
3474  3D 00 00                  CMP  AX, 0000h
3477  74 03                     JZ   347Ch
3479  E9 0F 00                  JMP  348Bh
347C  E8 21 87                  CALL BBA0h
347F  E8 23 8B                  CALL BFA5h
3482  02 20                     ADD  AH, [BX+SI]
3484  4E                        DEC  SI
3485  E8 E2 71                  CALL A66Ah
3488  E9 2B 00                  JMP  34B6h
348B  3D 01 00                  CMP  AX, 0001h
348E  74 03                     JZ   3493h
3490  E9 0F 00                  JMP  34A2h
3493  E8 0A 87                  CALL BBA0h
3496  E8 0C 8B                  CALL BFA5h
3499  02 20                     ADD  AH, [BX+SI]
349B  45                        INC  BP
349C  E8 CB 71                  CALL A66Ah
349F  E9 14 00                  JMP  34B6h
34A2  3D 02 00                  CMP  AX, 0002h
34A5  74 03                     JZ   34AAh
34A7  E9 0C 00                  JMP  34B6h
34AA  E8 F3 86                  CALL BBA0h
34AD  E8 F5 8A                  CALL BFA5h
34B0  02 20                     ADD  AH, [BX+SI]
34B2  4F                        DEC  DI
34B3  E8 B4 71                  CALL A66Ah
34B6  E8 E7 86                  CALL BBA0h
34B9  A1 3D 58                  MOV  AX, [583Dh]
34BC  50                        PUSH AX
34BD  B8 02 00                  MOV  AX, 0002h
34C0  E8 3E 8A                  CALL BF01h
34C3  A1 3B 58                  MOV  AX, [583Bh]
34C6  50                        PUSH AX
34C7  B8 02 00                  MOV  AX, 0002h
34CA  E8 34 8A                  CALL BF01h
34CD  E8 ED 8A                  CALL BFBDh
34D0  E8 97 71                  CALL A66Ah
34D3  E8 CA 86                  CALL BBA0h
34D6  E8 E4 8A                  CALL BFBDh
34D9  E8 8E 71                  CALL A66Ah
34DC  E8 C1 86                  CALL BBA0h
34DF  E8 C3 8A                  CALL BFA5h
34E2  1C 20                     SBB  AL, 20h
34FF  E8 BB 8A                  CALL BFBDh
3502  E8 65 71                  CALL A66Ah
3505  E8 98 86                  CALL BBA0h
3508  E8 9A 8A                  CALL BFA5h
350B  1C 20                     SBB  AL, 20h
3528  E8 92 8A                  CALL BFBDh
352B  E8 3C 71                  CALL A66Ah
352E  E8 6F 86                  CALL BBA0h
3531  E8 71 8A                  CALL BFA5h
3534  29 20 20 20 20 42 61 75...  db  ")    Baud Rate, 300,1200,2400,4800,9600 : "
355E  E8 09 71                  CALL A66Ah
3561  E8 6B 86                  CALL BBCFh
3564  BF 9B 59                  MOV  DI, 599Bh
3567  1E                        PUSH DS
3568  B1 0A                     MOV  CL, 0Ah
356A  E8 8E 88                  CALL BDFBh
356D  E8 FA 70                  CALL A66Ah
3570  BF 9B 59                  MOV  DI, 599Bh
3573  1E                        PUSH DS
3574  E8 9D 72                  CALL A814h
3577  E8 4C 74                  CALL A9C6h
357A  3D 00 00                  CMP  AX, 0000h
357D  7F 03                     JG   3582h
357F  E9 55 00                  JMP  35D7h
3582  4C                        DEC  SP
3583  4C                        DEC  SP
3584  BF 9B 59                  MOV  DI, 599Bh
3587  1E                        PUSH DS
3588  E8 89 72                  CALL A814h
358B  B1 FF                     MOV  CL, FFh
358D  E8 F5 72                  CALL A885h
3590  E8 C6 90                  CALL C659h
3593  A3 39 58                  MOV  [5839h], AX
3596  A1 39 58                  MOV  AX, [5839h]
359B  01 74 03                  ADD  [SI+03h], SI
359E  E9 03 00                  JMP  35A4h
35A1  E9 33 00                  JMP  35D7h
35A4  3D B0 04                  CMP  AX, 04B0h
35A7  74 03                     JZ   35ACh
35A9  E9 03 00                  JMP  35AFh
35AC  E9 28 00                  JMP  35D7h
35AF  3D 60 09                  CMP  AX, 0960h
35B2  74 03                     JZ   35B7h
35B4  E9 03 00                  JMP  35BAh
35B7  E9 1D 00                  JMP  35D7h
35BA  3D C0 12                  CMP  AX, 12C0h
35BD  74 03                     JZ   35C2h
35BF  E9 03 00                  JMP  35C5h
35C2  E9 12 00                  JMP  35D7h
35C5  3D 80 25                  CMP  AX, 2580h
35C8  74 03                     JZ   35CDh
35CA  E9 03 00                  JMP  35D0h
35CD  E9 07 00                  JMP  35D7h
35D0  2E                        CS:
35D1  A1 A5 2D                  MOV  AX, [2DA5h]
35D4  A3 39 58                  MOV  [5839h], AX
35D7  E8 C6 85                  CALL BBA0h
35DA  E8 C8 89                  CALL BFA5h
35DD  29 20 20 20 20 50 61 72...  db  ")    Parity, (N)one, (E)ven, (O)dd      : "
3607  E8 60 70                  CALL A66Ah
360A  E8 C2 85                  CALL BBCFh
360D  BF 90 59                  MOV  DI, 5990h
3610  1E                        PUSH DS
3611  B1 0A                     MOV  CL, 0Ah
3613  E8 E5 87                  CALL BDFBh
3616  E8 51 70                  CALL A66Ah
3619  BF 90 59                  MOV  DI, 5990h
361C  1E                        PUSH DS
361D  E8 F4 71                  CALL A814h
3620  E8 A3 73                  CALL A9C6h
3623  3D 00 00                  CMP  AX, 0000h
3626  7F 03                     JG   362Bh
3628  E9 5A 00                  JMP  3685h
362B  BF 90 59                  MOV  DI, 5990h
362E  1E                        PUSH DS
362F  57                        PUSH DI
3630  A0 91 59                  MOV  AL, [5991h]
3633  32 E4                     XOR  AH, AH
3635  E8 7E 63                  CALL 99B6h
3638  8A E0                     MOV  AH, AL
363A  B0 01                     MOV  AL, 01h
363C  50                        PUSH AX
363D  B1 0A                     MOV  CL, 0Ah
363F  E8 01 72                  CALL A843h
3642  BF 90 59                  MOV  DI, 5990h
3645  1E                        PUSH DS
3646  E8 CB 71                  CALL A814h
3649  E8 6C 74                  CALL AAB8h
364E  00 74 03                  ADD  [SI+03h], DH
3651  E9 09 00                  JMP  365Dh
3654  B8 00 00                  MOV  AX, 0000h
3657  A3 3F 58                  MOV  [583Fh], AX
365A  E9 28 00                  JMP  3685h
365D  3D 45 00                  CMP  AX, 0045h
3660  74 03                     JZ   3665h
3662  E9 09 00                  JMP  366Eh
3665  B8 01 00                  MOV  AX, 0001h
3668  A3 3F 58                  MOV  [583Fh], AX
366B  E9 17 00                  JMP  3685h
366E  3D 4F 00                  CMP  AX, 004Fh
3671  74 03                     JZ   3676h
3673  E9 09 00                  JMP  367Fh
3676  B8 02 00                  MOV  AX, 0002h
3679  A3 3F 58                  MOV  [583Fh], AX
367C  E9 06 00                  JMP  3685h
367F  B8 00 00                  MOV  AX, 0000h
3682  A3 3F 58                  MOV  [583Fh], AX
3685  E8 18 85                  CALL BBA0h
3688  E8 1A 89                  CALL BFA5h
368B  29 20 20 20 20 44 61 74...  db  ")    Data Bits, 7 or 8                  : "
36B5  E8 B2 6F                  CALL A66Ah
36B8  E8 14 85                  CALL BBCFh
36BB  BF B1 59                  MOV  DI, 59B1h
36BE  1E                        PUSH DS
36BF  B1 0A                     MOV  CL, 0Ah
36C1  E8 37 87                  CALL BDFBh
36C4  E8 A3 6F                  CALL A66Ah
36C7  BF B1 59                  MOV  DI, 59B1h
36CA  1E                        PUSH DS
36CB  E8 46 71                  CALL A814h
36CE  E8 F5 72                  CALL A9C6h
36D1  3D 00 00                  CMP  AX, 0000h
36D4  7F 03                     JG   36D9h
36D6  E9 33 00                  JMP  370Ch
36D9  4C                        DEC  SP
36DA  4C                        DEC  SP
36DB  BF B1 59                  MOV  DI, 59B1h
36DE  1E                        PUSH DS
36DF  E8 32 71                  CALL A814h
36E2  B1 FF                     MOV  CL, FFh
36E4  E8 9E 71                  CALL A885h
36E7  E8 6F 8F                  CALL C659h
36EA  A3 3D 58                  MOV  [583Dh], AX
36ED  A1 3D 58                  MOV  AX, [583Dh]
36F0  3D 07 00                  CMP  AX, 0007h
36F3  74 03                     JZ   36F8h
36F5  E9 03 00                  JMP  36FBh
36F8  E9 11 00                  JMP  370Ch
36FB  3D 08 00                  CMP  AX, 0008h
36FE  74 03                     JZ   3703h
3700  E9 03 00                  JMP  3706h
3703  E9 06 00                  JMP  370Ch
3706  B8 08 00                  MOV  AX, 0008h
3709  A3 3D 58                  MOV  [583Dh], AX
370C  E8 91 84                  CALL BBA0h
370F  E8 93 88                  CALL BFA5h
3712  29 20 20 20 20 53 74 6F...  db  ")    Stop Bits, 1 or 2                  : "
373C  E8 2B 6F                  CALL A66Ah
373F  E8 8D 84                  CALL BBCFh
3742  BF A6 59                  MOV  DI, 59A6h
3745  1E                        PUSH DS
3746  B1 0A                     MOV  CL, 0Ah
3748  E8 B0 86                  CALL BDFBh
374B  E8 1C 6F                  CALL A66Ah
374E  BF A6 59                  MOV  DI, 59A6h
3751  1E                        PUSH DS
3752  E8 BF 70                  CALL A814h
3755  E8 6E 72                  CALL A9C6h
3758  3D 00 00                  CMP  AX, 0000h
375B  7F 03                     JG   3760h
375D  E9 33 00                  JMP  3793h
3760  4C                        DEC  SP
3761  4C                        DEC  SP
3762  BF A6 59                  MOV  DI, 59A6h
3765  1E                        PUSH DS
3766  E8 AB 70                  CALL A814h
3769  B1 FF                     MOV  CL, FFh
376B  E8 17 71                  CALL A885h
376E  E8 E8 8E                  CALL C659h
3771  A3 3B 58                  MOV  [583Bh], AX
3774  A1 3B 58                  MOV  AX, [583Bh]
3777  3D 01 00                  CMP  AX, 0001h
377A  74 03                     JZ   377Fh
377C  E9 03 00                  JMP  3782h
377F  E9 11 00                  JMP  3793h
3782  3D 02 00                  CMP  AX, 0002h
3785  74 03                     JZ   378Ah
3787  E9 03 00                  JMP  378Dh
378A  E9 06 00                  JMP  3793h
378D  B8 01 00                  MOV  AX, 0001h
3790  A3 3B 58                  MOV  [583Bh], AX
3793  B8 00 01                  MOV  AX, 0100h
3796  BA 22 00                  MOV  DX, 0022h
3799  E8 40 EA                  CALL 21DCh
379C  A1 39 58                  MOV  AX, [5839h]
379F  50                        PUSH AX
37A0  A1 3B 58                  MOV  AX, [583Bh]
37A3  50                        PUSH AX
37A4  A1 3D 58                  MOV  AX, [583Dh]
37A7  50                        PUSH AX
37A8  A1 3F 58                  MOV  AX, [583Fh]
37AB  50                        PUSH AX
37AC  B8 00 02                  MOV  AX, 0200h
37AF  BA 20 00                  MOV  DX, 0020h
37B2  E8 27 EA                  CALL 21DCh
37B5  B8 00 03                  MOV  AX, 0300h
37B8  BA 1D 00                  MOV  DX, 001Dh
37BB  E8 1E EA                  CALL 21DCh
37BE  E8 F1 9E                  CALL D6B2h
37C1  E9 00 00                  JMP  37C4h
37C4  8B E5                     MOV  SP, BP
37C6  5D                        POP  BP
37C7  C3                        RET
37C8  00 00                     ADD  [BX+SI], AL
37CA  00 00                     ADD  [BX+SI], AL
37CC  00 00                     ADD  [BX+SI], AL
37CE  00 00                     ADD  [BX+SI], AL
37D0  00 00                     ADD  [BX+SI], AL
37D2  00 00                     ADD  [BX+SI], AL
37D4  00 00                     ADD  [BX+SI], AL
37D6  00 00                     ADD  [BX+SI], AL
37D8  00 00                     ADD  [BX+SI], AL
37DA  00 00                     ADD  [BX+SI], AL
37DC  00 00                     ADD  [BX+SI], AL
37DE  00 00                     ADD  [BX+SI], AL
37E0  00 00                     ADD  [BX+SI], AL
37E2  00 00                     ADD  [BX+SI], AL
37E4  00 00                     ADD  [BX+SI], AL
37E6  00 00                     ADD  [BX+SI], AL
37E8  00 00                     ADD  [BX+SI], AL
37EA  00 00                     ADD  [BX+SI], AL
37EC  00 00                     ADD  [BX+SI], AL
37EE  00 00                     ADD  [BX+SI], AL
37F0  00 00                     ADD  [BX+SI], AL
37F2  00 00                     ADD  [BX+SI], AL
37F4  00 00                     ADD  [BX+SI], AL
37F6  00 00                     ADD  [BX+SI], AL
37F8  00 00                     ADD  [BX+SI], AL
37FA  00 00                     ADD  [BX+SI], AL
37FC  00 00                     ADD  [BX+SI], AL
37FE  00 00                     ADD  [BX+SI], AL
3800  E8 11 6F                  CALL A714h
3803  BA 00 BF                  MOV  DX, BF00h
3806  9D                        POPF
3807  55                        PUSH BP
3808  8B EC                     MOV  BP, SP
380A  55                        PUSH BP
380B  E9 00 00                  JMP  380Eh
380E  B8 00 01                  MOV  AX, 0100h
3811  BA 22 00                  MOV  DX, 0022h
3814  E8 C5 ED                  CALL 25DCh
3817  BF BA 04                  MOV  DI, 04BAh
381A  1E                        PUSH DS
381B  B9 A8 0C                  MOV  CX, 0CA8h
381E  E8 ED 68                  CALL A10Eh
3821  BF 74 02                  MOV  DI, 0274h
3824  1E                        PUSH DS
3825  B9 00 02                  MOV  CX, 0200h
3828  E8 E3 68                  CALL A10Eh
382B  BF 68 02                  MOV  DI, 0268h
382E  1E                        PUSH DS
382F  B9 00 28                  MOV  CX, 2800h
3832  E8 D9 68                  CALL A10Eh
3835  B8 01 00                  MOV  AX, 0001h
3838  50                        PUSH AX
3839  A1 E2 52                  MOV  AX, [52E2h]
383C  59                        POP  CX
383D  91                        XCHG AX, CX
383E  2B C8                     SUB  CX, AX
3840  7D 03                     JGE  3845h
3842  E9 2A 00                  JMP  386Fh
3845  41                        INC  CX
3846  A3 E6 52                  MOV  [52E6h], AX
3849  51                        PUSH CX
384A  A1 E6 52                  MOV  AX, [52E6h]
384D  48                        DEC  AX
384E  B9 89 13                  MOV  CX, 1389h
3851  E8 AD 71                  CALL AA01h
3854  D1 E0                     SHL  AX, 1
3856  D1 E0                     SHL  AX, 1
3858  97                        XCHG AX, DI
3859  81 C7 BE 04               ADD  DI, 04BEh
385D  1E                        PUSH DS
385E  B9 56 00                  MOV  CX, 0056h
3861  E8 AA 68                  CALL A10Eh
3867  07                        POP  ES
3868  FF 06 E6 52               INC  [52E6h]
386C  E9 DA FF                  JMP  3849h
386F  A0 A4 04                  MOV  AL, [04A4h]
3872  32 E4                     XOR  AH, AH
3874  0B C0                     OR   AX, AX
3876  75 03                     JNZ  387Bh
3878  E9 03 00                  JMP  387Eh
387B  E8 75 90                  CALL C8F3h
387E  B8 01 00                  MOV  AX, 0001h
3881  50                        PUSH AX
3882  B8 01 00                  MOV  AX, 0001h
3885  50                        PUSH AX
3886  B8 50 00                  MOV  AX, 0050h
3889  50                        PUSH AX
388A  B8 19 00                  MOV  AX, 0019h
388D  E8 45 65                  CALL 9DD5h
3890  B8 01 00                  MOV  AX, 0001h
3893  50                        PUSH AX
3894  B8 19 00                  MOV  AX, 0019h
3897  E8 58 6F                  CALL A7F2h
389A  E8 55 64                  CALL 9CF2h
389D  E8 00 87                  CALL BFA0h
38A0  E8 02 8B                  CALL C3A5h
38A3  0F                        ???
38A4  45 6E 64 20 6F 66 20 50...  db  "End of Program."
38B3  E8 B4 71                  CALL AA6Ah
38B6  E9 00 00                  JMP  38B9h
38B9  8B E5                     MOV  SP, BP
38BB  5D                        POP  BP
38BC  C3                        RET
38BD  00 00                     ADD  [BX+SI], AL
38BF  00 00                     ADD  [BX+SI], AL
38C1  00 00                     ADD  [BX+SI], AL
38C3  00 00                     ADD  [BX+SI], AL
38C5  00 00                     ADD  [BX+SI], AL
38C7  00 00                     ADD  [BX+SI], AL
38C9  00 00                     ADD  [BX+SI], AL
38CB  00 00                     ADD  [BX+SI], AL
38CD  00 00                     ADD  [BX+SI], AL
38CF  00 00                     ADD  [BX+SI], AL
38D1  00 00                     ADD  [BX+SI], AL
38D3  00 00                     ADD  [BX+SI], AL
38D5  00 00                     ADD  [BX+SI], AL
38D7  00 00                     ADD  [BX+SI], AL
38D9  00 00                     ADD  [BX+SI], AL
38DB  00 00                     ADD  [BX+SI], AL
38DD  00 00                     ADD  [BX+SI], AL
38DF  00 00                     ADD  [BX+SI], AL
38E1  00 00                     ADD  [BX+SI], AL
38E3  00 00                     ADD  [BX+SI], AL
38E5  00 00                     ADD  [BX+SI], AL
38E7  00 00                     ADD  [BX+SI], AL
38E9  00 00                     ADD  [BX+SI], AL
38EB  00 00                     ADD  [BX+SI], AL
38ED  00 00                     ADD  [BX+SI], AL
38EF  00 00                     ADD  [BX+SI], AL
38F1  00 00                     ADD  [BX+SI], AL
38F3  00 00                     ADD  [BX+SI], AL
38F5  00 00                     ADD  [BX+SI], AL
38F7  00 00                     ADD  [BX+SI], AL
38F9  00 00                     ADD  [BX+SI], AL
38FB  00 00                     ADD  [BX+SI], AL
38FD  00 00                     ADD  [BX+SI], AL
38FF  00 E8                     ADD  AL, CH
3901  11 6F B9                  ADC  [BX-47h], BP
3904  06                        PUSH ES
3905  BF 9D 55                  MOV  DI, 559Dh
3908  8B EC                     MOV  BP, SP
390A  55                        PUSH BP
390B  E9 13 01                  JMP  3A21h
390E  55                        PUSH BP
390F  8B C4                     MOV  AX, SP
3911  FF 76 FE                  PUSH  [BP-02h]
3914  8B E8                     MOV  BP, AX
3916  55                        PUSH BP
3917  E9 00 00                  JMP  391Ah
391A  E8 43 6A                  CALL A360h
391D  3D 00 00                  CMP  AX, 0000h
3920  B8 01 00                  MOV  AX, 0001h
3923  7F 01                     JG   3926h
3925  48                        DEC  AX
3926  50                        PUSH AX
3927  E8 36 6A                  CALL A360h
392C  01 B8 01 00               ADD  [BX+SI+0001h], DI
3930  7C 01                     JL   3933h
3932  48                        DEC  AX
3933  59                        POP  CX
3934  23 C1                     AND  AX, CX
3936  0B C0                     OR   AX, AX
3938  75 03                     JNZ  393Dh
393A  E9 44 00                  JMP  3981h
393D  E8 60 87                  CALL C0A0h
3940  E8 7A 8B                  CALL C4BDh
3943  E8 24 72                  CALL AB6Ah
3946  E8 57 87                  CALL C0A0h
3949  E8 59 8B                  CALL C4A5h
394C  02 07                     ADD  AL, [BX]
394E  07                        POP  ES
394F  E8 53 8B                  CALL C4A5h
3952  23 20 56 65 69 77 20 46...  db  "# Veiw File Windows ran out of room "
3976  E8 44 8B                  CALL C4BDh
3979  E8 EE 71                  CALL AB6Ah
397C  33 C0                     XOR  AX, AX
397E  E9 50 6E                  JMP  A7D1h
3981  BF A9 92                  MOV  DI, 92A9h
3984  1E                        PUSH DS
3985  B9 00 0F                  MOV  CX, 0F00h
3988  E8 B4 67                  CALL A13Fh
398B  2E                        CS:
398C  C4 3E EC 3C               LES  DI, [3CECh]
3990  26                        ES:
3991  8A 05                     MOV  AL, [DI]
3993  32 E4                     XOR  AH, AH
3995  3D 07 00                  CMP  AX, 0007h
3998  74 03                     JZ   399Dh
399A  E9 15 00                  JMP  39B2h
399D  C4 3E A9 92               LES  DI, [92A9h]
39A1  06                        PUSH ES
39A2  57                        PUSH DI
39A3  2E                        CS:
39A4  C4 3E F0 3C               LES  DI, [3CF0h]
39A8  06                        PUSH ES
39A9  B9 00 0F                  MOV  CX, 0F00h
39AC  E8 BB 70                  CALL AA6Ah
39AF  E9 12 00                  JMP  39C4h
39B2  C4 3E A9 92               LES  DI, [92A9h]
39B6  06                        PUSH ES
39B7  57                        PUSH DI
39B8  2E                        CS:
39B9  C4 3E F4 3C               LES  DI, [3CF4h]
39BD  06                        PUSH ES
39BE  B9 00 0F                  MOV  CX, 0F00h
39C1  E8 A6 70                  CALL AA6Ah
39C4  E9 00 00                  JMP  39C7h
39C7  8B E5                     MOV  SP, BP
39C9  5D                        POP  BP
39CA  C3                        RET
39CB  55                        PUSH BP
39CC  8B C4                     MOV  AX, SP
39CE  FF 76 FE                  PUSH  [BP-02h]
39D1  8B E8                     MOV  BP, AX
39D3  55                        PUSH BP
39D4  E9 00 00                  JMP  39D7h
39D7  2E                        CS:
39D8  C4 3E EC 3C               LES  DI, [3CECh]
39DC  26                        ES:
39DD  8A 05                     MOV  AL, [DI]
39DF  32 E4                     XOR  AH, AH
39E1  3D 07 00                  CMP  AX, 0007h
39E4  74 03                     JZ   39E9h
39E6  E9 15 00                  JMP  39FEh
39E9  2E                        CS:
39EA  C4 3E F0 3C               LES  DI, [3CF0h]
39EE  06                        PUSH ES
39EF  57                        PUSH DI
39F0  C4 3E A9 92               LES  DI, [92A9h]
39F4  06                        PUSH ES
39F5  B9 00 0F                  MOV  CX, 0F00h
39F8  E8 6F 70                  CALL AA6Ah
39FB  E9 12 00                  JMP  3A10h
39FE  2E                        CS:
39FF  C4 3E F4 3C               LES  DI, [3CF4h]
3A03  06                        PUSH ES
3A04  57                        PUSH DI
3A05  C4 3E A9 92               LES  DI, [92A9h]
3A09  06                        PUSH ES
3A0A  B9 00 0F                  MOV  CX, 0F00h
3A0D  E8 5A 70                  CALL AA6Ah
3A10  BF A9 92                  MOV  DI, 92A9h
3A13  1E                        PUSH DS
3A14  B9 00 0F                  MOV  CX, 0F00h
3A17  E8 F4 67                  CALL A20Eh
3A1A  E9 00 00                  JMP  3A1Dh
3A1D  8B E5                     MOV  SP, BP
3A1F  5D                        POP  BP
3A20  C3                        RET
3A21  83 EC 4B                  SUB  SP, 4Bh
3A24  A0 EB 52                  MOV  AL, [52EBh]
3A27  32 E4                     XOR  AH, AH
3A29  34 01                     XOR  AL, 01h
3A2B  75 03                     JNZ  3A30h
3A2D  E9 03 00                  JMP  3A33h
3A30  E8 BA 8F                  CALL C9EDh
3A33  A0 A8 92                  MOV  AL, [92A8h]
3A36  32 E4                     XOR  AH, AH
3A38  34 01                     XOR  AL, 01h
3A3A  75 03                     JNZ  3A3Fh
3A3C  E9 9A 02                  JMP  3CD9h
3A3F  B8 0F 00                  MOV  AX, 000Fh
3A42  50                        PUSH AX
3A43  B8 04 00                  MOV  AX, 0004h
3A46  50                        PUSH AX
3A47  B8 4D 00                  MOV  AX, 004Dh
3A4A  50                        PUSH AX
3A4B  B8 0A 00                  MOV  AX, 000Ah
3A4E  50                        PUSH AX
3A4F  E8 DB 72                  CALL AD2Dh
3A52  09 56 69                  OR   [BP+69h], DX
3A5C  B1 46                     MOV  CL, 46h
3A5E  E8 24 73                  CALL AD85h
3A61  E8 9B 9F                  CALL D9FFh
3A64  E8 39 86                  CALL C0A0h
3A67  E8 53 8A                  CALL C4BDh
3A6A  E8 FD 70                  CALL AB6Ah
3A6D  E8 30 86                  CALL C0A0h
3A70  E8 4A 8A                  CALL C4BDh
3A73  E8 F4 70                  CALL AB6Ah
3A76  E8 27 86                  CALL C0A0h
3A79  E8 29 8A                  CALL C4A5h
3A7C  19 20                     SBB  [BX+SI], SP
3A96  E8 D1 70                  CALL AB6Ah
3A99  E8 33 86                  CALL C0CFh
3A9C  BF 67 54                  MOV  DI, 5467h
3A9F  1E                        PUSH DS
3AA0  B1 50                     MOV  CL, 50h
3AA2  E8 56 88                  CALL C2FBh
3AA5  E8 C2 70                  CALL AB6Ah
3AA8  BF 67 54                  MOV  DI, 5467h
3AAB  1E                        PUSH DS
3AAC  E8 65 72                  CALL AD14h
3AAF  E8 14 74                  CALL AEC6h
3AB2  3D 00 00                  CMP  AX, 0000h
3AB5  74 03                     JZ   3ABAh
3AB7  E9 06 00                  JMP  3AC0h
3ABA  E8 F5 A0                  CALL DBB2h
3ABD  E9 F5 04                  JMP  3FB5h
3AC0  B8 01 00                  MOV  AX, 0001h
3AC3  50                        PUSH AX
3AC4  BF 67 54                  MOV  DI, 5467h
3AC7  1E                        PUSH DS
3AC8  E8 49 72                  CALL AD14h
3ACB  E8 F8 73                  CALL AEC6h
3ACE  59                        POP  CX
3ACF  91                        XCHG AX, CX
3AD0  2B C8                     SUB  CX, AX
3AD2  7D 03                     JGE  3AD7h
3AD4  E9 3B 00                  JMP  3B12h
3AD7  41                        INC  CX
3AD8  89 46 B3                  MOV  [BP-4Dh], AX
3ADB  51                        PUSH CX
3ADC  8B 46 B3                  MOV  AX, [BP-4Dh]
3ADF  B9 51 00                  MOV  CX, 0051h
3AE2  E8 1C 70                  CALL AB01h
3AE5  97                        XCHG AX, DI
3AE6  57                        PUSH DI
3AE7  8B 46 B3                  MOV  AX, [BP-4Dh]
3AEA  B9 51 00                  MOV  CX, 0051h
3AED  E8 11 70                  CALL AB01h
3AF0  97                        XCHG AX, DI
3AF1  8A 85 67 54               MOV  AL, [DI+5467h]
3AF5  32 E4                     XOR  AH, AH
3AF7  E8 BC 63                  CALL 9EB6h
3AFA  5F                        POP  DI
3AFB  B9 00 00                  MOV  CX, 0000h
3AFE  BA FF 00                  MOV  DX, 00FFh
3B01  E8 07 70                  CALL AB0Bh
3B04  88 85 67 54               MOV  [DI+5467h], AL
3B0B  06                        PUSH ES
3B0C  FF 46 B3                  INC  [BP-4Dh]
3B0F  E9 C9 FF                  JMP  3ADBh
3B12  BF 1C 56                  MOV  DI, 561Ch
3B15  1E                        PUSH DS
3B16  57                        PUSH DI
3B17  BF 67 54                  MOV  DI, 5467h
3B1A  1E                        PUSH DS
3B1B  E8 F6 71                  CALL AD14h
3B1E  E8 FC 82                  CALL BE1Dh
3B21  E8 46 70                  CALL AB6Ah
3B24  BF 1C 56                  MOV  DI, 561Ch
3B27  1E                        PUSH DS
3B28  B9 80 00                  MOV  CX, 0080h
3B2B  E8 44 83                  CALL BE72h
3B2E  E8 32 70                  CALL AB63h
3B31  3D 00 00                  CMP  AX, 0000h
3B34  B8 01 00                  MOV  AX, 0001h
3B37  74 01                     JZ   3B3Ah
3B39  48                        DEC  AX
3B3A  B9 00 00                  MOV  CX, 0000h
3B3D  BA 01 00                  MOV  DX, 0001h
3B40  E8 C8 6F                  CALL AB0Bh
3B43  A2 8F 59                  MOV  [598Fh], AL
3B46  A0 8F 59                  MOV  AL, [598Fh]
3B49  32 E4                     XOR  AH, AH
3B4B  34 01                     XOR  AL, 01h
3B4D  75 03                     JNZ  3B52h
3B4F  E9 2D 00                  JMP  3B7Fh
3B52  E8 4B 85                  CALL C0A0h
3B55  E8 4D 89                  CALL C4A5h
3B58  13 20                     ADC  SP, [BX+SI]
3B6C  BF 67 54                  MOV  DI, 5467h
3B6F  1E                        PUSH DS
3B70  E8 A1 71                  CALL AD14h
3B73  B8 00 00                  MOV  AX, 0000h
3B76  E8 F5 88                  CALL C46Eh
3B79  E8 41 89                  CALL C4BDh
3B7C  E8 EB 6F                  CALL AB6Ah
3B7F  A0 8F 59                  MOV  AL, [598Fh]
3B82  32 E4                     XOR  AH, AH
3B84  0B C0                     OR   AX, AX
3B86  75 03                     JNZ  3B8Bh
3B88  E9 EB FE                  JMP  3A76h
3B8B  E8 24 A0                  CALL DBB2h
3B8E  8D 7E B7                  LEA  DI, [BP-49h]
3B91  16                        PUSH SS
3B92  57                        PUSH DI
3B93  E8 97 71                  CALL AD2Dh
3B96  06                        PUSH ES
3B97  56 69 65 77 20 5B         db  "View ["
3B9D  BF 67 54                  MOV  DI, 5467h
3BA0  1E                        PUSH DS
3BA1  E8 70 71                  CALL AD14h
3BA4  E8 9E 72                  CALL AE45h
3BA7  E8 83 71                  CALL AD2Dh
3BD1  E8 71 72                  CALL AE45h
3BD4  B1 46                     MOV  CL, 46h
3BD6  E8 6A 71                  CALL AD43h
3BD9  B8 01 00                  MOV  AX, 0001h
3BDC  50                        PUSH AX
3BDD  B8 01 00                  MOV  AX, 0001h
3BE0  50                        PUSH AX
3BE1  B8 50 00                  MOV  AX, 0050h
3BE4  50                        PUSH AX
3BE5  B8 18 00                  MOV  AX, 0018h
3BE8  50                        PUSH AX
3BE9  8D 7E B7                  LEA  DI, [BP-49h]
3BEC  16                        PUSH SS
3BED  E8 24 71                  CALL AD14h
3BF0  B1 46                     MOV  CL, 46h
3BF2  E8 90 71                  CALL AD85h
3BF5  E8 07 9E                  CALL D9FFh
3BF8  BF AD 92                  MOV  DI, 92ADh
3BFB  1E                        PUSH DS
3BFC  57                        PUSH DI
3BFD  B8 00 00                  MOV  AX, 0000h
3C00  E8 74 7A                  CALL B677h
3C03  E8 D5 78                  CALL B4DBh
3C06  B8 00 00                  MOV  AX, 0000h
3C09  A3 B3 92                  MOV  [92B3h], AX
3C0C  E8 AD A0                  CALL DCBCh
3C0F  B8 05 00                  MOV  AX, 0005h
3C12  50                        PUSH AX
3C13  B8 18 00                  MOV  AX, 0018h
3C16  E8 D9 6C                  CALL A8F2h
3C19  2E                        CS:
3C1A  A1 95 2E                  MOV  AX, [2E95h]
3C1D  E8 E3 62                  CALL 9F03h
3C20  E8 7D 84                  CALL C0A0h
3C23  E8 7F 88                  CALL C4A5h
3C26  02 5B 20                  ADD  BL, [BP+DI+20h]
3C29  A1 B3 92                  MOV  AX, [92B3h]
3C2C  50                        PUSH AX
3C2D  B8 03 00                  MOV  AX, 0003h
3C30  E8 CE 87                  CALL C401h
3C33  E8 6F 88                  CALL C4A5h
3C36  12 4B 20                  ADC  CL, [BP+DI+20h]
3C49  83 EC 06                  SUB  SP, 06h
3C4C  BF 67 54                  MOV  DI, 5467h
3C4F  1E                        PUSH DS
3C50  E8 C1 70                  CALL AD14h
3C53  B1 50                     MOV  CL, 50h
3C55  E8 2D 71                  CALL AD85h
3C58  B8 00 03                  MOV  AX, 0300h
3C5B  BA 23 00                  MOV  DX, 0023h
3C5E  E8 7B EA                  CALL 26DCh
3C61  B8 E8 03                  MOV  AX, 03E8h
3C64  E8 10 7A                  CALL B677h
3C67  E8 BD 78                  CALL B527h
3C6A  B8 03 00                  MOV  AX, 0003h
3C6D  50                        PUSH AX
3C6E  B8 00 00                  MOV  AX, 0000h
3C71  E8 C2 87                  CALL C436h
3C74  E8 2E 88                  CALL C4A5h
3C77  09 4B 20                  OR   [BP+DI+20h], CX
3C81  E8 E6 6E                  CALL AB6Ah
3C84  B8 2C 00                  MOV  AX, 002Ch
3C87  50                        PUSH AX
3C88  B8 18 00                  MOV  AX, 0018h
3C8B  E8 64 6C                  CALL A8F2h
3C8E  E8 0F 84                  CALL C0A0h
3C91  E8 11 88                  CALL C4A5h
3C94  22 5B 20 3C 61 6C 74 2D...  db  ""[ <alt-V> to Toggle Split Screen ]"
3CB7  E8 B0 6E                  CALL AB6Ah
3CBA  2E                        CS:
3CBB  A1 8D 2E                  MOV  AX, [2E8Dh]
3CBE  E8 42 62                  CALL 9F03h
3CC1  E8 44 A0                  CALL DD08h
3CC4  E8 2E AC                  CALL E8F5h
3CC7  B8 01 00                  MOV  AX, 0001h
3CCA  B9 00 00                  MOV  CX, 0000h
3CCD  BA 01 00                  MOV  DX, 0001h
3CD0  E8 38 6E                  CALL AB0Bh
3CD3  A2 A8 92                  MOV  [92A8h], AL
3CD6  E9 98 00                  JMP  3D71h
3CD9  8D 7E B7                  LEA  DI, [BP-49h]
3CDC  16                        PUSH SS
3CDD  57                        PUSH DI
3CDE  E8 4C 70                  CALL AD2Dh
3CE1  06                        PUSH ES
3CE2  56 69 65 77 20 5B         db  "View ["
3CE8  BF 67 54                  MOV  DI, 5467h
3CEB  1E                        PUSH DS
3CEC  E8 25 70                  CALL AD14h
3CEF  E8 53 71                  CALL AE45h
3CF2  E8 38 70                  CALL AD2Dh
3D1C  E8 26 71                  CALL AE45h
3D1F  B1 46                     MOV  CL, 46h
3D21  E8 1F 70                  CALL AD43h
3D24  B8 01 00                  MOV  AX, 0001h
3D27  50                        PUSH AX
3D28  B8 01 00                  MOV  AX, 0001h
3D2B  50                        PUSH AX
3D2C  B8 50 00                  MOV  AX, 0050h
3D2F  50                        PUSH AX
3D30  B8 18 00                  MOV  AX, 0018h
3D33  50                        PUSH AX
3D34  8D 7E B7                  LEA  DI, [BP-49h]
3D37  16                        PUSH SS
3D38  E8 D9 6F                  CALL AD14h
3D3B  B1 46                     MOV  CL, 46h
3D3D  E8 45 70                  CALL AD85h
3D40  E8 BC 9C                  CALL D9FFh
3D43  E8 85 FC                  CALL 39CBh
3D46  B8 01 00                  MOV  AX, 0001h
3D49  50                        PUSH AX
3D4A  B8 15 00                  MOV  AX, 0015h
3D4D  59                        POP  CX
3D4E  91                        XCHG AX, CX
3D4F  2B C8                     SUB  CX, AX
3D51  7D 03                     JGE  3D56h
3D53  E9 18 00                  JMP  3D6Eh
3D56  41                        INC  CX
3D57  89 46 B3                  MOV  [BP-4Dh], AX
3D5A  51                        PUSH CX
3D5B  E8 42 83                  CALL C0A0h
3D5E  E8 5C 87                  CALL C4BDh
3D61  E8 06 6E                  CALL AB6Ah
3D67  06                        PUSH ES
3D68  FF 46 B3                  INC  [BP-4Dh]
3D6B  E9 EC FF                  JMP  3D5Ah
3D6E  E8 84 AB                  CALL E8F5h
3D71  BF 42 58                  MOV  DI, 5842h
3D74  1E                        PUSH DS
3D75  57                        PUSH DI
3D76  B8 20 00                  MOV  AX, 0020h
3D79  8A E0                     MOV  AH, AL
3D7B  B0 01                     MOV  AL, 01h
3D7D  50                        PUSH AX
3D7E  B1 02                     MOV  CL, 02h
3D80  E8 C0 6F                  CALL AD43h
3D83  BF 1C 56                  MOV  DI, 561Ch
3D86  1E                        PUSH DS
3D87  E8 4C 87                  CALL C4D6h
3D8A  34 01                     XOR  AL, 01h
3D8C  50                        PUSH AX
3D8D  A0 43 58                  MOV  AL, [5843h]
3D90  32 E4                     XOR  AH, AH
3D92  3D CF 00                  CMP  AX, 00CFh
3D95  B8 01 00                  MOV  AX, 0001h
3D98  75 01                     JNZ  3D9Bh
3D9A  48                        DEC  AX
3D9B  59                        POP  CX
3D9C  23 C1                     AND  AX, CX
3D9E  50                        PUSH AX
3D9F  A0 43 58                  MOV  AL, [5843h]
3DA2  32 E4                     XOR  AH, AH
3DA4  3D AF 00                  CMP  AX, 00AFh
3DA7  B8 01 00                  MOV  AX, 0001h
3DAA  75 01                     JNZ  3DADh
3DAC  48                        DEC  AX
3DAD  59                        POP  CX
3DAE  23 C1                     AND  AX, CX
3DB0  0B C0                     OR   AX, AX
3DB2  75 03                     JNZ  3DB7h
3DB4  E9 90 01                  JMP  3F47h
3DB7  BF 1C 56                  MOV  DI, 561Ch
3DBA  1E                        PUSH DS
3DBB  E8 C5 82                  CALL C083h
3DBE  BF E8 56                  MOV  DI, 56E8h
3DC1  1E                        PUSH DS
3DC2  B1 FF                     MOV  CL, FFh
3DC4  E8 34 85                  CALL C2FBh
3DC7  E8 85 85                  CALL C34Fh
3DCA  E8 9D 6D                  CALL AB6Ah
3DCD  E8 D0 82                  CALL C0A0h
3DD0  BF E8 56                  MOV  DI, 56E8h
3DD3  1E                        PUSH DS
3DD4  E8 3D 6F                  CALL AD14h
3DD7  B8 00 00                  MOV  AX, 0000h
3DDA  E8 91 86                  CALL C46Eh
3DDD  E8 DD 86                  CALL C4BDh
3DE0  E8 87 6D                  CALL AB6Ah
3DE3  BF AD 92                  MOV  DI, 92ADh
3DE6  1E                        PUSH DS
3DE7  57                        PUSH DI
3DE8  BF AD 92                  MOV  DI, 92ADh
3DEB  1E                        PUSH DS
3DEC  E8 CC 76                  CALL B4BBh
3DEF  BF E8 56                  MOV  DI, 56E8h
3DF2  1E                        PUSH DS
3DF3  E8 1E 6F                  CALL AD14h
3DF6  E8 CD 70                  CALL AEC6h
3DF9  E8 7B 78                  CALL B677h
3DFC  E8 EF 76                  CALL B4EEh
3DFF  B8 02 00                  MOV  AX, 0002h
3E02  E8 72 78                  CALL B677h
3E05  E8 E6 76                  CALL B4EEh
3E08  E8 D0 76                  CALL B4DBh
3E0B  BF AD 92                  MOV  DI, 92ADh
3E0E  1E                        PUSH DS
3E0F  E8 A9 76                  CALL B4BBh
3E12  B8 E8 03                  MOV  AX, 03E8h
3E15  E8 5F 78                  CALL B677h
3E18  E8 0C 77                  CALL B527h
3E1B  E8 24 78                  CALL B642h
3E1E  89 46 B5                  MOV  [BP-4Bh], AX
3E21  8B 46 B5                  MOV  AX, [BP-4Bh]
3E24  3B 06 B3 92               CMP  AX, [92B3h]
3E28  7F 03                     JG   3E2Dh
3E2A  E9 50 00                  JMP  3E7Dh
3E2D  8B 46 B5                  MOV  AX, [BP-4Bh]
3E30  A3 B3 92                  MOV  [92B3h], AX
3E33  E8 86 9E                  CALL DCBCh
3E36  B8 05 00                  MOV  AX, 0005h
3E39  50                        PUSH AX
3E3A  B8 18 00                  MOV  AX, 0018h
3E3D  E8 B2 6A                  CALL A8F2h
3E40  2E                        CS:
3E41  A1 95 2E                  MOV  AX, [2E95h]
3E44  E8 BC 60                  CALL 9F03h
3E47  E8 56 82                  CALL C0A0h
3E4A  E8 58 86                  CALL C4A5h
3E4D  02 5B 20                  ADD  BL, [BP+DI+20h]
3E50  A1 B3 92                  MOV  AX, [92B3h]
3E53  50                        PUSH AX
3E54  B8 03 00                  MOV  AX, 0003h
3E57  E8 A7 85                  CALL C401h
3E5A  E8 48 86                  CALL C4A5h
3E5D  12 4B 20                  ADC  CL, [BP+DI+20h]
3E70  E8 F7 6C                  CALL AB6Ah
3E73  2E                        CS:
3E74  A1 8D 2E                  MOV  AX, [2E8Dh]
3E77  E8 89 60                  CALL 9F03h
3E7A  E8 8B 9E                  CALL DD08h
3E7D  A1 F5 52                  MOV  AX, [52F5h]
3E80  05 0A 00                  ADD  AX, 000Ah
3E83  A3 F5 52                  MOV  [52F5h], AX
3E86  BF 42 58                  MOV  DI, 5842h
3E89  1E                        PUSH DS
3E8A  57                        PUSH DI
3E8B  83 EC 03                  SUB  SP, 03h
3E8E  E8 71 8B                  CALL CA02h
3E91  B1 02                     MOV  CL, 02h
3E93  E8 AD 6E                  CALL AD43h
3E96  BF 42 58                  MOV  DI, 5842h
3E99  1E                        PUSH DS
3E9A  E8 77 6E                  CALL AD14h
3E9D  E8 26 70                  CALL AEC6h
3EA0  3D 01 00                  CMP  AX, 0001h
3EA3  7F 03                     JG   3EA8h
3EA5  E9 17 00                  JMP  3EBFh
3EA8  BF 42 58                  MOV  DI, 5842h
3EAB  1E                        PUSH DS
3EAC  57                        PUSH DI
3EAD  A0 44 58                  MOV  AL, [5844h]
3EB0  32 E4                     XOR  AH, AH
3EB2  05 80 00                  ADD  AX, 0080h
3EB5  8A E0                     MOV  AH, AL
3EB7  B0 01                     MOV  AL, 01h
3EB9  50                        PUSH AX
3EBA  B1 02                     MOV  CL, 02h
3EBC  E8 84 6E                  CALL AD43h
3EBF  BF 42 58                  MOV  DI, 5842h
3EC2  1E                        PUSH DS
3EC3  E8 4E 6E                  CALL AD14h
3EC6  E8 64 6E                  CALL AD2Dh
3EC9  00 E8                     ADD  AL, CH
3ECB  01 6F 50                  ADD  [BX+50h], BP
3ECE  A0 43 58                  MOV  AL, [5843h]
3ED1  32 E4                     XOR  AH, AH
3ED3  3D CF 00                  CMP  AX, 00CFh
3ED6  B8 01 00                  MOV  AX, 0001h
3ED9  75 01                     JNZ  3EDCh
3EDB  48                        DEC  AX
3EDC  59                        POP  CX
3EDD  23 C1                     AND  AX, CX
3EDF  50                        PUSH AX
3EE0  A0 43 58                  MOV  AL, [5843h]
3EE3  32 E4                     XOR  AH, AH
3EE5  3D AF 00                  CMP  AX, 00AFh
3EE8  B8 01 00                  MOV  AX, 0001h
3EEB  75 01                     JNZ  3EEEh
3EED  48                        DEC  AX
3EEE  59                        POP  CX
3EEF  23 C1                     AND  AX, CX
3EF1  0B C0                     OR   AX, AX
3EF3  75 03                     JNZ  3EF8h
3EF5  E9 4C 00                  JMP  3F44h
3EF8  BF 42 58                  MOV  DI, 5842h
3EFB  1E                        PUSH DS
3EFC  57                        PUSH DI
3EFD  83 EC 03                  SUB  SP, 03h
3F00  E8 FF 8A                  CALL CA02h
3F03  B1 02                     MOV  CL, 02h
3F05  E8 3B 6E                  CALL AD43h
3F08  BF 42 58                  MOV  DI, 5842h
3F0B  1E                        PUSH DS
3F0C  E8 05 6E                  CALL AD14h
3F0F  E8 B4 6F                  CALL AEC6h
3F12  3D 01 00                  CMP  AX, 0001h
3F15  7F 03                     JG   3F1Ah
3F17  E9 17 00                  JMP  3F31h
3F1A  BF 42 58                  MOV  DI, 5842h
3F1D  1E                        PUSH DS
3F1E  57                        PUSH DI
3F1F  A0 44 58                  MOV  AL, [5844h]
3F22  32 E4                     XOR  AH, AH
3F24  05 80 00                  ADD  AX, 0080h
3F27  8A E0                     MOV  AH, AL
3F29  B0 01                     MOV  AL, 01h
3F2B  50                        PUSH AX
3F2C  B1 02                     MOV  CL, 02h
3F2E  E8 12 6E                  CALL AD43h
3F31  BF 42 58                  MOV  DI, 5842h
3F34  1E                        PUSH DS
3F35  E8 DC 6D                  CALL AD14h
3F38  E8 F2 6D                  CALL AD2Dh
3F3B  00 E8                     ADD  AL, CH
3F3D  8F 6E 75                  POP  [BP+75h]
3F40  03 E9                     ADD  BP, CX
3F42  B4 FF                     MOV  AH, FFh
3F44  E9 3C FE                  JMP  3D83h
3F47  A0 43 58                  MOV  AL, [5843h]
3F4A  32 E4                     XOR  AH, AH
3F4C  3D AF 00                  CMP  AX, 00AFh
3F4F  74 03                     JZ   3F54h
3F51  E9 0C 00                  JMP  3F60h
3F54  E8 B7 F9                  CALL 390Eh
3F57  E8 58 9C                  CALL DBB2h
3F5A  E8 98 A9                  CALL E8F5h
3F5D  E9 55 00                  JMP  3FB5h
3F60  3D CF 00                  CMP  AX, 00CFh
3F63  74 03                     JZ   3F68h
3F65  E9 22 00                  JMP  3F8Ah
3F68  BF 1C 56                  MOV  DI, 561Ch
3F6B  1E                        PUSH DS
3F6C  E8 2C 80                  CALL BF9Bh
3F6F  E8 F8 6B                  CALL AB6Ah
3F72  B8 00 00                  MOV  AX, 0000h
3F75  B9 00 00                  MOV  CX, 0000h
3F78  BA 01 00                  MOV  DX, 0001h
3F7B  E8 8D 6B                  CALL AB0Bh
3F7E  A2 A8 92                  MOV  [92A8h], AL
3F81  E8 2E 9C                  CALL DBB2h
3F84  E8 6E A9                  CALL E8F5h
3F87  E9 2B 00                  JMP  3FB5h
3F8A  BF 1C 56                  MOV  DI, 561Ch
3F8D  1E                        PUSH DS
3F8E  E8 0A 80                  CALL BF9Bh
3F91  E8 D6 6B                  CALL AB6Ah
3F94  B8 00 00                  MOV  AX, 0000h
3F97  B9 00 00                  MOV  CX, 0000h
3F9A  BA 01 00                  MOV  DX, 0001h
3F9D  E8 6B 6B                  CALL AB0Bh
3FA0  A2 A8 92                  MOV  [92A8h], AL
3FA3  E8 FA 80                  CALL C0A0h
3FA6  E8 14 85                  CALL C4BDh
3FA9  E8 BE 6B                  CALL AB6Ah
3FAC  E8 2A 98                  CALL D7D9h
3FAF  E8 00 9C                  CALL DBB2h
3FB2  E8 40 A9                  CALL E8F5h
3FB5  E9 00 00                  JMP  3FB8h
3FB8  8B E5                     MOV  SP, BP
3FBA  5D                        POP  BP
3FBB  C3                        RET
3FBC  00 00                     ADD  [BX+SI], AL
3FBE  00 00                     ADD  [BX+SI], AL
3FC0  00 00                     ADD  [BX+SI], AL
3FC2  00 00                     ADD  [BX+SI], AL
3FC4  00 00                     ADD  [BX+SI], AL
3FC6  00 00                     ADD  [BX+SI], AL
3FC8  00 00                     ADD  [BX+SI], AL
3FCA  00 00                     ADD  [BX+SI], AL
3FCC  00 00                     ADD  [BX+SI], AL
3FCE  00 00                     ADD  [BX+SI], AL
3FD0  00 00                     ADD  [BX+SI], AL
3FD2  00 00                     ADD  [BX+SI], AL
3FD4  00 00                     ADD  [BX+SI], AL
3FD6  00 00                     ADD  [BX+SI], AL
3FD8  00 00                     ADD  [BX+SI], AL
3FDA  00 00                     ADD  [BX+SI], AL
3FDC  00 00                     ADD  [BX+SI], AL
3FDE  00 00                     ADD  [BX+SI], AL
3FE0  00 00                     ADD  [BX+SI], AL
3FE2  00 00                     ADD  [BX+SI], AL
3FE4  00 00                     ADD  [BX+SI], AL
3FE6  00 00                     ADD  [BX+SI], AL
3FE8  00 00                     ADD  [BX+SI], AL
3FEA  00 00                     ADD  [BX+SI], AL
3FEC  00 00                     ADD  [BX+SI], AL
3FEE  00 00                     ADD  [BX+SI], AL
3FF0  00 00                     ADD  [BX+SI], AL
3FF2  00 00                     ADD  [BX+SI], AL
3FF4  00 00                     ADD  [BX+SI], AL
3FF6  00 00                     ADD  [BX+SI], AL
3FF8  00 00                     ADD  [BX+SI], AL
3FFA  00 00                     ADD  [BX+SI], AL
3FFC  00 00                     ADD  [BX+SI], AL
3FFE  00 00                     ADD  [BX+SI], AL
4000  E8 11 6F                  CALL AF14h
4003  12 06 BF 9D               ADC  AL, [9DBFh]
4007  55                        PUSH BP
4008  8B EC                     MOV  BP, SP
400A  55                        PUSH BP
400B  E9 E5 00                  JMP  40F3h
400E  55                        PUSH BP
400F  8B C4                     MOV  AX, SP
4011  FF 76 FE                  PUSH  [BP-02h]
4014  8B E8                     MOV  BP, AX
4016  55                        PUSH BP
4017  E9 00 00                  JMP  401Ah
401A  4C                        DEC  SP
401B  4C                        DEC  SP
401C  B8 00 00                  MOV  AX, 0000h
401F  89 46 FA                  MOV  [BP-06h], AX
4022  8B 46 FA                  MOV  AX, [BP-06h]
4025  50                        PUSH AX
4026  8D 7E 04                  LEA  DI, [BP+04h]
4029  16                        PUSH SS
402A  E8 E7 73                  CALL B414h
402D  E8 96 75                  CALL B5C6h
4030  59                        POP  CX
4031  91                        XCHG AX, CX
4032  3B C1                     CMP  AX, CX
4034  B8 01 00                  MOV  AX, 0001h
4037  7C 01                     JL   403Ah
4039  48                        DEC  AX
403A  50                        PUSH AX
403B  A0 A3 02                  MOV  AL, [02A3h]
403E  32 E4                     XOR  AH, AH
4040  59                        POP  CX
4041  23 C1                     AND  AX, CX
4043  0B C0                     OR   AX, AX
4045  75 03                     JNZ  404Ah
4047  E9 9A 00                  JMP  40E4h
404A  8B 46 FA                  MOV  AX, [BP-06h]
404D  05 01 00                  ADD  AX, 0001h
4050  89 46 FA                  MOV  [BP-06h], AX
4053  2E                        CS:
4054  A1 CE 2D                  MOV  AX, [2DCEh]
4057  E8 01 64                  CALL A45Bh
405A  8B 46 FA                  MOV  AX, [BP-06h]
405D  B9 00 01                  MOV  CX, 0100h
4060  E8 9E 71                  CALL B201h
4063  97                        XCHG AX, DI
4064  8A 43 04                  MOV  AL, [BP+DI+04h]
4067  32 E4                     XOR  AH, AH
4069  B9 00 00                  MOV  CX, 0000h
406C  BA FF 00                  MOV  DX, 00FFh
406F  E8 99 71                  CALL B20Bh
4072  50                        PUSH AX
4073  E8 8D B9                  CALL FA03h
4076  A0 5A 58                  MOV  AL, [585Ah]
4079  32 E4                     XOR  AH, AH
407B  0B C0                     OR   AX, AX
407D  75 03                     JNZ  4082h
407F  E9 43 00                  JMP  40C5h
4082  8B 46 FA                  MOV  AX, [BP-06h]
4085  B9 00 01                  MOV  CX, 0100h
4088  E8 76 71                  CALL B201h
408B  97                        XCHG AX, DI
408C  E8 11 87                  CALL C7A0h
408F  8A 43 04                  MOV  AL, [BP+DI+04h]
4092  32 E4                     XOR  AH, AH
4094  50                        PUSH AX
4095  B8 00 00                  MOV  AX, 0000h
4098  E8 4A 8A                  CALL CAE5h
409B  E8 CC 71                  CALL B26Ah
409E  8B 46 FA                  MOV  AX, [BP-06h]
40A1  B9 00 01                  MOV  CX, 0100h
40A4  E8 5A 71                  CALL B201h
40A7  97                        XCHG AX, DI
40A8  8A 43 04                  MOV  AL, [BP+DI+04h]
40AB  32 E4                     XOR  AH, AH
40AD  3D 0D 00                  CMP  AX, 000Dh
40B0  74 03                     JZ   40B5h
40B2  E9 10 00                  JMP  40C5h
40B5  E8 E8 86                  CALL C7A0h
40B8  B8 0A 00                  MOV  AX, 000Ah
40BB  50                        PUSH AX
40BC  B8 00 00                  MOV  AX, 0000h
40BF  E8 23 8A                  CALL CAE5h
40C2  E8 A5 71                  CALL B26Ah
40C5  E8 24 6F                  CALL AFECh
40C8  75 03                     JNZ  40CDh
40CA  E9 14 00                  JMP  40E1h
40CD  BF 4A 01                  MOV  DI, 014Ah
40D0  1E                        PUSH DS
40D1  E8 AF 86                  CALL C783h
40D4  BF 41 58                  MOV  DI, 5841h
40D7  1E                        PUSH DS
40D8  E8 CF 88                  CALL C9AAh
40DB  E8 8C 71                  CALL B26Ah
40DE  E8 06 90                  CALL D0E7h
40E1  E9 3E FF                  JMP  4022h
40E4  A1 6C 02                  MOV  AX, [026Ch]
40E7  A3 6E 02                  MOV  [026Eh], AX
40EA  E9 00 00                  JMP  40EDh
40ED  8B E5                     MOV  SP, BP
40EF  5D                        POP  BP
40F0  C2 00 01                  RET  0100h
40F3  81 EC 09 01               SUB  SP, 0109h
40F7  B8 01 00                  MOV  AX, 0001h
40FA  50                        PUSH AX
40FB  B8 01 00                  MOV  AX, 0001h
40FE  50                        PUSH AX
40FF  B8 50 00                  MOV  AX, 0050h
4102  50                        PUSH AX
4103  B8 18 00                  MOV  AX, 0018h
4106  50                        PUSH AX
4107  E8 23 73                  CALL B42Dh
4139  B1 46                     MOV  CL, 46h
413B  E8 47 73                  CALL B485h
413E  E8 BE 9F                  CALL E0FFh
4141  B8 01 00                  MOV  AX, 0001h
4144  B9 00 00                  MOV  CX, 0000h
4147  BA 01 00                  MOV  DX, 0001h
414A  E8 BE 70                  CALL B20Bh
414D  A2 A3 02                  MOV  [02A3h], AL
4150  E8 4D 86                  CALL C7A0h
4153  E8 4F 8A                  CALL CBA5h
4156  1D 20 45                  SBB  AX, 4520h
4174  E8 F3 70                  CALL B26Ah
4177  E8 55 86                  CALL C7CFh
417A  BF C5 53                  MOV  DI, 53C5h
417D  1E                        PUSH DS
417E  B1 50                     MOV  CL, 50h
4180  E8 78 88                  CALL C9FBh
4183  E8 E4 70                  CALL B26Ah
4186  BF C5 53                  MOV  DI, 53C5h
4189  1E                        PUSH DS
418A  E8 87 72                  CALL B414h
418D  E8 36 74                  CALL B5C6h
4190  3D 00 00                  CMP  AX, 0000h
4193  74 03                     JZ   4198h
4195  E9 06 00                  JMP  419Eh
4198  E8 17 A1                  CALL E2B2h
419B  E9 70 04                  JMP  460Eh
419E  B8 01 00                  MOV  AX, 0001h
41A1  50                        PUSH AX
41A2  BF C5 53                  MOV  DI, 53C5h
41A5  1E                        PUSH DS
41A6  E8 6B 72                  CALL B414h
41A9  E8 1A 74                  CALL B5C6h
41AC  59                        POP  CX
41AD  91                        XCHG AX, CX
41AE  2B C8                     SUB  CX, AX
41B0  7D 03                     JGE  41B5h
41B2  E9 3B 00                  JMP  41F0h
41B5  41                        INC  CX
41B6  89 46 F6                  MOV  [BP-0Ah], AX
41B9  51                        PUSH CX
41BA  8B 46 F6                  MOV  AX, [BP-0Ah]
41BD  B9 51 00                  MOV  CX, 0051h
41C0  E8 3E 70                  CALL B201h
41C3  97                        XCHG AX, DI
41C4  57                        PUSH DI
41C5  8B 46 F6                  MOV  AX, [BP-0Ah]
41C8  B9 51 00                  MOV  CX, 0051h
41CB  E8 33 70                  CALL B201h
41CE  97                        XCHG AX, DI
41CF  8A 85 C5 53               MOV  AL, [DI+53C5h]
41D3  32 E4                     XOR  AH, AH
41D5  E8 DE 63                  CALL A5B6h
41D8  5F                        POP  DI
41D9  B9 00 00                  MOV  CX, 0000h
41DC  BA FF 00                  MOV  DX, 00FFh
41DF  E8 29 70                  CALL B20Bh
41E2  88 85 C5 53               MOV  [DI+53C5h], AL
41E9  06                        PUSH ES
41EA  FF 46 F6                  INC  [BP-0Ah]
41ED  E9 C9 FF                  JMP  41B9h
41F0  BF 50 55                  MOV  DI, 5550h
41F3  1E                        PUSH DS
41F4  57                        PUSH DI
41F5  BF C5 53                  MOV  DI, 53C5h
41F8  1E                        PUSH DS
41F9  E8 18 72                  CALL B414h
41FC  E8 1E 83                  CALL C51Dh
41FF  E8 68 70                  CALL B26Ah
4202  BF 50 55                  MOV  DI, 5550h
4205  1E                        PUSH DS
4206  B9 80 00                  MOV  CX, 0080h
4209  E8 66 83                  CALL C572h
420C  E8 54 70                  CALL B263h
420F  3D 00 00                  CMP  AX, 0000h
4212  B8 01 00                  MOV  AX, 0001h
4215  74 01                     JZ   4218h
4217  48                        DEC  AX
4218  B9 00 00                  MOV  CX, 0000h
421B  BA 01 00                  MOV  DX, 0001h
421E  E8 EA 6F                  CALL B20Bh
4221  A2 8F 59                  MOV  [598Fh], AL
4224  A0 8F 59                  MOV  AL, [598Fh]
4227  32 E4                     XOR  AH, AH
4229  34 01                     XOR  AL, 01h
422B  75 03                     JNZ  4230h
422D  E9 2D 00                  JMP  425Dh
4230  E8 6D 85                  CALL C7A0h
4233  E8 6F 89                  CALL CBA5h
4236  13 20                     ADC  SP, [BX+SI]
424A  BF C5 53                  MOV  DI, 53C5h
424D  1E                        PUSH DS
424E  E8 C3 71                  CALL B414h
4251  B8 00 00                  MOV  AX, 0000h
4254  E8 17 89                  CALL CB6Eh
4257  E8 63 89                  CALL CBBDh
425A  E8 0D 70                  CALL B26Ah
425D  A0 8F 59                  MOV  AL, [598Fh]
4260  32 E4                     XOR  AH, AH
4262  0B C0                     OR   AX, AX
4264  75 03                     JNZ  4269h
4266  E9 E7 FE                  JMP  4150h
4269  B8 00 00                  MOV  AX, 0000h
426C  89 46 FC                  MOV  [BP-04h], AX
426F  B8 00 00                  MOV  AX, 0000h
4272  89 46 F8                  MOV  [BP-08h], AX
4275  E8 44 A1                  CALL E3BCh
4278  B8 05 00                  MOV  AX, 0005h
427B  50                        PUSH AX
427C  B8 18 00                  MOV  AX, 0018h
427F  E8 70 6D                  CALL AFF2h
4282  2E                        CS:
4283  A1 95 2E                  MOV  AX, [2E95h]
4286  E8 7A 63                  CALL A603h
4289  E8 14 85                  CALL C7A0h
428C  E8 16 89                  CALL CBA5h
428F  02 5B 20                  ADD  BL, [BP+DI+20h]
4292  8B 46 F8                  MOV  AX, [BP-08h]
4295  50                        PUSH AX
4296  B8 03 00                  MOV  AX, 0003h
4299  E8 65 88                  CALL CB01h
429C  E8 06 89                  CALL CBA5h
429F  10 4B 20                  ADC  [BP+DI+20h], CL
42B0  83 EC 06                  SUB  SP, 06h
42B3  BF C5 53                  MOV  DI, 53C5h
42B6  1E                        PUSH DS
42B7  E8 5A 71                  CALL B414h
42BA  B1 50                     MOV  CL, 50h
42BC  E8 C6 71                  CALL B485h
42BF  B8 00 03                  MOV  AX, 0300h
42C2  BA 23 00                  MOV  DX, 0023h
42C5  E8 14 EB                  CALL 2DDCh
42C8  B8 E8 03                  MOV  AX, 03E8h
42CB  E8 A9 7A                  CALL BD77h
42CE  E8 56 79                  CALL BC27h
42D1  B8 03 00                  MOV  AX, 0003h
42D4  50                        PUSH AX
42D5  B8 00 00                  MOV  AX, 0000h
42D8  E8 5B 88                  CALL CB36h
42DB  E8 C7 88                  CALL CBA5h
42DE  13 4B 20                  ADC  CX, [BP+DI+20h]
42F2  BF C5 53                  MOV  DI, 53C5h
42F5  1E                        PUSH DS
42F6  E8 1B 71                  CALL B414h
42F9  B8 00 00                  MOV  AX, 0000h
42FC  E8 6F 88                  CALL CB6Eh
42FF  E8 A3 88                  CALL CBA5h
4302  02 20                     ADD  AH, [BX+SI]
4304  5D                        POP  BP
4305  E8 62 6F                  CALL B26Ah
4308  2E                        CS:
4309  A1 8D 2E                  MOV  AX, [2E8Dh]
430C  E8 F4 62                  CALL A603h
430F  E8 F6 A0                  CALL E408h
4312  B8 01 00                  MOV  AX, 0001h
4315  B9 00 00                  MOV  CX, 0000h
4318  BA 01 00                  MOV  DX, 0001h
431B  E8 ED 6E                  CALL B20Bh
431E  A2 5A 58                  MOV  [585Ah], AL
4321  B8 01 00                  MOV  AX, 0001h
4324  50                        PUSH AX
4325  B8 02 00                  MOV  AX, 0002h
4328  E8 C7 6C                  CALL AFF2h
432B  E8 40 61                  CALL A46Eh
432E  E8 6F 84                  CALL C7A0h
4331  E8 89 88                  CALL CBBDh
4334  E8 33 6F                  CALL B26Ah
4337  E8 66 84                  CALL C7A0h
433A  E8 68 88                  CALL CBA5h
433D  1E                        PUSH DS
433E  20 20 20 20 20 20 20 20...  db  "             Lines Transmitted"
435C  E8 5E 88                  CALL CBBDh
435F  E8 08 6F                  CALL B26Ah
4362  E8 3B 84                  CALL C7A0h
4365  E8 3D 88                  CALL CBA5h
4368  1E                        PUSH DS
4369  20 20 20 20 20 20 20 20...  db  "             -----------------"
4387  E8 33 88                  CALL CBBDh
438A  E8 DD 6E                  CALL B26Ah
438D  BF 50 55                  MOV  DI, 5550h
4390  1E                        PUSH DS
4391  E8 42 88                  CALL CBD6h
4394  34 01                     XOR  AL, 01h
4396  50                        PUSH AX
4397  A0 A3 02                  MOV  AL, [02A3h]
439A  32 E4                     XOR  AH, AH
439C  59                        POP  CX
439D  23 C1                     AND  AX, CX
439F  0B C0                     OR   AX, AX
43A1  75 03                     JNZ  43A6h
43A3  E9 7D 01                  JMP  4523h
43A6  A0 7E 02                  MOV  AL, [027Eh]
43A9  32 E4                     XOR  AH, AH
43AB  0B C0                     OR   AX, AX
43AD  75 03                     JNZ  43B2h
43AF  E9 52 01                  JMP  4504h
43B2  B8 00 00                  MOV  AX, 0000h
43B5  89 46 F6                  MOV  [BP-0Ah], AX
43B8  BF E8 56                  MOV  DI, 56E8h
43BB  1E                        PUSH DS
43BC  57                        PUSH DI
43BD  E8 6D 70                  CALL B42Dh
43C0  00 B1 FF E8               ADD  [BX+DI-1701h], DH
43C4  7D 70                     JGE  4436h
43C6  BF 50 55                  MOV  DI, 5550h
43C9  1E                        PUSH DS
43CA  E8 FF 87                  CALL CBCCh
43CD  34 01                     XOR  AL, 01h
43CF  50                        PUSH AX
43D0  8B 46 F6                  MOV  AX, [BP-0Ah]
43D3  3D FE 00                  CMP  AX, 00FEh
43D6  B8 01 00                  MOV  AX, 0001h
43D9  7C 01                     JL   43DCh
43DB  48                        DEC  AX
43DC  59                        POP  CX
43DD  23 C1                     AND  AX, CX
43DF  50                        PUSH AX
43E0  A0 A3 02                  MOV  AL, [02A3h]
43E3  32 E4                     XOR  AH, AH
43E5  59                        POP  CX
43E6  23 C1                     AND  AX, CX
43E8  0B C0                     OR   AX, AX
43EA  75 03                     JNZ  43EFh
43EC  E9 3B 00                  JMP  442Ah
43EF  8B 46 F6                  MOV  AX, [BP-0Ah]
43F2  05 01 00                  ADD  AX, 0001h
43F5  89 46 F6                  MOV  [BP-0Ah], AX
43F8  BF 50 55                  MOV  DI, 5550h
43FB  1E                        PUSH DS
43FC  E8 84 83                  CALL C783h
43FF  8D 7E F5                  LEA  DI, [BP-0Bh]
4402  16                        PUSH SS
4403  E8 A4 85                  CALL C9AAh
4406  E8 61 6E                  CALL B26Ah
4409  BF E8 56                  MOV  DI, 56E8h
440C  1E                        PUSH DS
440D  57                        PUSH DI
440E  BF E8 56                  MOV  DI, 56E8h
4411  1E                        PUSH DS
4412  E8 FF 6F                  CALL B414h
4415  8A 46 F5                  MOV  AL, [BP-0Bh]
4418  32 E4                     XOR  AH, AH
441A  8A E0                     MOV  AH, AL
441C  B0 01                     MOV  AL, 01h
441E  50                        PUSH AX
441F  E8 23 71                  CALL B545h
4422  B1 FF                     MOV  CL, FFh
4424  E8 1C 70                  CALL B443h
4427  E9 9C FF                  JMP  43C6h
442A  8B 46 F6                  MOV  AX, [BP-0Ah]
442D  3D FE 00                  CMP  AX, 00FEh
4430  7C 03                     JL   4435h
4432  E9 19 00                  JMP  444Eh
4435  BF E8 56                  MOV  DI, 56E8h
4438  1E                        PUSH DS
4439  E8 D8 6F                  CALL B414h
443C  B8 01 0D                  MOV  AX, 0D01h
443F  50                        PUSH AX
4440  E8 02 71                  CALL B545h
4443  B1 FF                     MOV  CL, FFh
4445  E8 3D 70                  CALL B485h
4448  E8 C3 FB                  CALL 400Eh
444B  E9 0F 00                  JMP  445Dh
444E  BF E8 56                  MOV  DI, 56E8h
4451  1E                        PUSH DS
4452  E8 BF 6F                  CALL B414h
4455  B1 FF                     MOV  CL, FFh
4457  E8 2B 70                  CALL B485h
445A  E8 B1 FB                  CALL 400Eh
445D  BF 50 55                  MOV  DI, 5550h
4460  1E                        PUSH DS
4461  E8 1F 83                  CALL C783h
4464  8D BE F5 FE               LEA  DI, [BP-010Bh]
4468  16                        PUSH SS
4469  B1 FF                     MOV  CL, FFh
446B  E8 8D 85                  CALL C9FBh
446E  E8 DE 85                  CALL CA4Fh
4471  E8 F6 6D                  CALL B26Ah
4474  8B 46 FC                  MOV  AX, [BP-04h]
4477  50                        PUSH AX
4478  BF E8 56                  MOV  DI, 56E8h
447B  1E                        PUSH DS
447C  E8 95 6F                  CALL B414h
447F  E8 44 71                  CALL B5C6h
4482  59                        POP  CX
4483  03 C1                     ADD  AX, CX
4485  05 02 00                  ADD  AX, 0002h
4488  89 46 FC                  MOV  [BP-04h], AX
448B  8B 46 FC                  MOV  AX, [BP-04h]
448E  50                        PUSH AX
448F  B8 E8 03                  MOV  AX, 03E8h
4492  E8 E2 78                  CALL BD77h
4495  E8 E8 78                  CALL BD80h
4498  E8 8C 77                  CALL BC27h
449B  E8 A4 78                  CALL BD42h
449E  89 46 FA                  MOV  [BP-06h], AX
44A1  8B 46 FA                  MOV  AX, [BP-06h]
44A4  3B 46 F8                  CMP  AX, [BP-08h]
44A7  7F 03                     JG   44ACh
44A9  E9 4E 00                  JMP  44FAh
44AC  8B 46 FA                  MOV  AX, [BP-06h]
44AF  89 46 F8                  MOV  [BP-08h], AX
44B2  E8 07 9F                  CALL E3BCh
44B5  B8 05 00                  MOV  AX, 0005h
44B8  50                        PUSH AX
44B9  B8 18 00                  MOV  AX, 0018h
44BC  E8 33 6B                  CALL AFF2h
44BF  2E                        CS:
44C0  A1 95 2E                  MOV  AX, [2E95h]
44C3  E8 3D 61                  CALL A603h
44C6  E8 D7 82                  CALL C7A0h
44C9  E8 D9 86                  CALL CBA5h
44CC  02 5B 20                  ADD  BL, [BP+DI+20h]
44CF  8B 46 F8                  MOV  AX, [BP-08h]
44D2  50                        PUSH AX
44D3  B8 03 00                  MOV  AX, 0003h
44D6  E8 28 86                  CALL CB01h
44D9  E8 C9 86                  CALL CBA5h
44DC  10 4B 20                  ADC  [BP+DI+20h], CL
44ED  E8 7A 6D                  CALL B26Ah
44F0  2E                        CS:
44F1  A1 8D 2E                  MOV  AX, [2E8Dh]
44F4  E8 0C 61                  CALL A603h
44F7  E8 0E 9F                  CALL E408h
44FA  2E                        CS:
44FB  A1 D0 2D                  MOV  AX, [2DD0h]
44FE  E8 5A 5F                  CALL A45Bh
4501  E9 1C 00                  JMP  4520h
4504  E8 E5 6A                  CALL AFECh
4507  75 03                     JNZ  450Ch
4509  E9 14 00                  JMP  4520h
450C  BF 4A 01                  MOV  DI, 014Ah
450F  1E                        PUSH DS
4510  E8 70 82                  CALL C783h
4513  BF 41 58                  MOV  DI, 5841h
4516  1E                        PUSH DS
4517  E8 90 84                  CALL C9AAh
451A  E8 4D 6D                  CALL B26Ah
451D  E8 C7 8B                  CALL D0E7h
4520  E9 6A FE                  JMP  438Dh
4523  A0 A3 02                  MOV  AL, [02A3h]
4526  32 E4                     XOR  AH, AH
4528  0B C0                     OR   AX, AX
452A  75 03                     JNZ  452Fh
452C  E9 7F 00                  JMP  45AEh
452F  BF 50 55                  MOV  DI, 5550h
4532  1E                        PUSH DS
4533  E8 65 81                  CALL C69Bh
4536  E8 31 6D                  CALL B26Ah
4539  E8 64 82                  CALL C7A0h
453C  E8 7E 86                  CALL CBBDh
453F  E8 28 6D                  CALL B26Ah
4542  E8 5B 82                  CALL C7A0h
4545  E8 5D 86                  CALL CBA5h
4548  1F                        POP  DS
4549  20 57 61 69 74 69 6E 67...  db  " Waiting for buffer to drain..."
4568  E8 FF 6C                  CALL B26Ah
456B  A1 78 02                  MOV  AX, [0278h]
456E  3B 06 7A 02               CMP  AX, [027Ah]
4572  74 03                     JZ   4577h
4574  E9 F4 FF                  JMP  456Bh
4577  B8 DC 05                  MOV  AX, 05DCh
457A  E8 DE 5E                  CALL A45Bh
457D  B8 00 00                  MOV  AX, 0000h
4580  B9 00 00                  MOV  CX, 0000h
4583  BA 01 00                  MOV  DX, 0001h
4586  E8 82 6C                  CALL B20Bh
4589  A2 5A 58                  MOV  [585Ah], AL
458C  A1 6C 02                  MOV  AX, [026Ch]
458F  A3 6E 02                  MOV  [026Eh], AX
4592  E8 1D 9D                  CALL E2B2h
4595  B8 1A 00                  MOV  AX, 001Ah
4598  50                        PUSH AX
4599  B8 01 0D                  MOV  AX, 0D01h
459C  50                        PUSH AX
459D  E8 2B 71                  CALL B6CBh
45A0  E8 A2 6F                  CALL B545h
45A3  B1 FF                     MOV  CL, FFh
45A5  E8 DD 6E                  CALL B485h
45A8  E8 63 FA                  CALL 400Eh
45AB  E9 60 00                  JMP  460Eh
45AE  BF 50 55                  MOV  DI, 5550h
45B1  1E                        PUSH DS
45B2  E8 E6 80                  CALL C69Bh
45B5  E8 B2 6C                  CALL B26Ah
45B8  A1 7A 02                  MOV  AX, [027Ah]
45BB  A3 78 02                  MOV  [0278h], AX
45BE  B8 00 00                  MOV  AX, 0000h
45C1  B9 00 00                  MOV  CX, 0000h
45C4  BA 01 00                  MOV  DX, 0001h
45C7  E8 41 6C                  CALL B20Bh
45CA  A2 5A 58                  MOV  [585Ah], AL
45CD  A1 6C 02                  MOV  AX, [026Ch]
45D0  A3 6E 02                  MOV  [026Eh], AX
45D3  B8 00 00                  MOV  AX, 0000h
45D6  B9 00 00                  MOV  CX, 0000h
45D9  BA 01 00                  MOV  DX, 0001h
45DC  E8 2C 6C                  CALL B20Bh
45DF  A2 7C 02                  MOV  [027Ch], AL
45E2  A1 8C 02                  MOV  AX, [028Ch]
45E5  50                        PUSH AX
45E6  2E                        CS:
45E7  A1 AF 2D                  MOV  AX, [2DAFh]
45EA  5A                        POP  DX
45EB  EE                        OUT  DX, AL
45EC  E8 C3 9C                  CALL E2B2h
45EF  B8 01 00                  MOV  AX, 0001h
45F2  B9 00 00                  MOV  CX, 0000h
45F5  BA 01 00                  MOV  DX, 0001h
45F8  E8 10 6C                  CALL B20Bh
45FB  A2 A3 02                  MOV  [02A3h], AL
45FE  B8 0D 00                  MOV  AX, 000Dh
4601  8A E0                     MOV  AH, AL
4603  B0 01                     MOV  AL, 01h
4605  50                        PUSH AX
4606  B1 FF                     MOV  CL, FFh
4608  E8 7A 6E                  CALL B485h
460B  E8 00 FA                  CALL 400Eh
460E  E9 00 00                  JMP  4611h
4611  8B E5                     MOV  SP, BP
4613  5D                        POP  BP
4614  C3                        RET
4615  00 00                     ADD  [BX+SI], AL
4617  00 00                     ADD  [BX+SI], AL
4619  00 00                     ADD  [BX+SI], AL
461B  00 00                     ADD  [BX+SI], AL
461D  00 00                     ADD  [BX+SI], AL
461F  00 00                     ADD  [BX+SI], AL
4621  00 00                     ADD  [BX+SI], AL
4623  00 00                     ADD  [BX+SI], AL
4625  00 00                     ADD  [BX+SI], AL
4627  00 00                     ADD  [BX+SI], AL
4629  00 00                     ADD  [BX+SI], AL
462B  00 00                     ADD  [BX+SI], AL
462D  00 00                     ADD  [BX+SI], AL
462F  00 00                     ADD  [BX+SI], AL
4631  00 00                     ADD  [BX+SI], AL
4633  00 00                     ADD  [BX+SI], AL
4635  00 00                     ADD  [BX+SI], AL
4637  00 00                     ADD  [BX+SI], AL
4639  00 00                     ADD  [BX+SI], AL
463B  00 00                     ADD  [BX+SI], AL
463D  00 00                     ADD  [BX+SI], AL
463F  00 00                     ADD  [BX+SI], AL
4641  00 00                     ADD  [BX+SI], AL
4643  00 00                     ADD  [BX+SI], AL
4645  00 00                     ADD  [BX+SI], AL
4647  00 00                     ADD  [BX+SI], AL
4649  00 00                     ADD  [BX+SI], AL
464B  00 00                     ADD  [BX+SI], AL
464D  00 00                     ADD  [BX+SI], AL
464F  00 00                     ADD  [BX+SI], AL
4651  00 00                     ADD  [BX+SI], AL
4653  00 00                     ADD  [BX+SI], AL
4655  00 00                     ADD  [BX+SI], AL
4657  00 00                     ADD  [BX+SI], AL
4659  00 00                     ADD  [BX+SI], AL
465B  00 00                     ADD  [BX+SI], AL
465D  00 00                     ADD  [BX+SI], AL
465F  00 00                     ADD  [BX+SI], AL
4661  00 00                     ADD  [BX+SI], AL
4663  00 00                     ADD  [BX+SI], AL
4665  00 00                     ADD  [BX+SI], AL
4667  00 00                     ADD  [BX+SI], AL
4669  00 00                     ADD  [BX+SI], AL
466B  00 00                     ADD  [BX+SI], AL
466D  00 00                     ADD  [BX+SI], AL
466F  00 00                     ADD  [BX+SI], AL
4671  00 00                     ADD  [BX+SI], AL
4673  00 00                     ADD  [BX+SI], AL
4675  00 00                     ADD  [BX+SI], AL
4677  00 00                     ADD  [BX+SI], AL
4679  00 00                     ADD  [BX+SI], AL
467B  00 00                     ADD  [BX+SI], AL
467D  00 00                     ADD  [BX+SI], AL
467F  00 00                     ADD  [BX+SI], AL
4681  00 00                     ADD  [BX+SI], AL
4683  00 00                     ADD  [BX+SI], AL
4685  00 00                     ADD  [BX+SI], AL
4687  00 00                     ADD  [BX+SI], AL
4689  00 00                     ADD  [BX+SI], AL
468B  00 00                     ADD  [BX+SI], AL
468D  00 00                     ADD  [BX+SI], AL
468F  00 00                     ADD  [BX+SI], AL
4691  00 00                     ADD  [BX+SI], AL
4693  00 00                     ADD  [BX+SI], AL
4695  00 00                     ADD  [BX+SI], AL
4697  00 00                     ADD  [BX+SI], AL
4699  00 00                     ADD  [BX+SI], AL
469B  00 00                     ADD  [BX+SI], AL
469D  00 00                     ADD  [BX+SI], AL
469F  00 00                     ADD  [BX+SI], AL
46A1  00 00                     ADD  [BX+SI], AL
46A3  00 00                     ADD  [BX+SI], AL
46A5  00 00                     ADD  [BX+SI], AL
46A7  00 00                     ADD  [BX+SI], AL
46A9  00 00                     ADD  [BX+SI], AL
46AB  00 00                     ADD  [BX+SI], AL
46AD  00 00                     ADD  [BX+SI], AL
46AF  00 00                     ADD  [BX+SI], AL
46B1  00 00                     ADD  [BX+SI], AL
46B3  00 00                     ADD  [BX+SI], AL
46B5  00 00                     ADD  [BX+SI], AL
46B7  00 00                     ADD  [BX+SI], AL
46B9  00 00                     ADD  [BX+SI], AL
46BB  00 00                     ADD  [BX+SI], AL
46BD  00 00                     ADD  [BX+SI], AL
46BF  00 00                     ADD  [BX+SI], AL
46C1  00 00                     ADD  [BX+SI], AL
46C3  00 00                     ADD  [BX+SI], AL
46C5  00 00                     ADD  [BX+SI], AL
46C7  00 00                     ADD  [BX+SI], AL
46C9  00 00                     ADD  [BX+SI], AL
46CB  00 00                     ADD  [BX+SI], AL
46CD  00 00                     ADD  [BX+SI], AL
46CF  00 00                     ADD  [BX+SI], AL
46D1  00 00                     ADD  [BX+SI], AL
46D3  00 00                     ADD  [BX+SI], AL
46D5  00 00                     ADD  [BX+SI], AL
46D7  00 00                     ADD  [BX+SI], AL
46D9  00 00                     ADD  [BX+SI], AL
46DB  00 00                     ADD  [BX+SI], AL
46DD  00 00                     ADD  [BX+SI], AL
46DF  00 00                     ADD  [BX+SI], AL
46E1  00 00                     ADD  [BX+SI], AL
46E3  00 00                     ADD  [BX+SI], AL
46E5  00 00                     ADD  [BX+SI], AL
46E7  00 00                     ADD  [BX+SI], AL
46E9  00 00                     ADD  [BX+SI], AL
46EB  00 00                     ADD  [BX+SI], AL
46ED  00 00                     ADD  [BX+SI], AL
46EF  00 00                     ADD  [BX+SI], AL
46F1  00 00                     ADD  [BX+SI], AL
46F3  00 00                     ADD  [BX+SI], AL
46F5  00 00                     ADD  [BX+SI], AL
46F7  00 00                     ADD  [BX+SI], AL
46F9  00 00                     ADD  [BX+SI], AL
46FB  00 00                     ADD  [BX+SI], AL
46FD  00 00                     ADD  [BX+SI], AL
46FF  00 E8                     ADD  AL, CH
4701  11 6F E9                  ADC  [BX-17h], BP
4704  04 BF                     ADD  AL, BFh
4706  9D                        POPF
4707  55                        PUSH BP
4708  8B EC                     MOV  BP, SP
470A  55                        PUSH BP
470B  E9 00 00                  JMP  470Eh
470E  B8 01 00                  MOV  AX, 0001h
4711  50                        PUSH AX
4712  B8 01 00                  MOV  AX, 0001h
4715  50                        PUSH AX
4716  B8 50 00                  MOV  AX, 0050h
4719  50                        PUSH AX
471A  B8 18 00                  MOV  AX, 0018h
471D  50                        PUSH AX
471E  E8 0C 74                  CALL BB2Dh
4721  0E                        PUSH CS
4722  44 69 73 6B 20 44 69 72...  db  "Disk Directory"
4730  B1 46                     MOV  CL, 46h
4732  E8 50 74                  CALL BB85h
4735  E8 C7 A0                  CALL E7FFh
4738  B8 06 00                  MOV  AX, 0006h
473B  B9 00 00                  MOV  CX, 0000h
473E  BA FF 00                  MOV  DX, 00FFh
4741  E8 C7 71                  CALL B90Bh
4744  A2 6F 86                  MOV  [866Fh], AL
4747  B8 01 00                  MOV  AX, 0001h
474A  50                        PUSH AX
474B  B8 15 00                  MOV  AX, 0015h
474E  59                        POP  CX
474F  91                        XCHG AX, CX
4750  2B C8                     SUB  CX, AX
4752  7D 03                     JGE  4757h
4754  E9 2B 00                  JMP  4782h
4757  41                        INC  CX
4758  A3 71 85                  MOV  [8571h], AX
475B  51                        PUSH CX
475C  A1 71 85                  MOV  AX, [8571h]
475F  48                        DEC  AX
4760  B9 2B 00                  MOV  CX, 002Bh
4763  E8 9B 71                  CALL B901h
4766  97                        XCHG AX, DI
4767  B8 00 00                  MOV  AX, 0000h
476A  B9 00 00                  MOV  CX, 0000h
476D  BA FF 00                  MOV  DX, 00FFh
4770  E8 98 71                  CALL B90Bh
4773  88 85 CE 84               MOV  [DI-7B32h], AL
4777  59                        POP  CX
4778  49                        DEC  CX
4779  74 07                     JZ   4782h
477B  FF 06 71 85               INC  [8571h]
477F  E9 D9 FF                  JMP  475Bh
4782  B8 01 00                  MOV  AX, 0001h
4785  50                        PUSH AX
4786  B8 50 00                  MOV  AX, 0050h
4789  59                        POP  CX
478A  91                        XCHG AX, CX
478B  2B C8                     SUB  CX, AX
478D  7D 03                     JGE  4792h
478F  E9 49 00                  JMP  47DBh
4792  41                        INC  CX
4793  A3 71 85                  MOV  [8571h], AX
4796  51                        PUSH CX
4797  A1 71 85                  MOV  AX, [8571h]
479A  48                        DEC  AX
479B  B9 50 00                  MOV  CX, 0050h
479E  E8 60 71                  CALL B901h
47A1  97                        XCHG AX, DI
47A2  57                        PUSH DI
47A3  B8 00 00                  MOV  AX, 0000h
47A6  5F                        POP  DI
47A7  B9 00 00                  MOV  CX, 0000h
47AA  BA FF 00                  MOV  DX, 00FFh
47AD  E8 5B 71                  CALL B90Bh
47B0  88 85 1F 86               MOV  [DI-79E1h], AL
47B4  A1 71 85                  MOV  AX, [8571h]
47B7  B9 51 00                  MOV  CX, 0051h
47BA  E8 44 71                  CALL B901h
47BD  97                        XCHG AX, DI
47BE  57                        PUSH DI
47BF  B8 00 00                  MOV  AX, 0000h
47C2  5F                        POP  DI
47C3  B9 00 00                  MOV  CX, 0000h
47C6  BA FF 00                  MOV  DX, 00FFh
47C9  E8 3F 71                  CALL B90Bh
47CC  88 85 C8 85               MOV  [DI-7A38h], AL
47D0  59                        POP  CX
47D1  49                        DEC  CX
47D2  74 07                     JZ   47DBh
47D4  FF 06 71 85               INC  [8571h]
47D8  E9 BB FF                  JMP  4796h
47DB  B8 00 00                  MOV  AX, 0000h
47DE  B9 00 00                  MOV  CX, 0000h
47E1  BA FF 00                  MOV  DX, 00FFh
47E4  E8 24 71                  CALL B90Bh
47E7  A2 C8 85                  MOV  [85C8h], AL
47EA  BF 67 85                  MOV  DI, 8567h
47ED  1E                        PUSH DS
47EE  57                        PUSH DI
47EF  BF 69 85                  MOV  DI, 8569h
47F2  1E                        PUSH DS
47F3  57                        PUSH DI
47F4  BF 6F 85                  MOV  DI, 856Fh
47F7  1E                        PUSH DS
47F8  57                        PUSH DI
47F9  E8 9E B3                  CALL FB9Ah
47FC  A1 6F 85                  MOV  AX, [856Fh]
47FF  3D 00 00                  CMP  AX, 0000h
4802  75 03                     JNZ  4807h
4804  E9 43 00                  JMP  484Ah
4807  E8 96 86                  CALL CEA0h
480A  E8 98 8A                  CALL D2A5h
480D  19 55 6E                  SBB  [DI+6Eh], DX
4827  E8 93 8A                  CALL D2BDh
482A  E8 73 86                  CALL CEA0h
482D  E8 75 8A                  CALL D2A5h
4830  11 50 72                  ADC  [BX+SI+72h], DX
4842  E8 78 8A                  CALL D2BDh
4845  33 C0                     XOR  AX, AX
4847  E9 87 6D                  JMP  B5D1h
484A  8C D8                     MOV  AX, DS
484C  A3 6B 85                  MOV  [856Bh], AX
484F  BF CE 84                  MOV  DI, 84CEh
4852  97                        XCHG AX, DI
4853  A3 6D 85                  MOV  [856Dh], AX
4856  A1 6B 85                  MOV  AX, [856Bh]
4859  50                        PUSH AX
485A  A1 6D 85                  MOV  AX, [856Dh]
485D  50                        PUSH AX
485E  BF 6F 85                  MOV  DI, 856Fh
4861  1E                        PUSH DS
4862  57                        PUSH DI
4863  E8 F6 B2                  CALL FB5Ch
4866  A1 6F 85                  MOV  AX, [856Fh]
4869  3D 00 00                  CMP  AX, 0000h
486C  75 03                     JNZ  4871h
486E  E9 3A 00                  JMP  48ABh
4871  E8 2C 86                  CALL CEA0h
4874  E8 2E 8A                  CALL D2A5h
4877  10 43 61                  ADC  [BP+DI+61h], AL
4888  E8 32 8A                  CALL D2BDh
488B  E8 12 86                  CALL CEA0h
488E  E8 14 8A                  CALL D2A5h
4891  11 50 72                  ADC  [BX+SI+72h], DX
48A3  E8 17 8A                  CALL D2BDh
48A6  33 C0                     XOR  AX, AX
48A8  E9 26 6D                  JMP  B5D1h
48AB  B8 00 00                  MOV  AX, 0000h
48AE  A3 6F 85                  MOV  [856Fh], AX
48B1  B8 00 00                  MOV  AX, 0000h
48B4  B9 00 00                  MOV  CX, 0000h
48B7  BA FF 00                  MOV  DX, 00FFh
48BA  E8 4E 70                  CALL B90Bh
48BD  A2 77 85                  MOV  [8577h], AL
48C0  B8 FF 00                  MOV  AX, 00FFh
48C3  A3 75 85                  MOV  [8575h], AX
48C6  E8 1E B2                  CALL FAE7h
48C9  E8 D4 85                  CALL CEA0h
48CC  E8 D6 89                  CALL D2A5h
48CF  1A 20                     SBB  AH, [BX+SI]
48EA  E8 E2 85                  CALL CECFh
48ED  BF 77 85                  MOV  DI, 8577h
48F0  1E                        PUSH DS
48F1  B1 50                     MOV  CL, 50h
48F3  E8 05 88                  CALL D0FBh
48F6  E8 A7 85                  CALL CEA0h
48F9  E8 C1 89                  CALL D2BDh
48FC  BF 77 85                  MOV  DI, 8577h
48FF  1E                        PUSH DS
4900  E8 11 72                  CALL BB14h
4903  E8 C0 73                  CALL BCC6h
4906  3D 00 00                  CMP  AX, 0000h
4909  74 03                     JZ   490Eh
490B  E9 14 00                  JMP  4922h
490E  BF 77 85                  MOV  DI, 8577h
4911  1E                        PUSH DS
4912  57                        PUSH DI
4913  E8 17 72                  CALL BB2Dh
4916  03 2A                     ADD  BP, [BP+SI]
4918  2E                        CS:
4919  2A B1 50 E8               SUB  DH, [BX+DI-17B0h]
491D  24 72                     AND  AL, 72h
491F  E9 3F 00                  JMP  4961h
4922  BF 77 85                  MOV  DI, 8577h
4925  1E                        PUSH DS
4926  E8 EB 71                  CALL BB14h
4929  BF 77 85                  MOV  DI, 8577h
492C  1E                        PUSH DS
492D  E8 E4 71                  CALL BB14h
4930  E8 93 73                  CALL BCC6h
4933  50                        PUSH AX
4934  B8 01 00                  MOV  AX, 0001h
4937  E8 4D 73                  CALL BC87h
493A  B8 01 3A                  MOV  AX, 3A01h
493D  50                        PUSH AX
493E  E8 81 72                  CALL BBC2h
4941  75 03                     JNZ  4946h
4943  E9 1B 00                  JMP  4961h
4946  BF 77 85                  MOV  DI, 8577h
4949  1E                        PUSH DS
494A  57                        PUSH DI
494B  BF 77 85                  MOV  DI, 8577h
494E  1E                        PUSH DS
494F  E8 C2 71                  CALL BB14h
4952  E8 D8 71                  CALL BB2Dh
4955  03 2A                     ADD  BP, [BP+SI]
4957  2E                        CS:
4958  2A E8                     SUB  CH, AL
495A  E9 72 B1                  JMP  FACFh
495D  50                        PUSH AX
495E  E8 E2 71                  CALL BB43h
4961  B8 01 00                  MOV  AX, 0001h
4964  50                        PUSH AX
4965  BF 77 85                  MOV  DI, 8577h
4968  1E                        PUSH DS
4969  E8 A8 71                  CALL BB14h
496C  E8 57 73                  CALL BCC6h
496F  59                        POP  CX
4970  91                        XCHG AX, CX
4971  2B C8                     SUB  CX, AX
4973  7D 03                     JGE  4978h
4975  E9 3A 00                  JMP  49B2h
4978  41                        INC  CX
4979  A3 71 85                  MOV  [8571h], AX
497C  51                        PUSH CX
497D  A1 71 85                  MOV  AX, [8571h]
4980  48                        DEC  AX
4981  B9 50 00                  MOV  CX, 0050h
4984  E8 7A 6F                  CALL B901h
4987  97                        XCHG AX, DI
4988  57                        PUSH DI
4989  A1 71 85                  MOV  AX, [8571h]
498C  B9 51 00                  MOV  CX, 0051h
498F  E8 6F 6F                  CALL B901h
4992  97                        XCHG AX, DI
4993  8A 85 77 85               MOV  AL, [DI-7A89h]
4997  32 E4                     XOR  AH, AH
4999  5F                        POP  DI
499A  B9 00 00                  MOV  CX, 0000h
499D  BA FF 00                  MOV  DX, 00FFh
49A0  E8 68 6F                  CALL B90Bh
49A3  88 85 1F 86               MOV  [DI-79E1h], AL
49A7  59                        POP  CX
49A8  49                        DEC  CX
49A9  74 07                     JZ   49B2h
49AB  FF 06 71 85               INC  [8571h]
49AF  E9 CA FF                  JMP  497Ch
49B2  BF 1F 86                  MOV  DI, 861Fh
49B5  1E                        PUSH DS
49B6  B9 50 00                  MOV  CX, 0050h
49B9  E8 BD 6E                  CALL B879h
49BC  BF C8 85                  MOV  DI, 85C8h
49BF  1E                        PUSH DS
49C0  57                        PUSH DI
49C1  BF 19 86                  MOV  DI, 8619h
49C4  1E                        PUSH DS
49C5  57                        PUSH DI
49C6  A1 6B 85                  MOV  AX, [856Bh]
49C9  50                        PUSH AX
49CA  A1 6D 85                  MOV  AX, [856Dh]
49CD  50                        PUSH AX
49CE  A1 75 85                  MOV  AX, [8575h]
49D1  50                        PUSH AX
49D2  BF 6F 85                  MOV  DI, 856Fh
49D5  1E                        PUSH DS
49D6  57                        PUSH DI
49D7  E8 04 B2                  CALL FBDEh
49DA  A1 6F 85                  MOV  AX, [856Fh]
49DD  3D 00 00                  CMP  AX, 0000h
49E0  74 03                     JZ   49E5h
49E2  E9 89 00                  JMP  4A6Eh
49E5  A0 6F 86                  MOV  AL, [866Fh]
49E8  32 E4                     XOR  AH, AH
49EA  50                        PUSH AX
49EB  E8 D9 62                  CALL ACC7h
49EE  E8 01 6D                  CALL B6F2h
49F1  E8 AC 84                  CALL CEA0h
49F4  BF C8 85                  MOV  DI, 85C8h
49F7  1E                        PUSH DS
49F8  E8 19 71                  CALL BB14h
49FB  B8 00 00                  MOV  AX, 0000h
49FE  E8 6D 88                  CALL D26Eh
4A01  A0 6F 86                  MOV  AL, [866Fh]
4A04  32 E4                     XOR  AH, AH
4A06  05 0D 00                  ADD  AX, 000Dh
4A09  B9 00 00                  MOV  CX, 0000h
4A0C  BA FF 00                  MOV  DX, 00FFh
4A0F  E8 F9 6E                  CALL B90Bh
4A12  A2 6F 86                  MOV  [866Fh], AL
4A15  A0 6F 86                  MOV  AL, [866Fh]
4A18  32 E4                     XOR  AH, AH
4A1A  50                        PUSH AX
4A1B  E8 A9 62                  CALL ACC7h
4A1E  E8 D1 6C                  CALL B6F2h
4A21  E8 7C 84                  CALL CEA0h
4A24  BF 19 86                  MOV  DI, 8619h
4A27  1E                        PUSH DS
4A28  E8 90 78                  CALL C2BBh
4A2B  B8 07 00                  MOV  AX, 0007h
4A2E  50                        PUSH AX
4A2F  B8 00 00                  MOV  AX, 0000h
4A32  E8 01 88                  CALL D236h
4A35  A0 6F 86                  MOV  AL, [866Fh]
4A38  32 E4                     XOR  AH, AH
4A3A  05 0B 00                  ADD  AX, 000Bh
4A3D  B9 00 00                  MOV  CX, 0000h
4A40  BA FF 00                  MOV  DX, 00FFh
4A43  E8 C5 6E                  CALL B90Bh
4A46  A2 6F 86                  MOV  [866Fh], AL
4A49  A0 6F 86                  MOV  AL, [866Fh]
4A4C  32 E4                     XOR  AH, AH
4A4E  3D 46 00                  CMP  AX, 0046h
4A51  7F 03                     JG   4A56h
4A53  E9 15 00                  JMP  4A6Bh
4A56  B8 06 00                  MOV  AX, 0006h
4A59  B9 00 00                  MOV  CX, 0000h
4A5C  BA FF 00                  MOV  DX, 00FFh
4A5F  E8 A9 6E                  CALL B90Bh
4A62  A2 6F 86                  MOV  [866Fh], AL
4A65  E8 38 84                  CALL CEA0h
4A68  E8 52 88                  CALL D2BDh
4A6B  E9 30 00                  JMP  4A9Eh
4A6E  E8 2F 84                  CALL CEA0h
4A71  E8 31 88                  CALL D2A5h
4A74  09 20                     OR   [BX+SI], SP
4A7E  BF 77 85                  MOV  DI, 8577h
4A81  1E                        PUSH DS
4A82  E8 8F 70                  CALL BB14h
4A85  B8 00 00                  MOV  AX, 0000h
4A88  E8 E3 87                  CALL D26Eh
4A8B  E8 17 88                  CALL D2A5h
4A8E  0C 27                     OR   AL, 27h
4A9B  E8 1F 88                  CALL D2BDh
4A9E  A1 6F 85                  MOV  AX, [856Fh]
4AA1  3D 00 00                  CMP  AX, 0000h
4AA4  74 03                     JZ   4AA9h
4AA6  E9 B2 00                  JMP  4B5Bh
4AA9  BF C8 85                  MOV  DI, 85C8h
4AAC  1E                        PUSH DS
4AAD  57                        PUSH DI
4AAE  BF 19 86                  MOV  DI, 8619h
4AB1  1E                        PUSH DS
4AB2  57                        PUSH DI
4AB3  A1 6B 85                  MOV  AX, [856Bh]
4AB6  50                        PUSH AX
4AB7  A1 6D 85                  MOV  AX, [856Dh]
4ABA  50                        PUSH AX
4ABB  A1 75 85                  MOV  AX, [8575h]
4ABE  50                        PUSH AX
4ABF  BF 6F 85                  MOV  DI, 856Fh
4AC2  1E                        PUSH DS
4AC3  57                        PUSH DI
4AC4  E8 98 B2                  CALL FD5Fh
4AC7  A1 6F 85                  MOV  AX, [856Fh]
4ACA  3D 00 00                  CMP  AX, 0000h
4ACD  74 03                     JZ   4AD2h
4ACF  E9 86 00                  JMP  4B58h
4AD2  A0 6F 86                  MOV  AL, [866Fh]
4AD5  32 E4                     XOR  AH, AH
4AD7  50                        PUSH AX
4AD8  E8 EC 61                  CALL ACC7h
4ADB  E8 14 6C                  CALL B6F2h
4ADE  E8 BF 83                  CALL CEA0h
4AE1  BF C8 85                  MOV  DI, 85C8h
4AE4  1E                        PUSH DS
4AE5  E8 2C 70                  CALL BB14h
4AE8  B8 00 00                  MOV  AX, 0000h
4AEB  E8 80 87                  CALL D26Eh
4AEE  A0 6F 86                  MOV  AL, [866Fh]
4AF1  32 E4                     XOR  AH, AH
4AF3  05 0D 00                  ADD  AX, 000Dh
4AF6  B9 00 00                  MOV  CX, 0000h
4AF9  BA FF 00                  MOV  DX, 00FFh
4AFC  E8 0C 6E                  CALL B90Bh
4AFF  A2 6F 86                  MOV  [866Fh], AL
4B02  A0 6F 86                  MOV  AL, [866Fh]
4B05  32 E4                     XOR  AH, AH
4B07  50                        PUSH AX
4B08  E8 BC 61                  CALL ACC7h
4B0B  E8 E4 6B                  CALL B6F2h
4B0E  E8 8F 83                  CALL CEA0h
4B11  BF 19 86                  MOV  DI, 8619h
4B14  1E                        PUSH DS
4B15  E8 A3 77                  CALL C2BBh
4B18  B8 07 00                  MOV  AX, 0007h
4B1B  50                        PUSH AX
4B1C  B8 00 00                  MOV  AX, 0000h
4B1F  E8 14 87                  CALL D236h
4B22  A0 6F 86                  MOV  AL, [866Fh]
4B25  32 E4                     XOR  AH, AH
4B27  05 0B 00                  ADD  AX, 000Bh
4B2A  B9 00 00                  MOV  CX, 0000h
4B2D  BA FF 00                  MOV  DX, 00FFh
4B30  E8 D8 6D                  CALL B90Bh
4B33  A2 6F 86                  MOV  [866Fh], AL
4B36  A0 6F 86                  MOV  AL, [866Fh]
4B39  32 E4                     XOR  AH, AH
4B3B  3D 46 00                  CMP  AX, 0046h
4B3E  7F 03                     JG   4B43h
4B40  E9 15 00                  JMP  4B58h
4B43  B8 06 00                  MOV  AX, 0006h
4B46  B9 00 00                  MOV  CX, 0000h
4B49  BA FF 00                  MOV  DX, 00FFh
4B4C  E8 BC 6D                  CALL B90Bh
4B4F  A2 6F 86                  MOV  [866Fh], AL
4B52  E8 4B 83                  CALL CEA0h
4B55  E8 65 87                  CALL D2BDh
4B58  E9 43 FF                  JMP  4A9Eh
4B5B  A1 67 85                  MOV  AX, [8567h]
4B5E  50                        PUSH AX
4B5F  A1 69 85                  MOV  AX, [8569h]
4B62  50                        PUSH AX
4B63  BF 6F 85                  MOV  DI, 856Fh
4B66  1E                        PUSH DS
4B67  57                        PUSH DI
4B68  E8 F1 AF                  CALL FB5Ch
4B6B  A0 6F 86                  MOV  AL, [866Fh]
4B6E  32 E4                     XOR  AH, AH
4B70  3D 04 00                  CMP  AX, 0004h
4B73  7F 03                     JG   4B78h
4B75  E9 06 00                  JMP  4B7Eh
4B78  E8 25 83                  CALL CEA0h
4B7B  E8 3F 87                  CALL D2BDh
4B7E  E8 1F 83                  CALL CEA0h
4B81  E8 39 87                  CALL D2BDh
4B84  E8 19 83                  CALL CEA0h
4B87  E8 1B 87                  CALL D2A5h
4B8A  14 20                     ADC  AL, 20h
4B9F  83 EC 06                  SUB  SP, 06h
4BA2  4C                        DEC  SP
4BA3  E8 C7 AE                  CALL FA6Dh
4BA6  B9 00 00                  MOV  CX, 0000h
4BA9  BA FF 00                  MOV  DX, 00FFh
4BAC  E8 5C 6D                  CALL B90Bh
4BAF  50                        PUSH AX
4BB0  E8 54 AE                  CALL FA07h
4BB3  E8 14 77                  CALL C2CAh
4BB6  8B 00                     MOV  AX, [BX+SI]
4BB8  00 00                     ADD  [BX+SI], AL
4BBA  00 00                     ADD  [BX+SI], AL
4BBC  E8 68 77                  CALL C327h
4BBF  E8 7C 78                  CALL C43Eh
4BC2  50                        PUSH AX
4BC3  B8 00 00                  MOV  AX, 0000h
4BC6  E8 38 86                  CALL D201h
4BC9  B8 6B 00                  MOV  AX, 006Bh
4BCC  50                        PUSH AX
4BCD  B8 00 00                  MOV  AX, 0000h
4BD0  E8 12 86                  CALL D1E5h
4BD3  E8 E7 86                  CALL D2BDh
4BD6  E8 C7 82                  CALL CEA0h
4BD9  E8 C9 86                  CALL D2A5h
4BDC  02 20                     ADD  AH, [BX+SI]
4BDE  20 E8                     AND  AL, CH
4BE0  F7 99 E8 CD               NEG  [BX+DI-3218h]
4BE4  9D                        POPF
4BE5  E9 00 00                  JMP  4BE8h
4BE8  8B E5                     MOV  SP, BP
4BEA  5D                        POP  BP
4BEB  C3                        RET
4BEC  00 00                     ADD  [BX+SI], AL
4BEE  00 00                     ADD  [BX+SI], AL
4BF0  00 00                     ADD  [BX+SI], AL
4BF2  00 00                     ADD  [BX+SI], AL
4BF4  00 00                     ADD  [BX+SI], AL
4BF6  00 00                     ADD  [BX+SI], AL
4BF8  00 00                     ADD  [BX+SI], AL
4BFA  00 00                     ADD  [BX+SI], AL
4BFC  00 00                     ADD  [BX+SI], AL
4BFE  00 00                     ADD  [BX+SI], AL
4C00  E8 11 6F                  CALL BB14h
4C03  D4 03                     AAM  03h
4C05  BF 9D 55                  MOV  DI, 559Dh
4C08  8B EC                     MOV  BP, SP
4C0A  55                        PUSH BP
4C0B  E9 00 00                  JMP  4C0Eh
4C0E  E8 8F 87                  CALL D3A0h
4C11  E8 A9 8B                  CALL D7BDh
4C14  E8 53 72                  CALL BE6Ah
4C17  E8 86 87                  CALL D3A0h
4C1A  E8 88 8B                  CALL D7A5h
4C1D  2B 20 20 20 20 31 20 3D...  db  "+    1 = Help menu for Communication Buffer."
4C49  E8 71 8B                  CALL D7BDh
4C4C  E8 1B 72                  CALL BE6Ah
4C4F  E8 4E 87                  CALL D3A0h
4C52  E8 50 8B                  CALL D7A5h
4C55  24 20 20 20 20 32 20 3D...  db  "$    2 = Help menu for Keyboard Edit."
4C7A  E8 40 8B                  CALL D7BDh
4C7D  E8 EA 71                  CALL BE6Ah
4C80  E8 1D 87                  CALL D3A0h
4C83  E8 1F 8B                  CALL D7A5h
4C86  1F                        POP  DS
4C87  20 20 20 20 58 20 3D 20...  db  "    X = EXit and return to DOS."
4CA6  E8 14 8B                  CALL D7BDh
4CA9  E8 BE 71                  CALL BE6Ah
4CAC  E8 F1 86                  CALL D3A0h
4CAF  E8 F3 8A                  CALL D7A5h
4CB2  23 20 20 20 20 43 20 3D...  db  "#    C = Toggle capture mode ON/OFF."
4CD6  E8 E4 8A                  CALL D7BDh
4CD9  E8 8E 71                  CALL BE6Ah
4CDC  E8 C1 86                  CALL D3A0h
4CDF  E8 C3 8A                  CALL D7A5h
4CE2  23 20 20 20 20 44 20 3D...  db  "#    D = Display the disk directory."
4D06  E8 B4 8A                  CALL D7BDh
4D09  E8 5E 71                  CALL BE6Ah
4D0C  E8 91 86                  CALL D3A0h
4D0F  E8 93 8A                  CALL D7A5h
4D12  23 20 20 20 20 4E 20 3D...  db  "#    N = New directory and/or drive."
4D36  E8 84 8A                  CALL D7BDh
4D39  E8 2E 71                  CALL BE6Ah
4D3C  E8 61 86                  CALL D3A0h
4D3F  E8 63 8A                  CALL D7A5h
4D42  1C 20                     SBB  AL, 20h
4D5F  E8 5B 8A                  CALL D7BDh
4D62  E8 05 71                  CALL BE6Ah
4D65  E8 38 86                  CALL D3A0h
4D68  E8 3A 8A                  CALL D7A5h
4D6B  26 20 20 20 20 53 20 3D...  db  "&    S = Scroll Back Buffer Processing."
4D92  E8 28 8A                  CALL D7BDh
4D95  E8 D2 70                  CALL BE6Ah
4D98  E8 05 86                  CALL D3A0h
4D9B  E8 07 8A                  CALL D7A5h
4D9E  26 20 20 20 20 56 20 3D...  db  "&    V = View file or Toggle View file."
4DC5  E8 F5 89                  CALL D7BDh
4DC8  E8 9F 70                  CALL BE6Ah
4DCB  E8 D2 85                  CALL D3A0h
4DCE  E8 D4 89                  CALL D7A5h
4DD1  28 20 20 20 20 4B 20 3D...  db  "(    K = Kill file.   M = Macro key defs."
4DFA  E8 C0 89                  CALL D7BDh
4DFD  E8 6A 70                  CALL BE6Ah
4E00  E8 9D 85                  CALL D3A0h
4E03  E8 9F 89                  CALL D7A5h
4E06  27 20 20 20 20 48 20 3D...  db  "'    H = Help menu.   I = Change config."
4E2E  E8 8C 89                  CALL D7BDh
4E31  E8 36 70                  CALL BE6Ah
4E34  E8 69 85                  CALL D3A0h
4E37  E8 6B 89                  CALL D7A5h
4E3A  28 20 20 20 20 50 20 3D...  db  "(    P = Change communication parameters."
4E63  E8 57 89                  CALL D7BDh
4E66  E8 01 70                  CALL BE6Ah
4E69  E8 34 85                  CALL D3A0h
4E6C  E8 36 89                  CALL D7A5h
4E6F  26 20 20 20 20 54 20 3D...  db  "&    T = Transmit using ASCII XON/XOFF."
4E96  E8 24 89                  CALL D7BDh
4E99  E8 CE 6F                  CALL BE6Ah
4E9C  E8 01 85                  CALL D3A0h
4E9F  E8 03 89                  CALL D7A5h
4EA2  25 20 20 20 20 59 20 3D...  db  "%    Y = Transmit using YAPP protocal."
4EC8  E8 F2 88                  CALL D7BDh
4ECB  E8 9C 6F                  CALL BE6Ah
4ECE  E8 CF 84                  CALL D3A0h
4ED1  E8 D1 88                  CALL D7A5h
4ED4  23 20 20 20 20 41 20 3D...  db  "#    A = Alarms and Special Effects."
4EF8  E8 C2 88                  CALL D7BDh
4EFB  E8 6C 6F                  CALL BE6Ah
4EFE  E8 9F 84                  CALL D3A0h
4F01  E8 A1 88                  CALL D7A5h
4F04  29 20 20 20 20 51 20 3D...  db  ")    Q = Toggle Keyboard Mode (Line/Char)."
4F2E  E8 8C 88                  CALL D7BDh
4F31  E8 36 6F                  CALL BE6Ah
4F34  E8 69 84                  CALL D3A0h
4F37  E8 6B 88                  CALL D7A5h
4F3A  28 20 20 20 20 46 20 3D...  db  "(    F = Toggle between FULL/HALF duplex."
4F63  E8 57 88                  CALL D7BDh
4F66  E8 01 6F                  CALL BE6Ah
4F69  E8 34 84                  CALL D3A0h
4F6C  E8 36 88                  CALL D7A5h
4F6F  28 20 20 20 20 42 20 3D...  db  "(    B = Send BREAK.  O = Other Commands."
4F98  E8 22 88                  CALL D7BDh
4F9B  E8 CC 6E                  CALL BE6Ah
4F9E  E8 FF 83                  CALL D3A0h
4FA1  E8 01 88                  CALL D7A5h
4FA4  1C 20                     SBB  AL, 20h
4FC1  E8 F9 87                  CALL D7BDh
4FC4  E8 A3 6E                  CALL BE6Ah
4FC7  E8 D6 83                  CALL D3A0h
4FCA  E8 F0 87                  CALL D7BDh
4FCD  E8 9A 6E                  CALL BE6Ah
4FD0  E9 00 00                  JMP  4FD3h
4FD3  8B E5                     MOV  SP, BP
4FD5  5D                        POP  BP
4FD6  C3                        RET
4FD7  00 00                     ADD  [BX+SI], AL
4FD9  00 00                     ADD  [BX+SI], AL
4FDB  00 00                     ADD  [BX+SI], AL
4FDD  00 00                     ADD  [BX+SI], AL
4FDF  00 00                     ADD  [BX+SI], AL
4FE1  00 00                     ADD  [BX+SI], AL
4FE3  00 00                     ADD  [BX+SI], AL
4FE5  00 00                     ADD  [BX+SI], AL
4FE7  00 00                     ADD  [BX+SI], AL
4FE9  00 00                     ADD  [BX+SI], AL
4FEB  00 00                     ADD  [BX+SI], AL
4FED  00 00                     ADD  [BX+SI], AL
4FEF  00 00                     ADD  [BX+SI], AL
4FF1  00 00                     ADD  [BX+SI], AL
4FF3  00 00                     ADD  [BX+SI], AL
4FF5  00 00                     ADD  [BX+SI], AL
4FF7  00 00                     ADD  [BX+SI], AL
4FF9  00 00                     ADD  [BX+SI], AL
4FFB  00 00                     ADD  [BX+SI], AL
4FFD  00 00                     ADD  [BX+SI], AL
4FFF  00 E8                     ADD  AL, CH
5001  11 6F 3A                  ADC  [BX+3Ah], BP
5004  01 BF 9D 55               ADD  [BX+559Dh], DI
5008  8B EC                     MOV  BP, SP
500A  55                        PUSH BP
500B  E9 00 00                  JMP  500Eh
500E  E8 8F 87                  CALL D7A0h
5011  E8 A9 8B                  CALL DBBDh
5014  E8 53 72                  CALL C26Ah
5017  E8 86 87                  CALL D7A0h
501A  E8 88 8B                  CALL DBA5h
501D  3B 20 28 48 6F 6D 65 29...  db  "; (Home)       = Toggle Auto Update of Communication Buffer."
5059  E8 61 8B                  CALL DBBDh
505C  E8 0B 72                  CALL C26Ah
505F  E8 3E 87                  CALL D7A0h
5062  E8 40 8B                  CALL DBA5h
5065  25 20 28 55 70 20 41 72...  db  "% (Up Arrow)   = Scroll Back One Line."
508B  E8 2F 8B                  CALL DBBDh
508E  E8 D9 71                  CALL C26Ah
5091  E8 0C 87                  CALL D7A0h
5094  E8 0E 8B                  CALL DBA5h
5097  28 20 28 44 6F 77 6E 20...  db  "( (Down Arrow) = Scroll Forward One Line."
50C0  E8 FA 8A                  CALL DBBDh
50C3  E8 A4 71                  CALL C26Ah
50C6  E8 D7 86                  CALL D7A0h
50C9  E8 D9 8A                  CALL DBA5h
50CC  25 20 28 50 61 67 65 20...  db  "% (Page Up)    = Scroll Back One Page."
50F2  E8 C8 8A                  CALL DBBDh
50F5  E8 72 71                  CALL C26Ah
50F8  E8 A5 86                  CALL D7A0h
50FB  E8 A7 8A                  CALL DBA5h
50FE  28 20 28 50 61 67 65 20...  db  "( (Page Down)  = Scroll Forward One Page."
5127  E8 93 8A                  CALL DBBDh
512A  E8 3D 71                  CALL C26Ah
512D  E8 70 86                  CALL D7A0h
5130  E8 8A 8A                  CALL DBBDh
5133  E8 34 71                  CALL C26Ah
5136  E9 00 00                  JMP  5139h
5139  8B E5                     MOV  SP, BP
513B  5D                        POP  BP
513C  C3                        RET
513D  00 00                     ADD  [BX+SI], AL
513F  00 00                     ADD  [BX+SI], AL
5141  00 00                     ADD  [BX+SI], AL
5143  00 00                     ADD  [BX+SI], AL
5145  00 00                     ADD  [BX+SI], AL
5147  00 00                     ADD  [BX+SI], AL
5149  00 00                     ADD  [BX+SI], AL
514B  00 00                     ADD  [BX+SI], AL
514D  00 00                     ADD  [BX+SI], AL
514F  00 00                     ADD  [BX+SI], AL
5151  00 00                     ADD  [BX+SI], AL
5153  00 00                     ADD  [BX+SI], AL
5155  00 00                     ADD  [BX+SI], AL
5157  00 00                     ADD  [BX+SI], AL
5159  00 00                     ADD  [BX+SI], AL
515B  00 00                     ADD  [BX+SI], AL
515D  00 00                     ADD  [BX+SI], AL
515F  00 00                     ADD  [BX+SI], AL
5161  00 00                     ADD  [BX+SI], AL
5163  00 00                     ADD  [BX+SI], AL
5165  00 00                     ADD  [BX+SI], AL
5167  00 00                     ADD  [BX+SI], AL
5169  00 00                     ADD  [BX+SI], AL
516B  00 00                     ADD  [BX+SI], AL
516D  00 00                     ADD  [BX+SI], AL
516F  00 00                     ADD  [BX+SI], AL
5171  00 00                     ADD  [BX+SI], AL
5173  00 00                     ADD  [BX+SI], AL
5175  00 00                     ADD  [BX+SI], AL
5177  00 00                     ADD  [BX+SI], AL
5179  00 00                     ADD  [BX+SI], AL
517B  00 00                     ADD  [BX+SI], AL
517D  00 00                     ADD  [BX+SI], AL
517F  00 00                     ADD  [BX+SI], AL
5181  00 00                     ADD  [BX+SI], AL
5183  00 00                     ADD  [BX+SI], AL
5185  00 00                     ADD  [BX+SI], AL
5187  00 00                     ADD  [BX+SI], AL
5189  00 00                     ADD  [BX+SI], AL
518B  00 00                     ADD  [BX+SI], AL
518D  00 00                     ADD  [BX+SI], AL
518F  00 00                     ADD  [BX+SI], AL
5191  00 00                     ADD  [BX+SI], AL
5193  00 00                     ADD  [BX+SI], AL
5195  00 00                     ADD  [BX+SI], AL
5197  00 00                     ADD  [BX+SI], AL
5199  00 00                     ADD  [BX+SI], AL
519B  00 00                     ADD  [BX+SI], AL
519D  00 00                     ADD  [BX+SI], AL
519F  00 00                     ADD  [BX+SI], AL
51A1  00 00                     ADD  [BX+SI], AL
51A3  00 00                     ADD  [BX+SI], AL
51A5  00 00                     ADD  [BX+SI], AL
51A7  00 00                     ADD  [BX+SI], AL
51A9  00 00                     ADD  [BX+SI], AL
51AB  00 00                     ADD  [BX+SI], AL
51AD  00 00                     ADD  [BX+SI], AL
51AF  00 00                     ADD  [BX+SI], AL
51B1  00 00                     ADD  [BX+SI], AL
51B3  00 00                     ADD  [BX+SI], AL
51B5  00 00                     ADD  [BX+SI], AL
51B7  00 00                     ADD  [BX+SI], AL
51B9  00 00                     ADD  [BX+SI], AL
51BB  00 00                     ADD  [BX+SI], AL
51BD  00 00                     ADD  [BX+SI], AL
51BF  00 00                     ADD  [BX+SI], AL
51C1  00 00                     ADD  [BX+SI], AL
51C3  00 00                     ADD  [BX+SI], AL
51C5  00 00                     ADD  [BX+SI], AL
51C7  00 00                     ADD  [BX+SI], AL
51C9  00 00                     ADD  [BX+SI], AL
51CB  00 00                     ADD  [BX+SI], AL
51CD  00 00                     ADD  [BX+SI], AL
51CF  00 00                     ADD  [BX+SI], AL
51D1  00 00                     ADD  [BX+SI], AL
51D3  00 00                     ADD  [BX+SI], AL
51D5  00 00                     ADD  [BX+SI], AL
51D7  00 00                     ADD  [BX+SI], AL
51D9  00 00                     ADD  [BX+SI], AL
51DB  00 00                     ADD  [BX+SI], AL
51DD  00 00                     ADD  [BX+SI], AL
51DF  00 00                     ADD  [BX+SI], AL
51E1  00 00                     ADD  [BX+SI], AL
51E3  00 00                     ADD  [BX+SI], AL
51E5  00 00                     ADD  [BX+SI], AL
51E7  00 00                     ADD  [BX+SI], AL
51E9  00 00                     ADD  [BX+SI], AL
51EB  00 00                     ADD  [BX+SI], AL
51ED  00 00                     ADD  [BX+SI], AL
51EF  00 00                     ADD  [BX+SI], AL
51F1  00 00                     ADD  [BX+SI], AL
51F3  00 00                     ADD  [BX+SI], AL
51F5  00 00                     ADD  [BX+SI], AL
51F7  00 00                     ADD  [BX+SI], AL
51F9  00 00                     ADD  [BX+SI], AL
51FB  00 00                     ADD  [BX+SI], AL
51FD  00 00                     ADD  [BX+SI], AL
51FF  00 E8                     ADD  AL, CH
5201  11 6F D6                  ADC  [BX-2Ah], BP
5204  02 BF 9D 55               ADD  BH, [BX+559Dh]
5208  8B EC                     MOV  BP, SP
520A  55                        PUSH BP
520B  E9 00 00                  JMP  520Eh
520E  E8 8F 87                  CALL D9A0h
5211  E8 A9 8B                  CALL DDBDh
5214  E8 53 72                  CALL C46Ah
5217  E8 86 87                  CALL D9A0h
521A  E8 88 8B                  CALL DDA5h
521D  2A 20 28 4C 65 66 74 20...  db  "* (Left Arrow)       = Move Cursor to Left."
5248  E8 72 8B                  CALL DDBDh
524B  E8 1C 72                  CALL C46Ah
524E  E8 4F 87                  CALL D9A0h
5251  E8 51 8B                  CALL DDA5h
5254  2B 20 28 52 69 67 68 74...  db  "+ (Right Arrow)      = Move Cursor to Right."
5280  E8 3A 8B                  CALL DDBDh
5283  E8 E4 71                  CALL C46Ah
5286  E8 17 87                  CALL D9A0h
5289  E8 19 8B                  CALL DDA5h
528C  29 20 28 49 6E 73 29 20...  db  ") (Ins)              = Toggle Insert Mode."
52B6  E8 04 8B                  CALL DDBDh
52B9  E8 AE 71                  CALL C46Ah
52BC  E8 E1 86                  CALL D9A0h
52BF  E8 E3 8A                  CALL DDA5h
52C2  2F 20 28 44 65 6C 29 20...  db  "/ (Del)              = Delete Current Character."
52F2  E8 C8 8A                  CALL DDBDh
52F5  E8 72 71                  CALL C46Ah
52F8  E8 A5 86                  CALL D9A0h
52FB  E8 A7 8A                  CALL DDA5h
52FE  30 20 28 42 61 63 6B 20...  db  "0 (Back Space)       = Delete Previous Character."
532F  E8 8B 8A                  CALL DDBDh
5332  E8 35 71                  CALL C46Ah
5335  E8 68 86                  CALL D9A0h
5338  E8 6A 8A                  CALL DDA5h
533B  28 20 28 43 6E 74 6C 20...  db  "( (Cntl Home)        = Beginning of Line."
5364  E8 56 8A                  CALL DDBDh
5367  E8 00 71                  CALL C46Ah
536A  E8 33 86                  CALL D9A0h
536D  E8 35 8A                  CALL DDA5h
5370  22 20 28 45 6E 64 29 20...  db  "" (End)              = End of Line."
5393  E8 27 8A                  CALL DDBDh
5396  E8 D1 70                  CALL C46Ah
5399  E8 04 86                  CALL D9A0h
539C  E8 06 8A                  CALL DDA5h
539F  26 20 28 43 6E 74 6C 20...  db  "& (Cntl Left Arrow)  = Tab Cursor Left."
53C6  E8 F4 89                  CALL DDBDh
53C9  E8 9E 70                  CALL C46Ah
53CC  E8 D1 85                  CALL D9A0h
53CF  E8 D3 89                  CALL DDA5h
53D2  27 20 28 43 6E 74 6C 20...  db  "' (Cntl Right Arrow) = Tab Cursor Right."
53FA  E8 C0 89                  CALL DDBDh
53FD  E8 6A 70                  CALL C46Ah
5400  E8 9D 85                  CALL D9A0h
5403  E8 9F 89                  CALL DDA5h
5406  37 20 28 43 6E 74 6C 20...  db  "7 (Cntl End)         = Erase from Cursor to End of Line."
543E  E8 7C 89                  CALL DDBDh
5441  E8 26 70                  CALL C46Ah
5444  E8 59 85                  CALL D9A0h
5447  E8 5B 89                  CALL DDA5h
544A  36 20 28 43 6E 74 6C 20...  db  "6 (Cntl Page Up)     = Scroll Keyboard Buffer Backward."
5481  E8 39 89                  CALL DDBDh
5484  E8 E3 6F                  CALL C46Ah
5487  E8 16 85                  CALL D9A0h
548A  E8 18 89                  CALL DDA5h
548D  35 20 28 43 6E 74 6C 20...  db  "5 (Cntl Page Down)   = Scroll Keyboard Buffer Forward."
54C3  E8 F7 88                  CALL DDBDh
54C6  E8 A1 6F                  CALL C46Ah
54C9  E8 D4 84                  CALL D9A0h
54CC  E8 EE 88                  CALL DDBDh
54CF  E8 98 6F                  CALL C46Ah
54D2  E9 00 00                  JMP  54D5h
54D5  8B E5                     MOV  SP, BP
54D7  5D                        POP  BP
54D8  C3                        RET
54D9  00 00                     ADD  [BX+SI], AL
54DB  00 00                     ADD  [BX+SI], AL
54DD  00 00                     ADD  [BX+SI], AL
54DF  00 00                     ADD  [BX+SI], AL
54E1  00 00                     ADD  [BX+SI], AL
54E3  00 00                     ADD  [BX+SI], AL
54E5  00 00                     ADD  [BX+SI], AL
54E7  00 00                     ADD  [BX+SI], AL
54E9  00 00                     ADD  [BX+SI], AL
54EB  00 00                     ADD  [BX+SI], AL
54ED  00 00                     ADD  [BX+SI], AL
54EF  00 00                     ADD  [BX+SI], AL
54F1  00 00                     ADD  [BX+SI], AL
54F3  00 00                     ADD  [BX+SI], AL
54F5  00 00                     ADD  [BX+SI], AL
54F7  00 00                     ADD  [BX+SI], AL
54F9  00 00                     ADD  [BX+SI], AL
54FB  00 00                     ADD  [BX+SI], AL
54FD  00 00                     ADD  [BX+SI], AL
54FF  00 E8                     ADD  AL, CH
5501  11 6F 86                  ADC  [BX-7Ah], BP
5504  07                        POP  ES
5505  BF 9D 55                  MOV  DI, 559Dh
5508  8B EC                     MOV  BP, SP
550A  55                        PUSH BP
550B  E9 EA 05                  JMP  5AF8h
550E  55                        PUSH BP
550F  8B C4                     MOV  AX, SP
5511  FF 76 FE                  PUSH  [BP-02h]
5514  8B E8                     MOV  BP, AX
5516  55                        PUSH BP
5517  E9 00 00                  JMP  551Ah
551A  83 EC 0E                  SUB  SP, 0Eh
551D  E8 80 87                  CALL DCA0h
5520  E8 9A 8B                  CALL E0BDh
5523  E8 44 72                  CALL C76Ah
5526  E8 77 87                  CALL DCA0h
5529  E8 91 8B                  CALL E0BDh
552C  E8 3B 72                  CALL C76Ah
552F  E8 6E 87                  CALL DCA0h
5532  E8 70 8B                  CALL E0A5h
5535  27 20 20 20 20 45 6E 74...  db  "'    Enter beginning line to display >  "
555D  E8 0A 72                  CALL C76Ah
5560  E8 70 87                  CALL DCD3h
5563  8D 7E EE                  LEA  DI, [BP-12h]
5566  16                        PUSH SS
5567  B1 0A                     MOV  CL, 0Ah
5569  E8 8F 89                  CALL DEFBh
556C  E8 FB 71                  CALL C76Ah
556F  4C                        DEC  SP
5570  4C                        DEC  SP
5571  8D 7E EE                  LEA  DI, [BP-12h]
5574  16                        PUSH SS
5575  E8 9C 73                  CALL C914h
5578  B8 01 20                  MOV  AX, 2001h
557B  50                        PUSH AX
557C  E8 C6 74                  CALL CA45h
557F  B1 FF                     MOV  CL, FFh
5581  E8 01 74                  CALL C985h
5584  E8 D2 91                  CALL E759h
5587  89 46 F9                  MOV  [BP-07h], AX
558A  E8 25 A2                  CALL F7B2h
558D  8B 46 F9                  MOV  AX, [BP-07h]
5590  3D 00 00                  CMP  AX, 0000h
5593  B8 01 00                  MOV  AX, 0001h
5596  7F 01                     JG   5599h
5598  48                        DEC  AX
5599  50                        PUSH AX
559A  8B 46 F9                  MOV  AX, [BP-07h]
559D  3B 06 E2 52               CMP  AX, [52E2h]
55A1  B8 01 00                  MOV  AX, 0001h
55A4  7E 01                     JLE  55A7h
55A6  48                        DEC  AX
55A7  59                        POP  CX
55A8  23 C1                     AND  AX, CX
55AA  0B C0                     OR   AX, AX
55AC  75 03                     JNZ  55B1h
55AE  E9 C6 00                  JMP  5677h
55B1  8B 46 F9                  MOV  AX, [BP-07h]
55B4  03 06 E8 52               ADD  AX, [52E8h]
55B8  2D 01 00                  SUB  AX, 0001h
55BB  A3 EC 52                  MOV  [52ECh], AX
55BE  A1 EC 52                  MOV  AX, [52ECh]
55C1  3B 06 E2 52               CMP  AX, [52E2h]
55C5  7F 03                     JG   55CAh
55C7  E9 0A 00                  JMP  55D4h
55CA  A1 EC 52                  MOV  AX, [52ECh]
55CD  2B 06 E2 52               SUB  AX, [52E2h]
55D1  A3 EC 52                  MOV  [52ECh], AX
55D4  B8 00 00                  MOV  AX, 0000h
55D7  B9 00 00                  MOV  CX, 0000h
55DA  BA 01 00                  MOV  DX, 0001h
55DD  E8 2B 71                  CALL C70Bh
55E0  A2 A0 91                  MOV  [91A0h], AL
55E3  B8 00 00                  MOV  AX, 0000h
55E6  B9 00 00                  MOV  CX, 0000h
55E9  BA 01 00                  MOV  DX, 0001h
55EC  E8 1C 71                  CALL C70Bh
55EF  A2 A1 91                  MOV  [91A1h], AL
55F2  B8 01 00                  MOV  AX, 0001h
55F5  50                        PUSH AX
55F6  A1 F0 52                  MOV  AX, [52F0h]
55F9  2D 01 00                  SUB  AX, 0001h
55FC  59                        POP  CX
55FD  91                        XCHG AX, CX
55FE  2B C8                     SUB  CX, AX
5600  7D 03                     JGE  5605h
5602  E9 1F 00                  JMP  5624h
5605  41                        INC  CX
5606  88 46 FB                  MOV  [BP-05h], AL
5609  51                        PUSH CX
560A  B8 01 00                  MOV  AX, 0001h
560D  B9 00 00                  MOV  CX, 0000h
5610  BA 01 00                  MOV  DX, 0001h
5613  E8 F5 70                  CALL C70Bh
5616  50                        PUSH AX
5617  E8 97 AB                  CALL 01B1h
561A  59                        POP  CX
561B  49                        DEC  CX
561C  74 06                     JZ   5624h
561E  FE 46 FB                  INC  [BP-05h]
5621  E9 E5 FF                  JMP  5609h
5624  B8 00 00                  MOV  AX, 0000h
5627  B9 00 00                  MOV  CX, 0000h
562A  BA 01 00                  MOV  DX, 0001h
562D  E8 DB 70                  CALL C70Bh
5630  A2 A0 91                  MOV  [91A0h], AL
5633  B8 00 00                  MOV  AX, 0000h
5636  B9 00 00                  MOV  CX, 0000h
5639  BA 01 00                  MOV  DX, 0001h
563C  E8 CC 70                  CALL C70Bh
563F  A2 A1 91                  MOV  [91A1h], AL
5642  B8 01 00                  MOV  AX, 0001h
5645  50                        PUSH AX
5646  A1 F0 52                  MOV  AX, [52F0h]
5649  2D 01 00                  SUB  AX, 0001h
564C  59                        POP  CX
564D  91                        XCHG AX, CX
564E  2B C8                     SUB  CX, AX
5650  7D 03                     JGE  5655h
5652  E9 1F 00                  JMP  5674h
5655  41                        INC  CX
5656  88 46 FB                  MOV  [BP-05h], AL
5659  51                        PUSH CX
565A  B8 01 00                  MOV  AX, 0001h
565D  B9 00 00                  MOV  CX, 0000h
5660  BA 01 00                  MOV  DX, 0001h
5663  E8 A5 70                  CALL C70Bh
5666  50                        PUSH AX
5667  E8 05 A8                  CALL FE6Fh
566A  59                        POP  CX
566B  49                        DEC  CX
566C  74 06                     JZ   5674h
566E  FE 46 FB                  INC  [BP-05h]
5671  E9 E5 FF                  JMP  5659h
5674  E8 83 A6                  CALL FCFAh
5677  E9 00 00                  JMP  567Ah
567A  8B E5                     MOV  SP, BP
567C  5D                        POP  BP
567D  C3                        RET
567E  55                        PUSH BP
567F  8B C4                     MOV  AX, SP
5681  FF 76 FE                  PUSH  [BP-02h]
5684  8B E8                     MOV  BP, AX
5686  55                        PUSH BP
5687  E9 00 00                  JMP  568Ah
568A  83 EC 72                  SUB  SP, 72h
568D  8D 7E 8C                  LEA  DI, [BP-74h]
5690  16                        PUSH SS
5691  57                        PUSH DI
5692  E8 98 72                  CALL C92Dh
5695  07                        POP  ES
5696  43 4F 4E 4E 45 43 54      db  "CONNECT"
569D  B1 50                     MOV  CL, 50h
569F  E8 A1 72                  CALL C943h
56A2  B8 02 00                  MOV  AX, 0002h
56A5  50                        PUSH AX
56A6  B8 08 00                  MOV  AX, 0008h
56A9  E8 46 6E                  CALL C4F2h
56AC  E8 F1 85                  CALL DCA0h
56AF  E8 F3 89                  CALL E0A5h
56B2  1C 45                     SBB  AL, 45h
56CF  E8 98 70                  CALL C76Ah
56D2  B8 03 00                  MOV  AX, 0003h
56D5  50                        PUSH AX
56D6  B8 09 00                  MOV  AX, 0009h
56D9  E8 16 6E                  CALL C4F2h
56DC  E8 C1 85                  CALL DCA0h
56DF  8D 7E 8C                  LEA  DI, [BP-74h]
56E2  16                        PUSH SS
56E3  E8 2E 72                  CALL C914h
56E6  B8 00 00                  MOV  AX, 0000h
56E9  E8 82 89                  CALL E06Eh
56EC  E8 7B 70                  CALL C76Ah
56EF  B8 03 00                  MOV  AX, 0003h
56F2  50                        PUSH AX
56F3  B8 09 00                  MOV  AX, 0009h
56F6  E8 F9 6D                  CALL C4F2h
56F9  8D 7E 8C                  LEA  DI, [BP-74h]
56FC  16                        PUSH SS
56FD  57                        PUSH DI
56FE  E8 09 92                  CALL E90Ah
5701  A0 EB 52                  MOV  AL, [52EBh]
5704  32 E4                     XOR  AH, AH
5706  0B C0                     OR   AX, AX
5708  75 03                     JNZ  570Dh
570A  E9 09 00                  JMP  5716h
570D  B8 01 00                  MOV  AX, 0001h
5710  89 46 EC                  MOV  [BP-14h], AX
5713  E9 2A 00                  JMP  5740h
5716  A1 E8 52                  MOV  AX, [52E8h]
5719  3B 06 EC 52               CMP  AX, [52ECh]
571D  7E 03                     JLE  5722h
571F  E9 10 00                  JMP  5732h
5722  A1 EC 52                  MOV  AX, [52ECh]
5725  2B 06 E8 52               SUB  AX, [52E8h]
5729  05 01 00                  ADD  AX, 0001h
572C  89 46 EC                  MOV  [BP-14h], AX
572F  E9 0E 00                  JMP  5740h
5732  A1 E2 52                  MOV  AX, [52E2h]
5735  2B 06 E8 52               SUB  AX, [52E8h]
5739  03 06 EC 52               ADD  AX, [52ECh]
573D  89 46 EC                  MOV  [BP-14h], AX
5740  B8 02 00                  MOV  AX, 0002h
5743  50                        PUSH AX
5744  B8 0C 00                  MOV  AX, 000Ch
5747  E8 A8 6D                  CALL C4F2h
574A  E8 53 85                  CALL DCA0h
574D  E8 55 89                  CALL E0A5h
5750  22 45 6E 74 65 72 20 62...  db  ""Enter beginning line to search >  "
5773  E8 F4 6F                  CALL C76Ah
5776  B8 03 00                  MOV  AX, 0003h
5779  50                        PUSH AX
577A  B8 0D 00                  MOV  AX, 000Dh
577D  E8 72 6D                  CALL C4F2h
5780  E8 1D 85                  CALL DCA0h
5783  8B 46 EC                  MOV  AX, [BP-14h]
5786  50                        PUSH AX
5787  B8 00 00                  MOV  AX, 0000h
578A  E8 74 88                  CALL E001h
578D  E8 DA 6F                  CALL C76Ah
5790  B8 03 00                  MOV  AX, 0003h
5793  50                        PUSH AX
5794  B8 0D 00                  MOV  AX, 000Dh
5797  E8 58 6D                  CALL C4F2h
579A  8D 7E EC                  LEA  DI, [BP-14h]
579D  16                        PUSH SS
579E  57                        PUSH DI
579F  E8 7F 99                  CALL F121h
57A2  E8 FB 84                  CALL DCA0h
57A5  E8 15 89                  CALL E0BDh
57A8  E8 BF 6F                  CALL C76Ah
57AB  E8 F2 84                  CALL DCA0h
57AE  E8 F4 88                  CALL E0A5h
57B1  0D 53 65                  OR   AX, 6553h
57BF  E8 A8 6F                  CALL C76Ah
57C2  E8 DB 84                  CALL DCA0h
57C5  E8 DD 88                  CALL E0A5h
57C8  03 20                     ADD  SP, [BX+SI]
57CA  20 28                     AND  [BX+SI], CH
57CC  8D 7E 8C                  LEA  DI, [BP-74h]
57CF  16                        PUSH SS
57D0  E8 41 71                  CALL C914h
57D3  B8 00 00                  MOV  AX, 0000h
57D6  E8 95 88                  CALL E06Eh
57D9  E8 C9 88                  CALL E0A5h
57DC  1C 29                     SBB  AL, 29h
57F9  8B 46 EC                  MOV  AX, [BP-14h]
57FC  50                        PUSH AX
57FD  B8 00 00                  MOV  AX, 0000h
5800  E8 FE 87                  CALL E001h
5803  E8 B7 88                  CALL E0BDh
5806  E8 61 6F                  CALL C76Ah
5809  B8 01 00                  MOV  AX, 0001h
580C  B9 00 00                  MOV  CX, 0000h
580F  BA FF 00                  MOV  DX, 00FFh
5812  E8 F6 6E                  CALL C70Bh
5815  88 46 FA                  MOV  [BP-06h], AL
5818  B8 00 00                  MOV  AX, 0000h
581B  B9 00 00                  MOV  CX, 0000h
581E  BA 01 00                  MOV  DX, 0001h
5821  E8 E7 6E                  CALL C70Bh
5824  88 46 8B                  MOV  [BP-75h], AL
5827  B8 00 00                  MOV  AX, 0000h
582A  B9 00 00                  MOV  CX, 0000h
582D  BA 01 00                  MOV  DX, 0001h
5830  E8 D8 6E                  CALL C70Bh
5833  88 46 8A                  MOV  [BP-76h], AL
5836  8B 46 EC                  MOV  AX, [BP-14h]
5839  03 06 E8 52               ADD  AX, [52E8h]
583D  99                        CWD
583E  F7 3E E2 52               IDIV  [52E2h]
5842  92                        XCHG AX, DX
5843  2D 01 00                  SUB  AX, 0001h
5846  89 46 EA                  MOV  [BP-16h], AX
5849  8D 7E 8C                  LEA  DI, [BP-74h]
584C  16                        PUSH SS
584D  E8 C4 70                  CALL C914h
5850  E8 73 72                  CALL CAC6h
5853  89 46 E8                  MOV  [BP-18h], AX
5856  8A 46 8A                  MOV  AL, [BP-76h]
5859  32 E4                     XOR  AH, AH
585B  34 01                     XOR  AL, 01h
585D  50                        PUSH AX
585E  8A 46 8B                  MOV  AL, [BP-75h]
5861  32 E4                     XOR  AH, AH
5863  34 01                     XOR  AL, 01h
5865  59                        POP  CX
5866  23 C1                     AND  AX, CX
5868  0B C0                     OR   AX, AX
586A  75 03                     JNZ  586Fh
586C  E9 48 01                  JMP  59B7h
586F  B8 01 00                  MOV  AX, 0001h
5872  B9 00 00                  MOV  CX, 0000h
5875  BA FF 00                  MOV  DX, 00FFh
5878  E8 90 6E                  CALL C70Bh
587B  88 46 FB                  MOV  [BP-05h], AL
587E  8A 46 FB                  MOV  AL, [BP-05h]
5881  32 E4                     XOR  AH, AH
5883  50                        PUSH AX
5884  B8 50 00                  MOV  AX, 0050h
5887  2B 46 E8                  SUB  AX, [BP-18h]
588A  59                        POP  CX
588B  91                        XCHG AX, CX
588C  3B C1                     CMP  AX, CX
588E  7E 03                     JLE  5893h
5890  E9 98 00                  JMP  592Bh
5893  8D 7E 8C                  LEA  DI, [BP-74h]
5896  16                        PUSH SS
5897  E8 7A 70                  CALL C914h
589A  8B 46 EA                  MOV  AX, [BP-16h]
589D  48                        DEC  AX
589E  B9 89 13                  MOV  CX, 1389h
58A1  E8 5D 6E                  CALL C701h
58A4  D1 E0                     SHL  AX, 1
58A6  D1 E0                     SHL  AX, 1
58A8  97                        XCHG AX, DI
58A9  C4 BD BE 04               LES  DI, [DI+04BEh]
58AD  06                        PUSH ES
58AE  E8 63 70                  CALL C914h
58B1  8A 46 FB                  MOV  AL, [BP-05h]
58B4  32 E4                     XOR  AH, AH
58B6  50                        PUSH AX
58B7  8B 46 E8                  MOV  AX, [BP-18h]
58BA  E8 CA 71                  CALL CA87h
58BD  E8 02 71                  CALL C9C2h
58C0  75 03                     JNZ  58C5h
58C2  E9 0F 00                  JMP  58D4h
58C5  B8 01 00                  MOV  AX, 0001h
58C8  B9 00 00                  MOV  CX, 0000h
58CB  BA 01 00                  MOV  DX, 0001h
58CE  E8 3A 6E                  CALL C70Bh
58D1  88 46 8B                  MOV  [BP-75h], AL
58D4  8B 46 EA                  MOV  AX, [BP-16h]
58D7  48                        DEC  AX
58D8  B9 89 13                  MOV  CX, 1389h
58DB  E8 23 6E                  CALL C701h
58DE  D1 E0                     SHL  AX, 1
58E0  D1 E0                     SHL  AX, 1
58E2  97                        XCHG AX, DI
58E3  C4 BD BE 04               LES  DI, [DI+04BEh]
58E7  06                        PUSH ES
58E8  57                        PUSH DI
58E9  8A 46 FB                  MOV  AL, [BP-05h]
58EC  32 E4                     XOR  AH, AH
58EE  5F                        POP  DI
58EF  07                        POP  ES
58F0  B9 53 00                  MOV  CX, 0053h
58F3  E8 0B 6E                  CALL C701h
58F6  03 F8                     ADD  DI, AX
58F8  26                        ES:
58F9  8A 05                     MOV  AL, [DI]
58FB  32 E4                     XOR  AH, AH
58FD  3D 0D 00                  CMP  AX, 000Dh
5900  74 03                     JZ   5905h
5902  E9 0F 00                  JMP  5914h
5905  B8 50 00                  MOV  AX, 0050h
5908  B9 00 00                  MOV  CX, 0000h
590B  BA FF 00                  MOV  DX, 00FFh
590E  E8 FA 6D                  CALL C70Bh
5911  88 46 FB                  MOV  [BP-05h], AL
5914  8A 46 FB                  MOV  AL, [BP-05h]
5917  32 E4                     XOR  AH, AH
5919  05 01 00                  ADD  AX, 0001h
591C  B9 00 00                  MOV  CX, 0000h
591F  BA FF 00                  MOV  DX, 00FFh
5922  E8 E6 6D                  CALL C70Bh
5925  88 46 FB                  MOV  [BP-05h], AL
5928  E9 53 FF                  JMP  587Eh
592B  8B 46 EA                  MOV  AX, [BP-16h]
592E  05 01 00                  ADD  AX, 0001h
5931  89 46 EA                  MOV  [BP-16h], AX
5934  8B 46 EC                  MOV  AX, [BP-14h]
5937  05 01 00                  ADD  AX, 0001h
593A  89 46 EC                  MOV  [BP-14h], AX
593D  8B 46 EA                  MOV  AX, [BP-16h]
5940  3B 06 E2 52               CMP  AX, [52E2h]
5944  74 03                     JZ   5949h
5946  E9 06 00                  JMP  594Fh
5949  B8 01 00                  MOV  AX, 0001h
594C  89 46 EA                  MOV  [BP-16h], AX
594F  8B 46 EA                  MOV  AX, [BP-16h]
5952  3B 06 E6 52               CMP  AX, [52E6h]
5956  74 03                     JZ   595Bh
5958  E9 0F 00                  JMP  596Ah
595B  B8 01 00                  MOV  AX, 0001h
595E  B9 00 00                  MOV  CX, 0000h
5961  BA 01 00                  MOV  DX, 0001h
5964  E8 A4 6D                  CALL C70Bh
5967  88 46 8A                  MOV  [BP-76h], AL
596A  B8 06 00                  MOV  AX, 0006h
596D  50                        PUSH AX
596E  B8 10 00                  MOV  AX, 0010h
5971  E8 7E 6B                  CALL C4F2h
5974  8A 46 FA                  MOV  AL, [BP-06h]
5977  32 E4                     XOR  AH, AH
5979  05 01 00                  ADD  AX, 0001h
597C  B9 00 00                  MOV  CX, 0000h
597F  BA FF 00                  MOV  DX, 00FFh
5982  E8 86 6D                  CALL C70Bh
5985  88 46 FA                  MOV  [BP-06h], AL
5988  8A 46 FA                  MOV  AL, [BP-06h]
598B  32 E4                     XOR  AH, AH
598D  3D 19 00                  CMP  AX, 0019h
5990  74 03                     JZ   5995h
5992  E9 1F 00                  JMP  59B4h
5995  E8 08 83                  CALL DCA0h
5998  8B 46 EC                  MOV  AX, [BP-14h]
599B  50                        PUSH AX
599C  B8 00 00                  MOV  AX, 0000h
599F  E8 5F 86                  CALL E001h
59A2  E8 C5 6D                  CALL C76Ah
59A5  B8 00 00                  MOV  AX, 0000h
59A8  B9 00 00                  MOV  CX, 0000h
59AB  BA FF 00                  MOV  DX, 00FFh
59AE  E8 5A 6D                  CALL C70Bh
59B1  88 46 FA                  MOV  [BP-06h], AL
59B4  E9 9F FE                  JMP  5856h
59B7  8A 46 8B                  MOV  AL, [BP-75h]
59BA  32 E4                     XOR  AH, AH
59BC  34 01                     XOR  AL, 01h
59BE  75 03                     JNZ  59C3h
59C0  E9 55 00                  JMP  5A18h
59C3  E8 DA 82                  CALL DCA0h
59C6  E8 F4 86                  CALL E0BDh
59C9  E8 9E 6D                  CALL C76Ah
59CC  E8 D1 82                  CALL DCA0h
59CF  E8 D3 86                  CALL E0A5h
59D2  32 53 65 61 72 63 68 20...  db  "2Search Argument NOT FOUND, press ENTER to continue"
5A05  E8 B5 86                  CALL E0BDh
5A08  E8 5F 6D                  CALL C76Ah
5A0B  E8 C5 82                  CALL DCD3h
5A0E  8D 7E FB                  LEA  DI, [BP-05h]
5A11  16                        PUSH SS
5A12  E8 A6 84                  CALL DEBBh
5A15  E8 52 6D                  CALL C76Ah
5A18  8B 46 EA                  MOV  AX, [BP-16h]
5A1B  2D 01 00                  SUB  AX, 0001h
5A1E  89 46 EA                  MOV  [BP-16h], AX
5A21  E8 8E 9D                  CALL F7B2h
5A24  8B 46 EA                  MOV  AX, [BP-16h]
5A27  3D 00 00                  CMP  AX, 0000h
5A2A  B8 01 00                  MOV  AX, 0001h
5A2D  7F 01                     JG   5A30h
5A2F  48                        DEC  AX
5A30  50                        PUSH AX
5A31  8B 46 EA                  MOV  AX, [BP-16h]
5A34  3B 06 E2 52               CMP  AX, [52E2h]
5A38  B8 01 00                  MOV  AX, 0001h
5A3B  7E 01                     JLE  5A3Eh
5A3D  48                        DEC  AX
5A3E  59                        POP  CX
5A3F  23 C1                     AND  AX, CX
5A41  0B C0                     OR   AX, AX
5A43  75 03                     JNZ  5A48h
5A45  E9 A9 00                  JMP  5AF1h
5A48  8B 46 EA                  MOV  AX, [BP-16h]
5A4B  A3 EC 52                  MOV  [52ECh], AX
5A4E  B8 00 00                  MOV  AX, 0000h
5A51  B9 00 00                  MOV  CX, 0000h
5A54  BA 01 00                  MOV  DX, 0001h
5A57  E8 B1 6C                  CALL C70Bh
5A5A  A2 A0 91                  MOV  [91A0h], AL
5A5D  B8 00 00                  MOV  AX, 0000h
5A60  B9 00 00                  MOV  CX, 0000h
5A63  BA 01 00                  MOV  DX, 0001h
5A66  E8 A2 6C                  CALL C70Bh
5A69  A2 A1 91                  MOV  [91A1h], AL
5A6C  B8 01 00                  MOV  AX, 0001h
5A6F  50                        PUSH AX
5A70  A1 F0 52                  MOV  AX, [52F0h]
5A73  2D 01 00                  SUB  AX, 0001h
5A76  59                        POP  CX
5A77  91                        XCHG AX, CX
5A78  2B C8                     SUB  CX, AX
5A7A  7D 03                     JGE  5A7Fh
5A7C  E9 1F 00                  JMP  5A9Eh
5A7F  41                        INC  CX
5A80  88 46 FB                  MOV  [BP-05h], AL
5A83  51                        PUSH CX
5A84  B8 01 00                  MOV  AX, 0001h
5A87  B9 00 00                  MOV  CX, 0000h
5A8A  BA 01 00                  MOV  DX, 0001h
5A8D  E8 7B 6C                  CALL C70Bh
5A90  50                        PUSH AX
5A91  E8 1D A7                  CALL 01B1h
5A94  59                        POP  CX
5A95  49                        DEC  CX
5A96  74 06                     JZ   5A9Eh
5A98  FE 46 FB                  INC  [BP-05h]
5A9B  E9 E5 FF                  JMP  5A83h
5A9E  B8 00 00                  MOV  AX, 0000h
5AA1  B9 00 00                  MOV  CX, 0000h
5AA4  BA 01 00                  MOV  DX, 0001h
5AA7  E8 61 6C                  CALL C70Bh
5AAA  A2 A0 91                  MOV  [91A0h], AL
5AAD  B8 00 00                  MOV  AX, 0000h
5AB0  B9 00 00                  MOV  CX, 0000h
5AB3  BA 01 00                  MOV  DX, 0001h
5AB6  E8 52 6C                  CALL C70Bh
5AB9  A2 A1 91                  MOV  [91A1h], AL
5ABC  B8 01 00                  MOV  AX, 0001h
5ABF  50                        PUSH AX
5AC0  A1 F0 52                  MOV  AX, [52F0h]
5AC3  2D 01 00                  SUB  AX, 0001h
5AC6  59                        POP  CX
5AC7  91                        XCHG AX, CX
5AC8  2B C8                     SUB  CX, AX
5ACA  7D 03                     JGE  5ACFh
5ACC  E9 1F 00                  JMP  5AEEh
5ACF  41                        INC  CX
5AD0  88 46 FB                  MOV  [BP-05h], AL
5AD3  51                        PUSH CX
5AD4  B8 01 00                  MOV  AX, 0001h
5AD7  B9 00 00                  MOV  CX, 0000h
5ADA  BA 01 00                  MOV  DX, 0001h
5ADD  E8 2B 6C                  CALL C70Bh
5AE0  50                        PUSH AX
5AE1  E8 8B A3                  CALL FE6Fh
5AE4  59                        POP  CX
5AE5  49                        DEC  CX
5AE6  74 06                     JZ   5AEEh
5AE8  FE 46 FB                  INC  [BP-05h]
5AEB  E9 E5 FF                  JMP  5AD3h
5AEE  E8 09 A2                  CALL FCFAh
5AF1  E9 00 00                  JMP  5AF4h
5AF4  8B E5                     MOV  SP, BP
5AF6  5D                        POP  BP
5AF7  C3                        RET
5AF8  83 EC 04                  SUB  SP, 04h
5AFB  E8 FC A1                  CALL FCFAh
5AFE  B8 01 00                  MOV  AX, 0001h
5B01  B9 00 00                  MOV  CX, 0000h
5B04  BA 01 00                  MOV  DX, 0001h
5B07  E8 01 6C                  CALL C70Bh
5B0A  88 46 FA                  MOV  [BP-06h], AL
5B0D  B8 10 00                  MOV  AX, 0010h
5B10  50                        PUSH AX
5B11  B8 02 00                  MOV  AX, 0002h
5B14  50                        PUSH AX
5B15  B8 4B 00                  MOV  AX, 004Bh
5B18  50                        PUSH AX
5B19  B8 13 00                  MOV  AX, 0013h
5B1C  50                        PUSH AX
5B1D  E8 0D 6E                  CALL C92Dh
5B20  17                        POP  SS
5B21  53 63 72 6F 6C 6C 20 42...  db  "Scroll Back Processing."
5B38  B1 46                     MOV  CL, 46h
5B3A  E8 48 6E                  CALL C985h
5B3D  E8 BF 9A                  CALL F5FFh
5B40  E8 5D 81                  CALL DCA0h
5B43  E8 77 85                  CALL E0BDh
5B46  E8 21 6C                  CALL C76Ah
5B49  E8 54 81                  CALL DCA0h
5B4C  E8 56 85                  CALL E0A5h
5B4F  35 20 20 31 2E 20 56 69...  db  "5  1. View Scroll Back Data beginning with Line Number"
5B85  E8 35 85                  CALL E0BDh
5B88  E8 DF 6B                  CALL C76Ah
5B8B  E8 12 81                  CALL DCA0h
5B8E  E8 14 85                  CALL E0A5h
5B91  1A 20                     SBB  AH, [BX+SI]
5BAC  E8 0E 85                  CALL E0BDh
5BAF  E8 B8 6B                  CALL C76Ah
5BB2  E8 EB 80                  CALL DCA0h
5BB5  E8 05 85                  CALL E0BDh
5BB8  E8 AF 6B                  CALL C76Ah
5BBB  E8 E2 80                  CALL DCA0h
5BBE  E8 E4 84                  CALL E0A5h
5BC1  2D 20 45 6E 74 65 72 20...  db  "- Enter the option desired or RETURN to exit: "
5BEF  E8 78 6B                  CALL C76Ah
5BF2  B8 2E 00                  MOV  AX, 002Eh
5BF5  50                        PUSH AX
5BF6  B8 05 00                  MOV  AX, 0005h
5BF9  E8 F6 68                  CALL C4F2h
5BFC  E8 F3 5D                  CALL B9F2h
5BFF  8D 7E FB                  LEA  DI, [BP-05h]
5C02  16                        PUSH SS
5C03  57                        PUSH DI
5C04  83 EC 03                  SUB  SP, 03h
5C07  E8 F8 89                  CALL E602h
5C0A  B1 02                     MOV  CL, 02h
5C0C  E8 34 6D                  CALL C943h
5C0F  8D 7E FB                  LEA  DI, [BP-05h]
5C12  16                        PUSH SS
5C13  E8 FE 6C                  CALL C914h
5C16  E8 14 6D                  CALL C92Dh
5C19  00 E8                     ADD  AL, CH
5C1B  B1 6D                     MOV  CL, 6Dh
5C1D  75 03                     JNZ  5C22h
5C1F  E9 DD FF                  JMP  5BFFh
5C22  E8 7B 80                  CALL DCA0h
5C25  8D 7E FB                  LEA  DI, [BP-05h]
5C28  16                        PUSH SS
5C29  E8 E8 6C                  CALL C914h
5C2C  B8 00 00                  MOV  AX, 0000h
5C2F  E8 3C 84                  CALL E06Eh
5C32  E8 88 84                  CALL E0BDh
5C35  E8 32 6B                  CALL C76Ah
5C38  8D 7E FB                  LEA  DI, [BP-05h]
5C3B  16                        PUSH SS
5C3C  E8 D5 6C                  CALL C914h
5C3F  E8 76 6F                  CALL CBB8h
5C44  00 74 03                  ADD  [SI+03h], DH
5C47  E9 09 00                  JMP  5C53h
5C4A  E8 C1 F8                  CALL 550Eh
5C4D  E9 32 00                  JMP  5C82h
5C50  E9 20 00                  JMP  5C73h
5C53  3D 32 00                  CMP  AX, 0032h
5C56  74 03                     JZ   5C5Bh
5C58  E9 09 00                  JMP  5C64h
5C5B  E8 20 FA                  CALL 567Eh
5C5E  E9 21 00                  JMP  5C82h
5C61  E9 0F 00                  JMP  5C73h
5C64  B8 00 00                  MOV  AX, 0000h
5C67  B9 00 00                  MOV  CX, 0000h
5C6A  BA 01 00                  MOV  DX, 0001h
5C6D  E8 9B 6A                  CALL C70Bh
5C70  88 46 FA                  MOV  [BP-06h], AL
5C73  8A 46 FA                  MOV  AL, [BP-06h]
5C76  32 E4                     XOR  AH, AH
5C78  34 01                     XOR  AL, 01h
5C7A  75 03                     JNZ  5C7Fh
5C7C  E9 73 FF                  JMP  5BF2h
5C7F  E8 30 9B                  CALL F7B2h
5C82  E9 00 00                  JMP  5C85h
5C85  8B E5                     MOV  SP, BP
5C87  5D                        POP  BP
5C88  C3                        RET
5C89  00 00                     ADD  [BX+SI], AL
5C8B  00 00                     ADD  [BX+SI], AL
5C8D  00 00                     ADD  [BX+SI], AL
5C8F  00 00                     ADD  [BX+SI], AL
5C91  00 00                     ADD  [BX+SI], AL
5C93  00 00                     ADD  [BX+SI], AL
5C95  00 00                     ADD  [BX+SI], AL
5C97  00 00                     ADD  [BX+SI], AL
5C99  00 00                     ADD  [BX+SI], AL
5C9B  00 00                     ADD  [BX+SI], AL
5C9D  00 00                     ADD  [BX+SI], AL
5C9F  00 00                     ADD  [BX+SI], AL
5CA1  00 00                     ADD  [BX+SI], AL
5CA3  00 00                     ADD  [BX+SI], AL
5CA5  00 00                     ADD  [BX+SI], AL
5CA7  00 00                     ADD  [BX+SI], AL
5CA9  00 00                     ADD  [BX+SI], AL
5CAB  00 00                     ADD  [BX+SI], AL
5CAD  00 00                     ADD  [BX+SI], AL
5CAF  00 00                     ADD  [BX+SI], AL
5CB1  00 00                     ADD  [BX+SI], AL
5CB3  00 00                     ADD  [BX+SI], AL
5CB5  00 00                     ADD  [BX+SI], AL
5CB7  00 00                     ADD  [BX+SI], AL
5CB9  00 00                     ADD  [BX+SI], AL
5CBB  00 00                     ADD  [BX+SI], AL
5CBD  00 00                     ADD  [BX+SI], AL
5CBF  00 00                     ADD  [BX+SI], AL
5CC1  00 00                     ADD  [BX+SI], AL
5CC3  00 00                     ADD  [BX+SI], AL
5CC5  00 00                     ADD  [BX+SI], AL
5CC7  00 00                     ADD  [BX+SI], AL
5CC9  00 00                     ADD  [BX+SI], AL
5CCB  00 00                     ADD  [BX+SI], AL
5CCD  00 00                     ADD  [BX+SI], AL
5CCF  00 00                     ADD  [BX+SI], AL
5CD1  00 00                     ADD  [BX+SI], AL
5CD3  00 00                     ADD  [BX+SI], AL
5CD5  00 00                     ADD  [BX+SI], AL
5CD7  00 00                     ADD  [BX+SI], AL
5CD9  00 00                     ADD  [BX+SI], AL
5CDB  00 00                     ADD  [BX+SI], AL
5CDD  00 00                     ADD  [BX+SI], AL
5CDF  00 00                     ADD  [BX+SI], AL
5CE1  00 00                     ADD  [BX+SI], AL
5CE3  00 00                     ADD  [BX+SI], AL
5CE5  00 00                     ADD  [BX+SI], AL
5CE7  00 00                     ADD  [BX+SI], AL
5CE9  00 00                     ADD  [BX+SI], AL
5CEB  00 00                     ADD  [BX+SI], AL
5CED  00 00                     ADD  [BX+SI], AL
5CEF  00 00                     ADD  [BX+SI], AL
5CF1  00 00                     ADD  [BX+SI], AL
5CF3  00 00                     ADD  [BX+SI], AL
5CF5  00 00                     ADD  [BX+SI], AL
5CF7  00 00                     ADD  [BX+SI], AL
5CF9  00 00                     ADD  [BX+SI], AL
5CFB  00 00                     ADD  [BX+SI], AL
5CFD  00 00                     ADD  [BX+SI], AL
5CFF  00 E8                     ADD  AL, CH
5D01  11 6F 6C                  ADC  [BX+6Ch], BP
5D04  0A BF 9D 55               OR   BH, [BX+559Dh]
5D08  8B EC                     MOV  BP, SP
5D0A  55                        PUSH BP
5D0B  E9 A6 05                  JMP  62B4h
5D0E  55                        PUSH BP
5D0F  8B C4                     MOV  AX, SP
5D11  FF 76 FE                  PUSH  [BP-02h]
5D14  8B E8                     MOV  BP, AX
5D16  55                        PUSH BP
5D17  E9 00 00                  JMP  5D1Ah
5D1A  81 EC 06 01               SUB  SP, 0106h
5D1E  B8 00 00                  MOV  AX, 0000h
5D21  B9 00 00                  MOV  CX, 0000h
5D24  BA 01 00                  MOV  DX, 0001h
5D27  E8 E1 71                  CALL CF0Bh
5D2A  88 46 08                  MOV  [BP+08h], AL
5D2D  8C C8                     MOV  AX, CS
5D2F  50                        PUSH AX
5D30  B8 2C 00                  MOV  AX, 002Ch
5D33  97                        XCHG AX, DI
5D34  07                        POP  ES
5D35  26                        ES:
5D36  8B 05                     MOV  AX, [DI]
5D38  50                        PUSH AX
5D39  B8 00 00                  MOV  AX, 0000h
5D3C  5A                        POP  DX
5D3D  89 46 F8                  MOV  [BP-08h], AX
5D40  89 56 FA                  MOV  [BP-06h], DX
5D43  C4 7E F8                  LES  DI, [BP-08h]
5D46  06                        PUSH ES
5D47  57                        PUSH DI
5D48  8D BE F9 FE               LEA  DI, [BP-0107h]
5D4C  16                        PUSH SS
5D4D  57                        PUSH DI
5D4E  B8 FE 00                  MOV  AX, 00FEh
5D51  E8 41 71                  CALL CE95h
5D54  B8 00 00                  MOV  AX, 0000h
5D57  B9 00 00                  MOV  CX, 0000h
5D5A  BA FF 00                  MOV  DX, 00FFh
5D5D  E8 AB 71                  CALL CF0Bh
5D60  88 46 F7                  MOV  [BP-09h], AL
5D63  B8 FF 00                  MOV  AX, 00FFh
5D66  B9 00 00                  MOV  CX, 0000h
5D69  BA FF 00                  MOV  DX, 00FFh
5D6C  E8 9C 71                  CALL CF0Bh
5D6F  88 86 F8 FE               MOV  [BP-0108h], AL
5D73  E8 B7 73                  CALL D12Dh
5D76  08 43 4F                  OR   [BP+DI+4Fh], AL
5D7F  8D BE F8 FE               LEA  DI, [BP-0108h]
5D83  16                        PUSH SS
5D84  E8 8D 73                  CALL D114h
5D87  E8 49 75                  CALL D2D3h
5D8A  89 86 F6 FE               MOV  [BP-010Ah], AX
5D8E  8B 86 F6 FE               MOV  AX, [BP-010Ah]
5D92  3D 00 00                  CMP  AX, 0000h
5D95  74 03                     JZ   5D9Ah
5D97  E9 58 00                  JMP  5DF2h
5D9A  E8 03 87                  CALL E4A0h
5D9D  E8 05 8B                  CALL E8A5h
5DA0  36 2A 2A 2A 20 22 43 4F...  db  "6*** "COMSPEC=d:[path]filename" not in DOS environment."
5DD7  E8 E3 8A                  CALL E8BDh
5DDA  E8 8D 71                  CALL CF6Ah
5DDD  B8 01 00                  MOV  AX, 0001h
5DE0  B9 00 00                  MOV  CX, 0000h
5DE3  BA 01 00                  MOV  DX, 0001h
5DE6  E8 22 71                  CALL CF0Bh
5DE9  88 46 08                  MOV  [BP+08h], AL
5DEC  E9 7E 00                  JMP  5E6Dh
5DEF  E9 7B 00                  JMP  5E6Dh
5DF2  8D BE F8 FE               LEA  DI, [BP-0108h]
5DF6  16                        PUSH SS
5DF7  57                        PUSH DI
5DF8  B8 01 00                  MOV  AX, 0001h
5DFB  50                        PUSH AX
5DFC  8B 86 F6 FE               MOV  AX, [BP-010Ah]
5E00  05 07 00                  ADD  AX, 0007h
5E03  E8 69 75                  CALL D36Fh
5E06  B8 01 00                  MOV  AX, 0001h
5E09  50                        PUSH AX
5E0A  8D BE F8 FE               LEA  DI, [BP-0108h]
5E0E  16                        PUSH SS
5E0F  E8 02 73                  CALL D114h
5E12  E8 BE 74                  CALL D2D3h
5E15  89 86 F6 FE               MOV  [BP-010Ah], AX
5E19  8D BE F8 FE               LEA  DI, [BP-0108h]
5E1D  16                        PUSH SS
5E1E  57                        PUSH DI
5E1F  8D BE F8 FE               LEA  DI, [BP-0108h]
5E23  16                        PUSH SS
5E24  E8 ED 72                  CALL D114h
5E27  B8 01 00                  MOV  AX, 0001h
5E2A  50                        PUSH AX
5E2B  8B 86 F6 FE               MOV  AX, [BP-010Ah]
5E2F  2D 00 00                  SUB  AX, 0000h
5E32  E8 52 74                  CALL D287h
5E35  B1 FF                     MOV  CL, FFh
5E37  E8 09 73                  CALL D143h
5E3A  8A 86 F9 FE               MOV  AL, [BP-0107h]
5E3E  32 E4                     XOR  AH, AH
5E40  3D 20 00                  CMP  AX, 0020h
5E43  74 03                     JZ   5E48h
5E45  E9 13 00                  JMP  5E5Bh
5E48  8D BE F8 FE               LEA  DI, [BP-0108h]
5E4C  16                        PUSH SS
5E4D  57                        PUSH DI
5E4E  B8 01 00                  MOV  AX, 0001h
5E51  50                        PUSH AX
5E52  B8 01 00                  MOV  AX, 0001h
5E55  E8 17 75                  CALL D36Fh
5E58  E9 DF FF                  JMP  5E3Ah
5E5B  C4 7E 04                  LES  DI, [BP+04h]
5E5E  06                        PUSH ES
5E5F  57                        PUSH DI
5E60  8D BE F8 FE               LEA  DI, [BP-0108h]
5E64  16                        PUSH SS
5E65  E8 AC 72                  CALL D114h
5E68  B1 41                     MOV  CL, 41h
5E6A  E8 D6 72                  CALL D143h
5E6D  E9 00 00                  JMP  5E70h
5E70  8A 46 08                  MOV  AL, [BP+08h]
5E73  32 E4                     XOR  AH, AH
5E75  0B C0                     OR   AX, AX
5E77  8B E5                     MOV  SP, BP
5E79  5D                        POP  BP
5E7A  C2 05 00                  RET  0005h
5E7D  EB 12                     JMP  5E91h
5E7F  00 00                     ADD  [BX+SI], AL
5E81  00 00                     ADD  [BX+SI], AL
5E83  00 00                     ADD  [BX+SI], AL
5E85  00 00                     ADD  [BX+SI], AL
5E87  00 00                     ADD  [BX+SI], AL
5E89  00 00                     ADD  [BX+SI], AL
5E8B  00 00                     ADD  [BX+SI], AL
5E8D  00 00                     ADD  [BX+SI], AL
5E8F  00 00                     ADD  [BX+SI], AL
5E91  55                        PUSH BP
5E92  8B EC                     MOV  BP, SP
5E94  1E                        PUSH DS
5E95  E8 00 00                  CALL 5E98h
5E98  5B                        POP  BX
5E99  81 EB 1B 00               SUB  BX, 001Bh
5E9D  C4 7E 04                  LES  DI, [BP+04h]
5EA0  8C C0                     MOV  AX, ES
5EA2  2E                        CS:
5EA3  89 87 06 00               MOV  [BX+0006h], AX
5EA7  2E                        CS:
5EA8  89 BF 04 00               MOV  [BX+0004h], DI
5EAC  8C D0                     MOV  AX, SS
5EAE  2E                        CS:
5EAF  89 87 10 00               MOV  [BX+0010h], AX
5EB3  8B C4                     MOV  AX, SP
5EB5  2E                        CS:
5EB6  89 87 12 00               MOV  [BX+0012h], AX
5EBA  0E                        PUSH CS
5EBB  07                        POP  ES
5EBC  81 C3 02 00               ADD  BX, 0002h
5EC0  C5 56 08                  LDS  DX, [BP+08h]
5EC3  42                        INC  DX
5EC4  B8 00 4B                  MOV  AX, 4B00h
5EC7  CD 21                     INT  21h
5EC9  FB                        STI
5ECA  72 02                     JB   5ECEh
5ECC  32 C0                     XOR  AL, AL
5ECE  32 E4                     XOR  AH, AH
5ED0  E8 00 00                  CALL 5ED3h
5ED3  5B                        POP  BX
5ED4  81 EB 56 00               SUB  BX, 0056h
5ED8  2E                        CS:
5ED9  8B 97 10 00               MOV  DX, [BX+0010h]
5EDD  8E D2                     MOV  SS, DX
5EDF  2E                        CS:
5EE0  8B 97 12 00               MOV  DX, [BX+0012h]
5EE4  8B E2                     MOV  SP, DX
5EE6  FA                        CLI
5EE7  1F                        POP  DS
5EE8  5D                        POP  BP
5EE9  C2 0A 00                  RET  000Ah
5EEC  55                        PUSH BP
5EED  8B C4                     MOV  AX, SP
5EEF  FF 76 FE                  PUSH  [BP-02h]
5EF2  8B E8                     MOV  BP, AX
5EF4  55                        PUSH BP
5EF5  E9 00 00                  JMP  5EF8h
5EF8  B8 4D 00                  MOV  AX, 004Dh
5EFB  B9 08 00                  MOV  CX, 0008h
5EFE  D3 E0                     SHL  AX, CL
5F00  8B 5E FE                  MOV  BX, [BP-02h]
5F03  36                        SS:
5F04  89 47 EA                  MOV  [BX-16h], AX
5F07  8B 5E FE                  MOV  BX, [BP-02h]
5F0A  36                        SS:
5F0B  8D 7F EA                  LEA  DI, [BX-16h]
5F0E  16                        PUSH SS
5F0F  E8 9D 6F                  CALL CEAFh
5F12  CD 21                     INT  21h
5F14  E8 C0 6F                  CALL CED7h
5F17  8B 5E FE                  MOV  BX, [BP-02h]
5F1A  36                        SS:
5F1B  8B 47 EA                  MOV  AX, [BX-16h]
5F1E  32 E4                     XOR  AH, AH
5F20  89 46 04                  MOV  [BP+04h], AX
5F23  E9 00 00                  JMP  5F26h
5F26  8B 46 04                  MOV  AX, [BP+04h]
5F29  8B E5                     MOV  SP, BP
5F2B  5D                        POP  BP
5F2C  C2 02 00                  RET  0002h
5F2F  55                        PUSH BP
5F30  8B C4                     MOV  AX, SP
5F32  FF 76 FE                  PUSH  [BP-02h]
5F35  8B E8                     MOV  BP, AX
5F37  55                        PUSH BP
5F38  E9 F4 02                  JMP  622Fh
5F3B  17                        POP  SS
5F3C  69 6E 76 61 6C 69 64 20...  db  "invalid function number"
5F53  00 00                     ADD  [BX+SI], AL
5F55  00 00                     ADD  [BX+SI], AL
5F57  00 00                     ADD  [BX+SI], AL
5F59  00 00                     ADD  [BX+SI], AL
5F5B  00 00                     ADD  [BX+SI], AL
5F5D  00 00                     ADD  [BX+SI], AL
5F5F  00 00                     ADD  [BX+SI], AL
5F61  00 00                     ADD  [BX+SI], AL
5F63  00 00                     ADD  [BX+SI], AL
5F65  0E                        PUSH CS
5F66  66 69 6C 65 20 6E 6F 74...  db  "file not found"
5F74  00 00                     ADD  [BX+SI], AL
5F76  00 00                     ADD  [BX+SI], AL
5F78  00 00                     ADD  [BX+SI], AL
5F7A  00 00                     ADD  [BX+SI], AL
5F7C  00 00                     ADD  [BX+SI], AL
5F7E  00 00                     ADD  [BX+SI], AL
5F80  00 00                     ADD  [BX+SI], AL
5F82  00 00                     ADD  [BX+SI], AL
5F84  00 00                     ADD  [BX+SI], AL
5F86  00 00                     ADD  [BX+SI], AL
5F88  00 00                     ADD  [BX+SI], AL
5F8A  00 00                     ADD  [BX+SI], AL
5F8C  00 00                     ADD  [BX+SI], AL
5F8E  00 0E 70 61               ADD  [6170h], CL
5F9E  00 00                     ADD  [BX+SI], AL
5FA0  00 00                     ADD  [BX+SI], AL
5FA2  00 00                     ADD  [BX+SI], AL
5FA4  00 00                     ADD  [BX+SI], AL
5FA6  00 00                     ADD  [BX+SI], AL
5FA8  00 00                     ADD  [BX+SI], AL
5FAA  00 00                     ADD  [BX+SI], AL
5FAC  00 00                     ADD  [BX+SI], AL
5FAE  00 00                     ADD  [BX+SI], AL
5FB0  00 00                     ADD  [BX+SI], AL
5FB2  00 00                     ADD  [BX+SI], AL
5FB4  00 00                     ADD  [BX+SI], AL
5FB6  00 00                     ADD  [BX+SI], AL
5FB8  00 25                     ADD  [DI], AH
5FDF  00 00                     ADD  [BX+SI], AL
5FE1  00 00                     ADD  [BX+SI], AL
5FE3  0D 61 63                  OR   AX, 6361h
5FF1  00 00                     ADD  [BX+SI], AL
5FF3  00 00                     ADD  [BX+SI], AL
5FF5  00 00                     ADD  [BX+SI], AL
5FF7  00 00                     ADD  [BX+SI], AL
5FF9  00 00                     ADD  [BX+SI], AL
5FFB  00 00                     ADD  [BX+SI], AL
5FFD  00 00                     ADD  [BX+SI], AL
5FFF  00 00                     ADD  [BX+SI], AL
6001  00 00                     ADD  [BX+SI], AL
6003  00 00                     ADD  [BX+SI], AL
6005  00 00                     ADD  [BX+SI], AL
6007  00 00                     ADD  [BX+SI], AL
6009  00 00                     ADD  [BX+SI], AL
600B  00 00                     ADD  [BX+SI], AL
600D  13 69 6E                  ADC  BP, [BX+DI+6Eh]
6021  00 00                     ADD  [BX+SI], AL
6023  00 00                     ADD  [BX+SI], AL
6025  00 00                     ADD  [BX+SI], AL
6027  00 00                     ADD  [BX+SI], AL
6029  00 00                     ADD  [BX+SI], AL
602B  00 00                     ADD  [BX+SI], AL
602D  00 00                     ADD  [BX+SI], AL
602F  00 00                     ADD  [BX+SI], AL
6031  00 00                     ADD  [BX+SI], AL
6033  00 00                     ADD  [BX+SI], AL
6035  00 00                     ADD  [BX+SI], AL
6037  1F                        POP  DS
6038  6D 65 6D 6F 72 79 20 63...  db  "memory control blocks destroyed"
6057  00 00                     ADD  [BX+SI], AL
6059  00 00                     ADD  [BX+SI], AL
605B  00 00                     ADD  [BX+SI], AL
605D  00 00                     ADD  [BX+SI], AL
605F  00 00                     ADD  [BX+SI], AL
6061  13 69 6E                  ADC  BP, [BX+DI+6Eh]
6075  00 00                     ADD  [BX+SI], AL
6077  00 00                     ADD  [BX+SI], AL
6079  00 00                     ADD  [BX+SI], AL
607B  00 00                     ADD  [BX+SI], AL
607D  00 00                     ADD  [BX+SI], AL
607F  00 00                     ADD  [BX+SI], AL
6081  00 00                     ADD  [BX+SI], AL
6083  00 00                     ADD  [BX+SI], AL
6085  00 00                     ADD  [BX+SI], AL
6087  00 00                     ADD  [BX+SI], AL
6089  00 00                     ADD  [BX+SI], AL
608B  1C 69                     SBB  AL, 69h
60A8  00 00                     ADD  [BX+SI], AL
60AA  00 00                     ADD  [BX+SI], AL
60AC  00 00                     ADD  [BX+SI], AL
60AE  00 00                     ADD  [BX+SI], AL
60B0  00 00                     ADD  [BX+SI], AL
60B2  00 00                     ADD  [BX+SI], AL
60B4  00 13                     ADD  [BP+DI], DL
60B6  69 6E 76 61 6C 69 64 20...  db  "invalid environment"
60C9  00 00                     ADD  [BX+SI], AL
60CB  00 00                     ADD  [BX+SI], AL
60CD  00 00                     ADD  [BX+SI], AL
60CF  00 00                     ADD  [BX+SI], AL
60D1  00 00                     ADD  [BX+SI], AL
60D3  00 00                     ADD  [BX+SI], AL
60D5  00 00                     ADD  [BX+SI], AL
60D7  00 00                     ADD  [BX+SI], AL
60D9  00 00                     ADD  [BX+SI], AL
60DB  00 00                     ADD  [BX+SI], AL
60DD  00 00                     ADD  [BX+SI], AL
60DF  0E                        PUSH CS
60E0  69 6E 76 61 6C 69 64 20...  db  "invalid format"
60EE  00 00                     ADD  [BX+SI], AL
60F0  00 00                     ADD  [BX+SI], AL
60F2  00 00                     ADD  [BX+SI], AL
60F4  00 00                     ADD  [BX+SI], AL
60F6  00 00                     ADD  [BX+SI], AL
60F8  00 00                     ADD  [BX+SI], AL
60FA  00 00                     ADD  [BX+SI], AL
60FC  00 00                     ADD  [BX+SI], AL
60FE  00 00                     ADD  [BX+SI], AL
6100  00 00                     ADD  [BX+SI], AL
6102  00 00                     ADD  [BX+SI], AL
6104  00 00                     ADD  [BX+SI], AL
6106  00 00                     ADD  [BX+SI], AL
6108  00 13                     ADD  [BP+DI], DL
610A  69 6E 76 61 69 6C 64 20...  db  "invaild access code"
611D  00 00                     ADD  [BX+SI], AL
611F  00 00                     ADD  [BX+SI], AL
6121  00 00                     ADD  [BX+SI], AL
6123  00 00                     ADD  [BX+SI], AL
6125  00 00                     ADD  [BX+SI], AL
6127  00 00                     ADD  [BX+SI], AL
6129  00 00                     ADD  [BX+SI], AL
612B  00 00                     ADD  [BX+SI], AL
612D  00 00                     ADD  [BX+SI], AL
612F  00 00                     ADD  [BX+SI], AL
6131  00 00                     ADD  [BX+SI], AL
6133  0C 69                     OR   AL, 69h
6140  00 00                     ADD  [BX+SI], AL
6142  00 00                     ADD  [BX+SI], AL
6144  00 00                     ADD  [BX+SI], AL
6146  00 00                     ADD  [BX+SI], AL
6148  00 00                     ADD  [BX+SI], AL
614A  00 00                     ADD  [BX+SI], AL
614C  00 00                     ADD  [BX+SI], AL
614E  00 00                     ADD  [BX+SI], AL
6150  00 00                     ADD  [BX+SI], AL
6152  00 00                     ADD  [BX+SI], AL
6154  00 00                     ADD  [BX+SI], AL
6156  00 00                     ADD  [BX+SI], AL
6158  00 00                     ADD  [BX+SI], AL
615A  00 00                     ADD  [BX+SI], AL
615C  00 12                     ADD  [BP+SI], DL
615E  75 6E 72 65 63 6F 67 6E...  db  "unrecognized error"
6170  00 00                     ADD  [BX+SI], AL
6172  00 00                     ADD  [BX+SI], AL
6174  00 00                     ADD  [BX+SI], AL
6176  00 00                     ADD  [BX+SI], AL
6178  00 00                     ADD  [BX+SI], AL
617A  00 00                     ADD  [BX+SI], AL
617C  00 00                     ADD  [BX+SI], AL
617E  00 00                     ADD  [BX+SI], AL
6180  00 00                     ADD  [BX+SI], AL
6182  00 00                     ADD  [BX+SI], AL
6184  00 00                     ADD  [BX+SI], AL
6186  00 1B                     ADD  [BP+DI], BL
6188  69 6E 76 61 6C 69 64 20...  db  "invalid drive was specified"
61A3  00 00                     ADD  [BX+SI], AL
61A5  00 00                     ADD  [BX+SI], AL
61A7  00 00                     ADD  [BX+SI], AL
61A9  00 00                     ADD  [BX+SI], AL
61AB  00 00                     ADD  [BX+SI], AL
61AD  00 00                     ADD  [BX+SI], AL
61AF  00 00                     ADD  [BX+SI], AL
61B1  29 61 74 74 65 6D 70 74...  db  ")attempted to remove the current directory"
61DB  0F                        ???
61DC  6E 6F 74 20 73 61 6D 65...  db  "not same device"
61EB  00 00                     ADD  [BX+SI], AL
61ED  00 00                     ADD  [BX+SI], AL
61EF  00 00                     ADD  [BX+SI], AL
61F1  00 00                     ADD  [BX+SI], AL
61F3  00 00                     ADD  [BX+SI], AL
61F5  00 00                     ADD  [BX+SI], AL
61F7  00 00                     ADD  [BX+SI], AL
61F9  00 00                     ADD  [BX+SI], AL
61FB  00 00                     ADD  [BX+SI], AL
61FD  00 00                     ADD  [BX+SI], AL
61FF  00 00                     ADD  [BX+SI], AL
6201  00 00                     ADD  [BX+SI], AL
6203  00 00                     ADD  [BX+SI], AL
6205  0D 6E 6F                  OR   AX, 6F6Eh
6213  00 00                     ADD  [BX+SI], AL
6215  00 00                     ADD  [BX+SI], AL
6217  00 00                     ADD  [BX+SI], AL
6219  00 00                     ADD  [BX+SI], AL
621B  00 00                     ADD  [BX+SI], AL
621D  00 00                     ADD  [BX+SI], AL
621F  00 00                     ADD  [BX+SI], AL
6221  00 00                     ADD  [BX+SI], AL
6223  00 00                     ADD  [BX+SI], AL
6225  00 00                     ADD  [BX+SI], AL
6227  00 00                     ADD  [BX+SI], AL
6229  00 00                     ADD  [BX+SI], AL
622B  00 00                     ADD  [BX+SI], AL
622D  00 00                     ADD  [BX+SI], AL
622F  B8 01 00                  MOV  AX, 0001h
6232  B9 00 00                  MOV  CX, 0000h
6235  BA 01 00                  MOV  DX, 0001h
6238  E8 D0 6C                  CALL CF0Bh
623B  88 46 06                  MOV  [BP+06h], AL
623E  8B 46 04                  MOV  AX, [BP+04h]
6241  3D 00 00                  CMP  AX, 0000h
6244  74 03                     JZ   6249h
6246  E9 12 00                  JMP  625Bh
6249  B8 00 00                  MOV  AX, 0000h
624C  B9 00 00                  MOV  CX, 0000h
624F  BA 01 00                  MOV  DX, 0001h
6252  E8 B6 6C                  CALL CF0Bh
6255  88 46 06                  MOV  [BP+06h], AL
6258  E9 49 00                  JMP  62A4h
625B  E8 42 82                  CALL E4A0h
625E  E8 44 86                  CALL E8A5h
6261  0E                        PUSH CS
6262  2A 2A 2A 20 44 4F 53 20...  db  "*** DOS error "
6270  8B 46 04                  MOV  AX, [BP+04h]
6273  50                        PUSH AX
6274  B8 00 00                  MOV  AX, 0000h
6277  E8 87 85                  CALL E801h
627A  E8 28 86                  CALL E8A5h
627D  02 3A                     ADD  BH, [BP+SI]
627F  20 8B 46 04               AND  [BP+DI+0446h], CL
6283  48                        DEC  AX
6284  B9 12 00                  MOV  CX, 0012h
6287  E8 77 6C                  CALL CF01h
628A  B9 2A 00                  MOV  CX, 002Ah
628D  F7 E1                     MUL  CX
628F  97                        XCHG AX, DI
6290  81 C7 F3 9F               ADD  DI, 9FF3h
6294  0E                        PUSH CS
6295  E8 7C 6E                  CALL D114h
6298  B8 00 00                  MOV  AX, 0000h
629B  E8 D0 85                  CALL E86Eh
629E  E8 1C 86                  CALL E8BDh
62A1  E8 C6 6C                  CALL CF6Ah
62A4  E9 00 00                  JMP  62A7h
62A7  8A 46 06                  MOV  AL, [BP+06h]
62AA  32 E4                     XOR  AH, AH
62AC  0B C0                     OR   AX, AX
62AE  8B E5                     MOV  SP, BP
62B0  5D                        POP  BP
62B1  C2 03 00                  RET  0003h
62B4  81 EC F8 00               SUB  SP, 00F8h
62B8  B8 01 00                  MOV  AX, 0001h
62BB  50                        PUSH AX
62BC  B8 01 00                  MOV  AX, 0001h
62BF  50                        PUSH AX
62C0  B8 50 00                  MOV  AX, 0050h
62C3  50                        PUSH AX
62C4  B8 18 00                  MOV  AX, 0018h
62C7  50                        PUSH AX
62C8  E8 62 6E                  CALL D12Dh
62CB  15 44 4F                  ADC  AX, 4F44h
62E1  B1 46                     MOV  CL, 46h
62E3  E8 9F 6E                  CALL D185h
62E6  E8 16 9B                  CALL FDFFh
62E9  A0 CB 84                  MOV  AL, [84CBh]
62EC  32 E4                     XOR  AH, AH
62EE  34 01                     XOR  AL, 01h
62F0  75 03                     JNZ  62F5h
62F2  E9 1C 01                  JMP  6411h
62F5  E8 A8 81                  CALL E4A0h
62F8  E8 C2 85                  CALL E8BDh
62FB  E8 6C 6C                  CALL CF6Ah
62FE  E8 9F 81                  CALL E4A0h
6301  E8 A1 85                  CALL E8A5h
6304  28 45 78 74 65 72 6E 61...  db  "(External memory has not been allocated! "
632D  E8 8D 85                  CALL E8BDh
6330  E8 37 6C                  CALL CF6Ah
6333  E8 6A 81                  CALL E4A0h
6336  E8 84 85                  CALL E8BDh
6339  E8 2E 6C                  CALL CF6Ah
633C  E8 61 81                  CALL E4A0h
633F  E8 63 85                  CALL E8A5h
6342  37 20 45 69 74 68 65 72...  db  "7 Either an error has occured while allocating memory or"
637A  E8 40 85                  CALL E8BDh
637D  E8 EA 6B                  CALL CF6Ah
6380  E8 1D 81                  CALL E4A0h
6383  E8 1F 85                  CALL E8A5h
6386  4C 20 53 65 74 20 74 68...  db  "L Set the DOS Command Memory Allocation Configuration Parm greater than Zero."
63D3  E8 E7 84                  CALL E8BDh
63D6  E8 91 6B                  CALL CF6Ah
63D9  E8 C4 80                  CALL E4A0h
63DC  E8 DE 84                  CALL E8BDh
63DF  E8 88 6B                  CALL CF6Ah
63E2  E8 BB 80                  CALL E4A0h
63E5  E8 BD 84                  CALL E8A5h
63E8  16                        PUSH SS
63E9  20 52 65 74 75 72 6E 69...  db  " Returning to PackCom "
63FF  E8 BB 84                  CALL E8BDh
6402  E8 65 6B                  CALL CF6Ah
6405  B8 88 13                  MOV  AX, 1388h
6408  E8 50 5D                  CALL C15Bh
640B  E8 A4 9B                  CALL FFB2h
640E  E9 57 03                  JMP  6768h
6411  E8 8C 80                  CALL E4A0h
6414  E8 A6 84                  CALL E8BDh
6417  E8 50 6B                  CALL CF6Ah
641A  E8 83 80                  CALL E4A0h
641D  E8 85 84                  CALL E8A5h
6420  1C 20                     SBB  AL, 20h
643E  A1 DA 2D                  MOV  AX, [2DDAh]
6441  50                        PUSH AX
6442  B8 03 00                  MOV  AX, 0003h
6445  E8 B9 83                  CALL E801h
6448  E8 5A 84                  CALL E8A5h
644B  0F                        ???
644C  4B 20 61 6C 6C 6F 63 61...  db  "K allocated):  "
645B  BF DC 2D                  MOV  DI, 2DDCh
645E  0E                        PUSH CS
645F  E8 B2 6C                  CALL D114h
6462  B8 00 00                  MOV  AX, 0000h
6465  E8 06 84                  CALL E86Eh
6468  E8 FF 6A                  CALL CF6Ah
646B  E8 32 80                  CALL E4A0h
646E  E8 4C 84                  CALL E8BDh
6471  E8 F6 6A                  CALL CF6Ah
6474  E8 29 80                  CALL E4A0h
6477  E8 43 84                  CALL E8BDh
647A  E8 ED 6A                  CALL CF6Ah
647D  E8 20 80                  CALL E4A0h
6480  E8 22 84                  CALL E8A5h
6483  3F 20 54 68 65 20 61 62...  db  "? The above program to be executed can be change now if desired."
64C3  E8 F7 83                  CALL E8BDh
64C6  E8 A1 6A                  CALL CF6Ah
64C9  E8 D4 7F                  CALL E4A0h
64CC  E8 EE 83                  CALL E8BDh
64CF  E8 98 6A                  CALL CF6Ah
64D2  E8 CB 7F                  CALL E4A0h
64D5  E8 CD 83                  CALL E8A5h
64D8  40 20 49 66 20 74 68 65...  db  "@ If there is not enough memory allocated to execute the program,"
6519  E8 A1 83                  CALL E8BDh
651C  E8 4B 6A                  CALL CF6Ah
651F  E8 7E 7F                  CALL E4A0h
6522  E8 80 83                  CALL E8A5h
6525  41 20 74 68 65 6E 20 61...  db  "A then alter the Configuration Parm for External Memory Allocation"
6567  E8 53 83                  CALL E8BDh
656A  E8 FD 69                  CALL CF6Ah
656D  E8 30 7F                  CALL E4A0h
6570  E8 32 83                  CALL E8A5h
6573  15 20 61                  ADC  AX, 6120h
6589  E8 31 83                  CALL E8BDh
658C  E8 DB 69                  CALL CF6Ah
658F  B8 2F 00                  MOV  AX, 002Fh
6592  50                        PUSH AX
6593  B8 02 00                  MOV  AX, 0002h
6596  E8 59 67                  CALL CCF2h
6599  BF DC 2D                  MOV  DI, 2DDCh
659C  0E                        PUSH CS
659D  57                        PUSH DI
659E  E8 69 8B                  CALL F10Ah
65A1  E8 18 9B                  CALL 00BCh
65A4  E8 C7 5B                  CALL C16Eh
65A7  4C                        DEC  SP
65A8  E8 C2 AA                  CALL 106Dh
65AB  B9 00 00                  MOV  CX, 0000h
65AE  BA FF 00                  MOV  DX, 00FFh
65B1  E8 57 69                  CALL CF0Bh
65B4  88 86 59 FF               MOV  [BP-00A7h], AL
65B8  8A 86 59 FF               MOV  AL, [BP-00A7h]
65BC  32 E4                     XOR  AH, AH
65BE  50                        PUSH AX
65BF  B8 41 00                  MOV  AX, 0041h
65C2  59                        POP  CX
65C3  91                        XCHG AX, CX
65C4  2B C1                     SUB  AX, CX
65C6  05 01 00                  ADD  AX, 0001h
65C9  89 86 57 FF               MOV  [BP-00A9h], AX
65CD  8B 86 57 FF               MOV  AX, [BP-00A9h]
65D1  50                        PUSH AX
65D2  8D BE 06 FF               LEA  DI, [BP-00FAh]
65D6  16                        PUSH SS
65D7  B1 50                     MOV  CL, 50h
65D9  E8 41 86                  CALL EC1Dh
65DC  4C                        DEC  SP
65DD  8D BE 66 FF               LEA  DI, [BP-009Ah]
65E1  16                        PUSH SS
65E2  57                        PUSH DI
65E3  E8 28 F7                  CALL 5D0Eh
65E6  75 03                     JNZ  65EBh
65E8  E9 03 00                  JMP  65EEh
65EB  E9 7A 01                  JMP  6768h
65EE  E8 AF 7E                  CALL E4A0h
65F1  E8 C9 82                  CALL E8BDh
65F4  E8 73 69                  CALL CF6Ah
65F7  8D 7E A8                  LEA  DI, [BP-58h]
65FA  16                        PUSH SS
65FB  57                        PUSH DI
65FC  E8 2E 6B                  CALL D12Dh
65FF  03 2F                     ADD  BP, [BX]
6601  63                        ???
6602  20 BF DC 2D               AND  [BX+2DDCh], BH
6606  0E                        PUSH CS
6607  E8 0A 6B                  CALL D114h
660A  E8 38 6C                  CALL D245h
660D  B1 41                     MOV  CL, 41h
660F  E8 31 6B                  CALL D143h
6612  8D 7E A8                  LEA  DI, [BP-58h]
6615  16                        PUSH SS
6616  E8 FB 6A                  CALL D114h
6619  E8 AA 6C                  CALL D2C6h
661C  05 01 00                  ADD  AX, 0001h
661F  B9 42 00                  MOV  CX, 0042h
6622  E8 DC 68                  CALL CF01h
6625  97                        XCHG AX, DI
6626  B8 0D 00                  MOV  AX, 000Dh
6629  B9 00 00                  MOV  CX, 0000h
662C  BA FF 00                  MOV  DX, 00FFh
662F  E8 D9 68                  CALL CF0Bh
6632  88 43 A8                  MOV  [BP+DI-58h], AL
6635  E8 68 7E                  CALL E4A0h
6638  E8 6A 82                  CALL E8A5h
663B  1E                        PUSH DS
663C  44 4F 53 20 43 6F 6D 6D...  db  "DOS Command being processed:  "
665A  E8 0D 69                  CALL CF6Ah
665D  E8 40 7E                  CALL E4A0h
6660  8D BE 66 FF               LEA  DI, [BP-009Ah]
6664  16                        PUSH SS
6665  E8 AC 6A                  CALL D114h
6668  B8 00 00                  MOV  AX, 0000h
666B  E8 00 82                  CALL E86Eh
666E  B8 20 00                  MOV  AX, 0020h
6671  50                        PUSH AX
6672  B8 00 00                  MOV  AX, 0000h
6675  E8 6D 81                  CALL E7E5h
6678  8D 7E A8                  LEA  DI, [BP-58h]
667B  16                        PUSH SS
667C  E8 95 6A                  CALL D114h
667F  B8 00 00                  MOV  AX, 0000h
6682  E8 E9 81                  CALL E86Eh
6685  E8 35 82                  CALL E8BDh
6688  E8 DF 68                  CALL CF6Ah
668B  E8 12 7E                  CALL E4A0h
668E  E8 2C 82                  CALL E8BDh
6691  E8 D6 68                  CALL CF6Ah
6694  E8 09 7E                  CALL E4A0h
6697  E8 0B 82                  CALL E8A5h
669A  1A 44 4F                  SBB  AL, [SI+4Fh]
66B6  A1 DA 2D                  MOV  AX, [2DDAh]
66B9  50                        PUSH AX
66BA  B8 00 00                  MOV  AX, 0000h
66BD  E8 41 81                  CALL E801h
66C0  E8 E2 81                  CALL E8A5h
66C3  0C 4B                     OR   AL, 4Bh
66D0  E8 EA 81                  CALL E8BDh
66D3  E8 94 68                  CALL CF6Ah
66D6  E8 C7 7D                  CALL E4A0h
66D9  E8 C9 81                  CALL E8A5h
66DC  25 20 45 6E 74 65 72 20...  db  "% Enter "EXIT" to get back to packcom."
6702  E8 B8 81                  CALL E8BDh
6705  E8 62 68                  CALL CF6Ah
670B  8D BE 66 FF               LEA  DI, [BP-009Ah]
670F  16                        PUSH SS
6710  57                        PUSH DI
6711  8D 7E A8                  LEA  DI, [BP-58h]
6714  16                        PUSH SS
6715  57                        PUSH DI
6716  E8 64 F7                  CALL 5E7Dh
6719  50                        PUSH AX
671A  E8 12 F8                  CALL 5F2Fh
671D  75 03                     JNZ  6722h
671F  E9 1F 00                  JMP  6741h
6722  E8 7B 7D                  CALL E4A0h
6725  E8 7D 81                  CALL E8A5h
6728  12 43 6F                  ADC  AL, [BP+DI+6Fh]
673B  E8 7F 81                  CALL E8BDh
673E  E8 29 68                  CALL CF6Ah
6741  8A 86 59 FF               MOV  AL, [BP-00A7h]
6745  32 E4                     XOR  AH, AH
6747  B9 00 00                  MOV  CX, 0000h
674A  BA FF 00                  MOV  DX, 00FFh
674D  E8 BB 67                  CALL CF0Bh
6750  50                        PUSH AX
6751  E8 5B A9                  CALL 10AFh
6754  8D BE 06 FF               LEA  DI, [BP-00FAh]
6758  16                        PUSH SS
6759  E8 B8 69                  CALL D114h
675C  E8 6E 84                  CALL EBCDh
675F  E8 08 68                  CALL CF6Ah
6762  E8 A3 99                  CALL 0108h
6765  E8 4A 98                  CALL FFB2h
6768  E9 00 00                  JMP  676Bh
676B  8B E5                     MOV  SP, BP
676D  5D                        POP  BP
676E  C3                        RET
676F  00 00                     ADD  [BX+SI], AL
6771  00 00                     ADD  [BX+SI], AL
6773  00 00                     ADD  [BX+SI], AL
6775  00 00                     ADD  [BX+SI], AL
6777  00 00                     ADD  [BX+SI], AL
6779  00 00                     ADD  [BX+SI], AL
677B  00 00                     ADD  [BX+SI], AL
677D  00 00                     ADD  [BX+SI], AL
677F  00 00                     ADD  [BX+SI], AL
6781  00 00                     ADD  [BX+SI], AL
6783  00 00                     ADD  [BX+SI], AL
6785  00 00                     ADD  [BX+SI], AL
6787  00 00                     ADD  [BX+SI], AL
6789  00 00                     ADD  [BX+SI], AL
678B  00 00                     ADD  [BX+SI], AL
678D  00 00                     ADD  [BX+SI], AL
678F  00 00                     ADD  [BX+SI], AL
6791  00 00                     ADD  [BX+SI], AL
6793  00 00                     ADD  [BX+SI], AL
6795  00 00                     ADD  [BX+SI], AL
6797  00 00                     ADD  [BX+SI], AL
6799  00 00                     ADD  [BX+SI], AL
679B  00 00                     ADD  [BX+SI], AL
679D  00 00                     ADD  [BX+SI], AL
679F  00 00                     ADD  [BX+SI], AL
67A1  00 00                     ADD  [BX+SI], AL
67A3  00 00                     ADD  [BX+SI], AL
67A5  00 00                     ADD  [BX+SI], AL
67A7  00 00                     ADD  [BX+SI], AL
67A9  00 00                     ADD  [BX+SI], AL
67AB  00 00                     ADD  [BX+SI], AL
67AD  00 00                     ADD  [BX+SI], AL
67AF  00 00                     ADD  [BX+SI], AL
67B1  00 00                     ADD  [BX+SI], AL
67B3  00 00                     ADD  [BX+SI], AL
67B5  00 00                     ADD  [BX+SI], AL
67B7  00 00                     ADD  [BX+SI], AL
67B9  00 00                     ADD  [BX+SI], AL
67BB  00 00                     ADD  [BX+SI], AL
67BD  00 00                     ADD  [BX+SI], AL
67BF  00 00                     ADD  [BX+SI], AL
67C1  00 00                     ADD  [BX+SI], AL
67C3  00 00                     ADD  [BX+SI], AL
67C5  00 00                     ADD  [BX+SI], AL
67C7  00 00                     ADD  [BX+SI], AL
67C9  00 00                     ADD  [BX+SI], AL
67CB  00 00                     ADD  [BX+SI], AL
67CD  00 00                     ADD  [BX+SI], AL
67CF  00 00                     ADD  [BX+SI], AL
67D1  00 00                     ADD  [BX+SI], AL
67D3  00 00                     ADD  [BX+SI], AL
67D5  00 00                     ADD  [BX+SI], AL
67D7  00 00                     ADD  [BX+SI], AL
67D9  00 00                     ADD  [BX+SI], AL
67DB  00 00                     ADD  [BX+SI], AL
67DD  00 00                     ADD  [BX+SI], AL
67DF  00 00                     ADD  [BX+SI], AL
67E1  00 00                     ADD  [BX+SI], AL
67E3  00 00                     ADD  [BX+SI], AL
67E5  00 00                     ADD  [BX+SI], AL
67E7  00 00                     ADD  [BX+SI], AL
67E9  00 00                     ADD  [BX+SI], AL
67EB  00 00                     ADD  [BX+SI], AL
67ED  00 00                     ADD  [BX+SI], AL
67EF  00 00                     ADD  [BX+SI], AL
67F1  00 00                     ADD  [BX+SI], AL
67F3  00 00                     ADD  [BX+SI], AL
67F5  00 00                     ADD  [BX+SI], AL
67F7  00 00                     ADD  [BX+SI], AL
67F9  00 00                     ADD  [BX+SI], AL
67FB  00 00                     ADD  [BX+SI], AL
67FD  00 00                     ADD  [BX+SI], AL
67FF  00 E8                     ADD  AL, CH
6801  11 6F 78                  ADC  [BX+78h], BP
6804  00 BF 9D 55               ADD  [BX+559Dh], BH
6808  8B EC                     MOV  BP, SP
680A  55                        PUSH BP
680B  E9 00 00                  JMP  680Eh
680E  A0 59 58                  MOV  AL, [5859h]
6811  32 E4                     XOR  AH, AH
6813  0B C0                     OR   AX, AX
6815  75 03                     JNZ  681Ah
6817  E9 1D 00                  JMP  6837h
681A  B8 00 00                  MOV  AX, 0000h
681D  B9 00 00                  MOV  CX, 0000h
6820  BA 01 00                  MOV  DX, 0001h
6823  E8 E5 71                  CALL DA0Bh
6826  A2 59 58                  MOV  [5859h], AL
6829  B8 4F 00                  MOV  AX, 004Fh
682C  50                        PUSH AX
682D  B8 19 00                  MOV  AX, 0019h
6830  50                        PUSH AX
6831  E8 93 BD                  CALL 25C7h
6834  E9 3D 00                  JMP  6874h
6837  E8 82 A3                  CALL 0BBCh
683A  B8 01 00                  MOV  AX, 0001h
683D  B9 00 00                  MOV  CX, 0000h
6840  BA 01 00                  MOV  DX, 0001h
6843  E8 C5 71                  CALL DA0Bh
6846  A2 59 58                  MOV  [5859h], AL
6849  B8 4F 00                  MOV  AX, 004Fh
684C  50                        PUSH AX
684D  B8 19 00                  MOV  AX, 0019h
6850  E8 9F 6F                  CALL D7F2h
6853  2E                        CS:
6854  A1 95 2E                  MOV  AX, [2E95h]
6857  E8 A9 65                  CALL CE03h
685A  E8 43 87                  CALL EFA0h
685D  B8 48 00                  MOV  AX, 0048h
6860  50                        PUSH AX
6861  B8 00 00                  MOV  AX, 0000h
6864  E8 7E 8A                  CALL F2E5h
6867  E8 00 72                  CALL DA6Ah
686A  2E                        CS:
686B  A1 8D 2E                  MOV  AX, [2E8Dh]
686E  E8 92 65                  CALL CE03h
6871  E8 94 A3                  CALL 0C08h
6874  E9 00 00                  JMP  6877h
6877  8B E5                     MOV  SP, BP
6879  5D                        POP  BP
687A  C3                        RET
687B  00 00                     ADD  [BX+SI], AL
687D  00 00                     ADD  [BX+SI], AL
687F  00 00                     ADD  [BX+SI], AL
6881  00 00                     ADD  [BX+SI], AL
6883  00 00                     ADD  [BX+SI], AL
6885  00 00                     ADD  [BX+SI], AL
6887  00 00                     ADD  [BX+SI], AL
6889  00 00                     ADD  [BX+SI], AL
688B  00 00                     ADD  [BX+SI], AL
688D  00 00                     ADD  [BX+SI], AL
688F  00 00                     ADD  [BX+SI], AL
6891  00 00                     ADD  [BX+SI], AL
6893  00 00                     ADD  [BX+SI], AL
6895  00 00                     ADD  [BX+SI], AL
6897  00 00                     ADD  [BX+SI], AL
6899  00 00                     ADD  [BX+SI], AL
689B  00 00                     ADD  [BX+SI], AL
689D  00 00                     ADD  [BX+SI], AL
689F  00 00                     ADD  [BX+SI], AL
68A1  00 00                     ADD  [BX+SI], AL
68A3  00 00                     ADD  [BX+SI], AL
68A5  00 00                     ADD  [BX+SI], AL
68A7  00 00                     ADD  [BX+SI], AL
68A9  00 00                     ADD  [BX+SI], AL
68AB  00 00                     ADD  [BX+SI], AL
68AD  00 00                     ADD  [BX+SI], AL
68AF  00 00                     ADD  [BX+SI], AL
68B1  00 00                     ADD  [BX+SI], AL
68B3  00 00                     ADD  [BX+SI], AL
68B5  00 00                     ADD  [BX+SI], AL
68B7  00 00                     ADD  [BX+SI], AL
68B9  00 00                     ADD  [BX+SI], AL
68BB  00 00                     ADD  [BX+SI], AL
68BD  00 00                     ADD  [BX+SI], AL
68BF  00 00                     ADD  [BX+SI], AL
68C1  00 00                     ADD  [BX+SI], AL
68C3  00 00                     ADD  [BX+SI], AL
68C5  00 00                     ADD  [BX+SI], AL
68C7  00 00                     ADD  [BX+SI], AL
68C9  00 00                     ADD  [BX+SI], AL
68CB  00 00                     ADD  [BX+SI], AL
68CD  00 00                     ADD  [BX+SI], AL
68CF  00 00                     ADD  [BX+SI], AL
68D1  00 00                     ADD  [BX+SI], AL
68D3  00 00                     ADD  [BX+SI], AL
68D5  00 00                     ADD  [BX+SI], AL
68D7  00 00                     ADD  [BX+SI], AL
68D9  00 00                     ADD  [BX+SI], AL
68DB  00 00                     ADD  [BX+SI], AL
68DD  00 00                     ADD  [BX+SI], AL
68DF  00 00                     ADD  [BX+SI], AL
68E1  00 00                     ADD  [BX+SI], AL
68E3  00 00                     ADD  [BX+SI], AL
68E5  00 00                     ADD  [BX+SI], AL
68E7  00 00                     ADD  [BX+SI], AL
68E9  00 00                     ADD  [BX+SI], AL
68EB  00 00                     ADD  [BX+SI], AL
68ED  00 00                     ADD  [BX+SI], AL
68EF  00 00                     ADD  [BX+SI], AL
68F1  00 00                     ADD  [BX+SI], AL
68F3  00 00                     ADD  [BX+SI], AL
68F5  00 00                     ADD  [BX+SI], AL
68F7  00 00                     ADD  [BX+SI], AL
68F9  00 00                     ADD  [BX+SI], AL
68FB  00 00                     ADD  [BX+SI], AL
68FD  00 00                     ADD  [BX+SI], AL
68FF  00 E8                     ADD  AL, CH
6901  11 6F 14                  ADC  [BX+14h], BP
6904  02 BF 9D 55               ADD  BH, [BX+559Dh]
6908  8B EC                     MOV  BP, SP
690A  55                        PUSH BP
690B  E9 00 00                  JMP  690Eh
690E  83 EC 5F                  SUB  SP, 5Fh
6911  B8 0C 00                  MOV  AX, 000Ch
6914  50                        PUSH AX
6915  B8 04 00                  MOV  AX, 0004h
6918  50                        PUSH AX
6919  B8 45 00                  MOV  AX, 0045h
691C  50                        PUSH AX
691D  B8 0C 00                  MOV  AX, 000Ch
6920  50                        PUSH AX
6921  E8 09 74                  CALL DD2Dh
6924  16                        PUSH SS
6925  43 68 61 6E 67 65 20 44...  db  "Change Directory\Drive"
693B  B1 46                     MOV  CL, 46h
693D  E8 45 74                  CALL DD85h
6940  E8 BC A0                  CALL 09FFh
6943  4C                        DEC  SP
6944  E8 26 B3                  CALL 1C6Dh
6947  B9 00 00                  MOV  CX, 0000h
694A  BA FF 00                  MOV  DX, 00FFh
694D  E8 BB 71                  CALL DB0Bh
6950  88 46 FD                  MOV  [BP-03h], AL
6953  8A 46 FD                  MOV  AL, [BP-03h]
6956  32 E4                     XOR  AH, AH
6958  50                        PUSH AX
6959  B8 41 00                  MOV  AX, 0041h
695C  59                        POP  CX
695D  91                        XCHG AX, CX
695E  2B C1                     SUB  AX, CX
6960  05 01 00                  ADD  AX, 0001h
6963  89 46 FB                  MOV  [BP-05h], AX
6966  8B 46 FB                  MOV  AX, [BP-05h]
6969  50                        PUSH AX
696A  8D 7E AA                  LEA  DI, [BP-56h]
696D  16                        PUSH SS
696E  B1 50                     MOV  CL, 50h
6970  E8 AA 8E                  CALL F81Dh
6973  E8 2A 87                  CALL F0A0h
6976  E8 44 8B                  CALL F4BDh
6979  E8 EE 71                  CALL DB6Ah
697C  E8 21 87                  CALL F0A0h
697F  E8 23 8B                  CALL F4A5h
6982  1A 20                     SBB  AH, [BX+SI]
699D  8D 7E AA                  LEA  DI, [BP-56h]
69A0  16                        PUSH SS
69A1  E8 70 73                  CALL DD14h
69A4  B8 00 00                  MOV  AX, 0000h
69A7  E8 C4 8A                  CALL F46Eh
69AA  E8 10 8B                  CALL F4BDh
69AD  E8 BA 71                  CALL DB6Ah
69B0  E8 ED 86                  CALL F0A0h
69B3  E8 07 8B                  CALL F4BDh
69B6  E8 B1 71                  CALL DB6Ah
69B9  E8 E4 86                  CALL F0A0h
69BC  E8 E6 8A                  CALL F4A5h
69BF  1A 20                     SBB  AH, [BX+SI]
69DA  E8 8D 71                  CALL DB6Ah
69DD  E8 EF 86                  CALL F0CFh
69E0  8D 7E 9F                  LEA  DI, [BP-61h]
69E3  16                        PUSH SS
69E4  B1 0A                     MOV  CL, 0Ah
69E6  E8 12 89                  CALL F2FBh
69E9  E8 7E 71                  CALL DB6Ah
69EC  8D 7E 9F                  LEA  DI, [BP-61h]
69EF  16                        PUSH SS
69F0  E8 21 73                  CALL DD14h
69F3  E8 D0 74                  CALL DEC6h
69F6  3D 00 00                  CMP  AX, 0000h
69F9  7F 03                     JG   69FEh
69FB  E9 52 00                  JMP  6A50h
69FE  8A 46 A0                  MOV  AL, [BP-60h]
6A01  32 E4                     XOR  AH, AH
6A03  E8 B0 64                  CALL CEB6h
6A06  B9 00 00                  MOV  CX, 0000h
6A09  BA FF 00                  MOV  DX, 00FFh
6A0C  E8 FC 70                  CALL DB0Bh
6A0F  88 46 FD                  MOV  [BP-03h], AL
6A12  8A 46 FD                  MOV  AL, [BP-03h]
6A15  32 E4                     XOR  AH, AH
6A17  50                        PUSH AX
6A18  E8 29 76                  CALL E044h
6A1B  B8 41 00                  MOV  AX, 0041h
6A1E  50                        PUSH AX
6A1F  B8 44 00                  MOV  AX, 0044h
6A22  E8 38 76                  CALL E05Dh
6A25  E8 01 77                  CALL E129h
6A28  34 01                     XOR  AL, 01h
6A2A  75 03                     JNZ  6A2Fh
6A2C  E9 0F 00                  JMP  6A3Eh
6A2F  B8 41 00                  MOV  AX, 0041h
6A32  B9 00 00                  MOV  CX, 0000h
6A35  BA FF 00                  MOV  DX, 00FFh
6A38  E8 D0 70                  CALL DB0Bh
6A3B  88 46 FD                  MOV  [BP-03h], AL
6A3E  8A 46 FD                  MOV  AL, [BP-03h]
6A41  32 E4                     XOR  AH, AH
6A43  B9 00 00                  MOV  CX, 0000h
6A46  BA FF 00                  MOV  DX, 00FFh
6A49  E8 BF 70                  CALL DB0Bh
6A4C  50                        PUSH AX
6A4D  E8 5F B2                  CALL 1CAFh
6A50  E8 4D 86                  CALL F0A0h
6A53  E8 4F 8A                  CALL F4A5h
6A56  1A 20                     SBB  AH, [BX+SI]
6A71  E8 F6 70                  CALL DB6Ah
6A74  E8 58 86                  CALL F0CFh
6A77  8D 7E AA                  LEA  DI, [BP-56h]
6A7A  16                        PUSH SS
6A7B  B1 50                     MOV  CL, 50h
6A7D  E8 7B 88                  CALL F2FBh
6A80  E8 E7 70                  CALL DB6Ah
6A83  8D 7E AA                  LEA  DI, [BP-56h]
6A86  16                        PUSH SS
6A87  E8 8A 72                  CALL DD14h
6A8A  E8 39 74                  CALL DEC6h
6A8D  3D 00 00                  CMP  AX, 0000h
6A90  7F 03                     JG   6A95h
6A92  E9 55 00                  JMP  6AEAh
6A95  8D 7E AA                  LEA  DI, [BP-56h]
6A98  16                        PUSH SS
6A99  E8 78 72                  CALL DD14h
6A9C  E8 2E 8D                  CALL F7CDh
6A9F  E8 C1 70                  CALL DB63h
6AA2  3D 00 00                  CMP  AX, 0000h
6AA5  B8 01 00                  MOV  AX, 0001h
6AA8  74 01                     JZ   6AABh
6AAA  48                        DEC  AX
6AAB  B9 00 00                  MOV  CX, 0000h
6AAE  BA 01 00                  MOV  DX, 0001h
6AB1  E8 57 70                  CALL DB0Bh
6AB4  A2 8F 59                  MOV  [598Fh], AL
6AB7  A0 8F 59                  MOV  AL, [598Fh]
6ABA  32 E4                     XOR  AH, AH
6ABC  34 01                     XOR  AL, 01h
6ABE  75 03                     JNZ  6AC3h
6AC0  E9 27 00                  JMP  6AEAh
6AC3  E8 DA 85                  CALL F0A0h
6AC6  E8 DC 89                  CALL F4A5h
6AC9  1D 20 43                  SBB  AX, 4320h
6AE7  E8 D3 89                  CALL F4BDh
6AEA  A0 8F 59                  MOV  AL, [598Fh]
6AED  32 E4                     XOR  AH, AH
6AEF  50                        PUSH AX
6AF0  8D 7E AA                  LEA  DI, [BP-56h]
6AF3  16                        PUSH SS
6AF4  E8 1D 72                  CALL DD14h
6AF7  E8 CC 73                  CALL DEC6h
6AFA  3D 00 00                  CMP  AX, 0000h
6AFD  B8 01 00                  MOV  AX, 0001h
6B00  74 01                     JZ   6B03h
6B02  48                        DEC  AX
6B03  59                        POP  CX
6B04  0B C1                     OR   AX, CX
6B06  0B C0                     OR   AX, AX
6B08  75 03                     JNZ  6B0Dh
6B0A  E9 43 FF                  JMP  6A50h
6B0D  E8 A2 A0                  CALL 0BB2h
6B10  E9 00 00                  JMP  6B13h
6B13  8B E5                     MOV  SP, BP
6B15  5D                        POP  BP
6B16  C3                        RET
6B17  00 00                     ADD  [BX+SI], AL
6B19  00 00                     ADD  [BX+SI], AL
6B1B  00 00                     ADD  [BX+SI], AL
6B1D  00 00                     ADD  [BX+SI], AL
6B1F  00 00                     ADD  [BX+SI], AL
6B21  00 00                     ADD  [BX+SI], AL
6B23  00 00                     ADD  [BX+SI], AL
6B25  00 00                     ADD  [BX+SI], AL
6B27  00 00                     ADD  [BX+SI], AL
6B29  00 00                     ADD  [BX+SI], AL
6B2B  00 00                     ADD  [BX+SI], AL
6B2D  00 00                     ADD  [BX+SI], AL
6B2F  00 00                     ADD  [BX+SI], AL
6B31  00 00                     ADD  [BX+SI], AL
6B33  00 00                     ADD  [BX+SI], AL
6B35  00 00                     ADD  [BX+SI], AL
6B37  00 00                     ADD  [BX+SI], AL
6B39  00 00                     ADD  [BX+SI], AL
6B3B  00 00                     ADD  [BX+SI], AL
6B3D  00 00                     ADD  [BX+SI], AL
6B3F  00 00                     ADD  [BX+SI], AL
6B41  00 00                     ADD  [BX+SI], AL
6B43  00 00                     ADD  [BX+SI], AL
6B45  00 00                     ADD  [BX+SI], AL
6B47  00 00                     ADD  [BX+SI], AL
6B49  00 00                     ADD  [BX+SI], AL
6B4B  00 00                     ADD  [BX+SI], AL
6B4D  00 00                     ADD  [BX+SI], AL
6B4F  00 00                     ADD  [BX+SI], AL
6B51  00 00                     ADD  [BX+SI], AL
6B53  00 00                     ADD  [BX+SI], AL
6B55  00 00                     ADD  [BX+SI], AL
6B57  00 00                     ADD  [BX+SI], AL
6B59  00 00                     ADD  [BX+SI], AL
6B5B  00 00                     ADD  [BX+SI], AL
6B5D  00 00                     ADD  [BX+SI], AL
6B5F  00 00                     ADD  [BX+SI], AL
6B61  00 00                     ADD  [BX+SI], AL
6B63  00 00                     ADD  [BX+SI], AL
6B65  00 00                     ADD  [BX+SI], AL
6B67  00 00                     ADD  [BX+SI], AL
6B69  00 00                     ADD  [BX+SI], AL
6B6B  00 00                     ADD  [BX+SI], AL
6B6D  00 00                     ADD  [BX+SI], AL
6B6F  00 00                     ADD  [BX+SI], AL
6B71  00 00                     ADD  [BX+SI], AL
6B73  00 00                     ADD  [BX+SI], AL
6B75  00 00                     ADD  [BX+SI], AL
6B77  00 00                     ADD  [BX+SI], AL
6B79  00 00                     ADD  [BX+SI], AL
6B7B  00 00                     ADD  [BX+SI], AL
6B7D  00 00                     ADD  [BX+SI], AL
6B7F  00 00                     ADD  [BX+SI], AL
6B81  00 00                     ADD  [BX+SI], AL
6B83  00 00                     ADD  [BX+SI], AL
6B85  00 00                     ADD  [BX+SI], AL
6B87  00 00                     ADD  [BX+SI], AL
6B89  00 00                     ADD  [BX+SI], AL
6B8B  00 00                     ADD  [BX+SI], AL
6B8D  00 00                     ADD  [BX+SI], AL
6B8F  00 00                     ADD  [BX+SI], AL
6B91  00 00                     ADD  [BX+SI], AL
6B93  00 00                     ADD  [BX+SI], AL
6B95  00 00                     ADD  [BX+SI], AL
6B97  00 00                     ADD  [BX+SI], AL
6B99  00 00                     ADD  [BX+SI], AL
6B9B  00 00                     ADD  [BX+SI], AL
6B9D  00 00                     ADD  [BX+SI], AL
6B9F  00 00                     ADD  [BX+SI], AL
6BA1  00 00                     ADD  [BX+SI], AL
6BA3  00 00                     ADD  [BX+SI], AL
6BA5  00 00                     ADD  [BX+SI], AL
6BA7  00 00                     ADD  [BX+SI], AL
6BA9  00 00                     ADD  [BX+SI], AL
6BAB  00 00                     ADD  [BX+SI], AL
6BAD  00 00                     ADD  [BX+SI], AL
6BAF  00 00                     ADD  [BX+SI], AL
6BB1  00 00                     ADD  [BX+SI], AL
6BB3  00 00                     ADD  [BX+SI], AL
6BB5  00 00                     ADD  [BX+SI], AL
6BB7  00 00                     ADD  [BX+SI], AL
6BB9  00 00                     ADD  [BX+SI], AL
6BBB  00 00                     ADD  [BX+SI], AL
6BBD  00 00                     ADD  [BX+SI], AL
6BBF  00 00                     ADD  [BX+SI], AL
6BC1  00 00                     ADD  [BX+SI], AL
6BC3  00 00                     ADD  [BX+SI], AL
6BC5  00 00                     ADD  [BX+SI], AL
6BC7  00 00                     ADD  [BX+SI], AL
6BC9  00 00                     ADD  [BX+SI], AL
6BCB  00 00                     ADD  [BX+SI], AL
6BCD  00 00                     ADD  [BX+SI], AL
6BCF  00 00                     ADD  [BX+SI], AL
6BD1  00 00                     ADD  [BX+SI], AL
6BD3  00 00                     ADD  [BX+SI], AL
6BD5  00 00                     ADD  [BX+SI], AL
6BD7  00 00                     ADD  [BX+SI], AL
6BD9  00 00                     ADD  [BX+SI], AL
6BDB  00 00                     ADD  [BX+SI], AL
6BDD  00 00                     ADD  [BX+SI], AL
6BDF  00 00                     ADD  [BX+SI], AL
6BE1  00 00                     ADD  [BX+SI], AL
6BE3  00 00                     ADD  [BX+SI], AL
6BE5  00 00                     ADD  [BX+SI], AL
6BE7  00 00                     ADD  [BX+SI], AL
6BE9  00 00                     ADD  [BX+SI], AL
6BEB  00 00                     ADD  [BX+SI], AL
6BED  00 00                     ADD  [BX+SI], AL
6BEF  00 00                     ADD  [BX+SI], AL
6BF1  00 00                     ADD  [BX+SI], AL
6BF3  00 00                     ADD  [BX+SI], AL
6BF5  00 00                     ADD  [BX+SI], AL
6BF7  00 00                     ADD  [BX+SI], AL
6BF9  00 00                     ADD  [BX+SI], AL
6BFB  00 00                     ADD  [BX+SI], AL
6BFD  00 00                     ADD  [BX+SI], AL
6BFF  00 E8                     ADD  AL, CH
6C01  11 6F FA                  ADC  [BX-06h], BP
6C04  00 BF 9D 55               ADD  [BX+559Dh], BH
6C08  8B EC                     MOV  BP, SP
6C0A  55                        PUSH BP
6C0B  E9 00 00                  JMP  6C0Eh
6C0E  B8 0F 00                  MOV  AX, 000Fh
6C11  50                        PUSH AX
6C12  B8 04 00                  MOV  AX, 0004h
6C15  50                        PUSH AX
6C16  B8 4D 00                  MOV  AX, 004Dh
6C19  50                        PUSH AX
6C1A  B8 0A 00                  MOV  AX, 000Ah
6C1D  50                        PUSH AX
6C1E  E8 0C 74                  CALL E02Dh
6C21  09 4B 69                  OR   [BP+DI+69h], CX
6C2B  B1 46                     MOV  CL, 46h
6C2D  E8 55 74                  CALL E085h
6C30  E8 CC A0                  CALL 0CFFh
6C33  E8 6A 87                  CALL F3A0h
6C36  E8 6C 8B                  CALL F7A5h
6C39  19 20                     SBB  [BX+SI], SP
6C53  E8 14 72                  CALL DE6Ah
6C56  E8 76 87                  CALL F3CFh
6C59  BF C5 53                  MOV  DI, 53C5h
6C5C  1E                        PUSH DS
6C5D  B1 50                     MOV  CL, 50h
6C5F  E8 99 89                  CALL F5FBh
6C62  E8 05 72                  CALL DE6Ah
6C65  BF C5 53                  MOV  DI, 53C5h
6C68  1E                        PUSH DS
6C69  E8 A8 73                  CALL E014h
6C6C  E8 57 75                  CALL E1C6h
6C6F  3D 00 00                  CMP  AX, 0000h
6C72  74 03                     JZ   6C77h
6C74  E9 06 00                  JMP  6C7Dh
6C77  E8 38 A2                  CALL 0EB2h
6C7A  E9 79 00                  JMP  6CF6h
6C7D  BF 50 55                  MOV  DI, 5550h
6C80  1E                        PUSH DS
6C81  57                        PUSH DI
6C82  BF C5 53                  MOV  DI, 53C5h
6C85  1E                        PUSH DS
6C86  E8 8B 73                  CALL E014h
6C89  E8 91 84                  CALL F11Dh
6C8C  E8 DB 71                  CALL DE6Ah
6C8F  BF 50 55                  MOV  DI, 5550h
6C92  1E                        PUSH DS
6C93  E8 E9 8D                  CALL FA7Fh
6C96  E8 CA 71                  CALL DE63h
6C99  3D 00 00                  CMP  AX, 0000h
6C9C  B8 01 00                  MOV  AX, 0001h
6C9F  74 01                     JZ   6CA2h
6CA1  48                        DEC  AX
6CA2  B9 00 00                  MOV  CX, 0000h
6CA5  BA 01 00                  MOV  DX, 0001h
6CA8  E8 60 71                  CALL DE0Bh
6CAB  A2 8F 59                  MOV  [598Fh], AL
6CAE  A0 8F 59                  MOV  AL, [598Fh]
6CB1  32 E4                     XOR  AH, AH
6CB3  34 01                     XOR  AL, 01h
6CB5  75 03                     JNZ  6CBAh
6CB7  E9 2D 00                  JMP  6CE7h
6CBA  E8 E3 86                  CALL F3A0h
6CBD  E8 E5 8A                  CALL F7A5h
6CC0  13 20                     ADC  SP, [BX+SI]
6CD4  BF C5 53                  MOV  DI, 53C5h
6CD7  1E                        PUSH DS
6CD8  E8 39 73                  CALL E014h
6CDB  B8 00 00                  MOV  AX, 0000h
6CDE  E8 8D 8A                  CALL F76Eh
6CE1  E8 D9 8A                  CALL F7BDh
6CE4  E8 83 71                  CALL DE6Ah
6CE7  A0 8F 59                  MOV  AL, [598Fh]
6CEA  32 E4                     XOR  AH, AH
6CEC  0B C0                     OR   AX, AX
6CEE  75 03                     JNZ  6CF3h
6CF0  E9 40 FF                  JMP  6C33h
6CF3  E8 BC A1                  CALL 0EB2h
6CF6  E9 00 00                  JMP  6CF9h
6CF9  8B E5                     MOV  SP, BP
6CFB  5D                        POP  BP
6CFC  C3                        RET
6CFD  00 00                     ADD  [BX+SI], AL
6CFF  00 E8                     ADD  AL, CH
6D01  11 6F 31                  ADC  [BX+31h], BP
6D04  04 BF                     ADD  AL, BFh
6D06  9D                        POPF
6D07  55                        PUSH BP
6D08  8B EC                     MOV  BP, SP
6D0A  55                        PUSH BP
6D0B  E9 C2 01                  JMP  6ED0h
6D0E  55                        PUSH BP
6D0F  8B C4                     MOV  AX, SP
6D11  FF 76 FE                  PUSH  [BP-02h]
6D14  8B E8                     MOV  BP, AX
6D16  55                        PUSH BP
6D17  E9 00 00                  JMP  6D1Ah
6D1A  4C                        DEC  SP
6D1B  B8 02 00                  MOV  AX, 0002h
6D1E  50                        PUSH AX
6D1F  B8 02 00                  MOV  AX, 0002h
6D22  E8 CD 6F                  CALL DCF2h
6D25  E8 CA 64                  CALL D1F2h
6D28  8B 46 04                  MOV  AX, [BP+04h]
6D2B  3D 01 00                  CMP  AX, 0001h
6D2E  74 03                     JZ   6D33h
6D30  E9 1D 00                  JMP  6D50h
6D33  E8 6A 87                  CALL F4A0h
6D36  E8 6C 8B                  CALL F8A5h
6D39  0D 3C 20                  OR   AX, 203Ch
6D47  E8 73 8B                  CALL F8BDh
6D4A  E8 1D 72                  CALL DF6Ah
6D4D  E9 5F 00                  JMP  6DAFh
6D50  3D 0B 00                  CMP  AX, 000Bh
6D53  74 03                     JZ   6D58h
6D55  E9 1B 00                  JMP  6D73h
6D58  E8 45 87                  CALL F4A0h
6D5B  E8 47 8B                  CALL F8A5h
6D5E  0B 3C                     OR   DI, [SI]
6D6A  E8 50 8B                  CALL F8BDh
6D6D  E8 FA 71                  CALL DF6Ah
6D70  E9 3C 00                  JMP  6DAFh
6D73  3D 15 00                  CMP  AX, 0015h
6D76  74 03                     JZ   6D7Bh
6D78  E9 18 00                  JMP  6D93h
6D7B  E8 22 87                  CALL F4A0h
6D7E  E8 24 8B                  CALL F8A5h
6D81  08 3C                     OR   [SI], BH
6D8A  E8 30 8B                  CALL F8BDh
6D8D  E8 DA 71                  CALL DF6Ah
6D90  E9 1C 00                  JMP  6DAFh
6D93  3D 1F 00                  CMP  AX, 001Fh
6D96  74 03                     JZ   6D9Bh
6D98  E9 14 00                  JMP  6DAFh
6D9B  E8 02 87                  CALL F4A0h
6D9E  E8 04 8B                  CALL F8A5h
6DA1  07                        POP  ES
6DA2  3C 20 41 6C 74 20 3E      db  "< Alt >"
6DA9  E8 11 8B                  CALL F8BDh
6DAC  E8 BB 71                  CALL DF6Ah
6DAF  E8 EE 86                  CALL F4A0h
6DB2  E8 08 8B                  CALL F8BDh
6DB5  E8 B2 71                  CALL DF6Ah
6DB8  B8 01 00                  MOV  AX, 0001h
6DBB  50                        PUSH AX
6DBC  B8 0A 00                  MOV  AX, 000Ah
6DBF  59                        POP  CX
6DC0  91                        XCHG AX, CX
6DC1  2B C8                     SUB  CX, AX
6DC3  7D 03                     JGE  6DC8h
6DC5  E9 59 00                  JMP  6E21h
6DC8  41                        INC  CX
6DC9  88 46 FB                  MOV  [BP-05h], AL
6DCC  51                        PUSH CX
6DCD  E8 22 64                  CALL D1F2h
6DD0  E8 CD 86                  CALL F4A0h
6DD3  8A 46 FB                  MOV  AL, [BP-05h]
6DD6  32 E4                     XOR  AH, AH
6DD8  50                        PUSH AX
6DD9  B8 03 00                  MOV  AX, 0003h
6DDC  E8 22 8A                  CALL F801h
6DDF  E8 C3 8A                  CALL F8A5h
6DE2  03 2E 20 20               ADD  BP, [2020h]
6DE6  C4 3E BA 04               LES  DI, [04BAh]
6DEA  06                        PUSH ES
6DEB  57                        PUSH DI
6DEC  8A 46 FB                  MOV  AL, [BP-05h]
6DEF  32 E4                     XOR  AH, AH
6DF1  03 46 04                  ADD  AX, [BP+04h]
6DF4  2D 01 00                  SUB  AX, 0001h
6DF7  5F                        POP  DI
6DF8  07                        POP  ES
6DF9  48                        DEC  AX
6DFA  B9 28 00                  MOV  CX, 0028h
6DFD  E8 01 71                  CALL DF01h
6E00  B9 51 00                  MOV  CX, 0051h
6E03  F7 E1                     MUL  CX
6E05  03 F8                     ADD  DI, AX
6E07  06                        PUSH ES
6E08  E8 09 73                  CALL E114h
6E0B  B8 00 00                  MOV  AX, 0000h
6E0E  E8 5D 8A                  CALL F86Eh
6E11  E8 A9 8A                  CALL F8BDh
6E14  E8 53 71                  CALL DF6Ah
6E1A  06                        PUSH ES
6E1B  FE 46 FB                  INC  [BP-05h]
6E1E  E9 AB FF                  JMP  6DCCh
6E21  E9 00 00                  JMP  6E24h
6E24  8B E5                     MOV  SP, BP
6E26  5D                        POP  BP
6E27  C2 02 00                  RET  0002h
6E2A  55                        PUSH BP
6E2B  8B C4                     MOV  AX, SP
6E2D  FF 76 FE                  PUSH  [BP-02h]
6E30  8B E8                     MOV  BP, AX
6E32  55                        PUSH BP
6E33  E9 00 00                  JMP  6E36h
6E36  C4 7E 04                  LES  DI, [BP+04h]
6E39  06                        PUSH ES
6E3A  57                        PUSH DI
6E3B  C4 7E 04                  LES  DI, [BP+04h]
6E3E  26                        ES:
6E3F  8B 05                     MOV  AX, [DI]
6E41  05 0A 00                  ADD  AX, 000Ah
6E44  5F                        POP  DI
6E45  07                        POP  ES
6E46  26                        ES:
6E47  89 05                     MOV  [DI], AX
6E49  C4 7E 04                  LES  DI, [BP+04h]
6E4C  26                        ES:
6E4D  8B 05                     MOV  AX, [DI]
6E4F  3D 28 00                  CMP  AX, 0028h
6E52  7F 03                     JG   6E57h
6E54  E9 13 00                  JMP  6E6Ah
6E57  C4 7E 04                  LES  DI, [BP+04h]
6E5A  06                        PUSH ES
6E5B  57                        PUSH DI
6E5C  C4 7E 04                  LES  DI, [BP+04h]
6E5F  26                        ES:
6E60  8B 05                     MOV  AX, [DI]
6E62  2D 28 00                  SUB  AX, 0028h
6E65  5F                        POP  DI
6E66  07                        POP  ES
6E67  26                        ES:
6E68  89 05                     MOV  [DI], AX
6E6A  C4 7E 04                  LES  DI, [BP+04h]
6E6D  26                        ES:
6E6E  8B 05                     MOV  AX, [DI]
6E70  50                        PUSH AX
6E71  E8 9A FE                  CALL 6D0Eh
6E74  E9 00 00                  JMP  6E77h
6E77  8B E5                     MOV  SP, BP
6E79  5D                        POP  BP
6E7A  C2 04 00                  RET  0004h
6E7D  55                        PUSH BP
6E7E  8B C4                     MOV  AX, SP
6E80  FF 76 FE                  PUSH  [BP-02h]
6E83  8B E8                     MOV  BP, AX
6E85  55                        PUSH BP
6E86  E9 00 00                  JMP  6E89h
6E89  C4 7E 04                  LES  DI, [BP+04h]
6E8C  06                        PUSH ES
6E8D  57                        PUSH DI
6E8E  C4 7E 04                  LES  DI, [BP+04h]
6E91  26                        ES:
6E92  8B 05                     MOV  AX, [DI]
6E94  2D 0A 00                  SUB  AX, 000Ah
6E97  5F                        POP  DI
6E98  07                        POP  ES
6E99  26                        ES:
6E9A  89 05                     MOV  [DI], AX
6E9C  C4 7E 04                  LES  DI, [BP+04h]
6E9F  26                        ES:
6EA0  8B 05                     MOV  AX, [DI]
6EA2  3D 01 00                  CMP  AX, 0001h
6EA5  7C 03                     JL   6EAAh
6EA7  E9 13 00                  JMP  6EBDh
6EAA  C4 7E 04                  LES  DI, [BP+04h]
6EAD  06                        PUSH ES
6EAE  57                        PUSH DI
6EAF  C4 7E 04                  LES  DI, [BP+04h]
6EB2  26                        ES:
6EB3  8B 05                     MOV  AX, [DI]
6EB5  05 28 00                  ADD  AX, 0028h
6EB8  5F                        POP  DI
6EB9  07                        POP  ES
6EBA  26                        ES:
6EBB  89 05                     MOV  [DI], AX
6EBD  C4 7E 04                  LES  DI, [BP+04h]
6EC0  26                        ES:
6EC1  8B 05                     MOV  AX, [DI]
6EC3  50                        PUSH AX
6EC4  E8 47 FE                  CALL 6D0Eh
6EC7  E9 00 00                  JMP  6ECAh
6ECA  8B E5                     MOV  SP, BP
6ECC  5D                        POP  BP
6ECD  C2 04 00                  RET  0004h
6ED0  83 EC 05                  SUB  SP, 05h
6ED3  B8 00 00                  MOV  AX, 0000h
6ED6  B9 00 00                  MOV  CX, 0000h
6ED9  BA 01 00                  MOV  DX, 0001h
6EDC  E8 2C 70                  CALL DF0Bh
6EDF  88 46 FB                  MOV  [BP-05h], AL
6EE2  B8 01 00                  MOV  AX, 0001h
6EE5  50                        PUSH AX
6EE6  B8 03 00                  MOV  AX, 0003h
6EE9  50                        PUSH AX
6EEA  B8 50 00                  MOV  AX, 0050h
6EED  50                        PUSH AX
6EEE  B8 14 00                  MOV  AX, 0014h
6EF1  50                        PUSH AX
6EF2  E8 38 72                  CALL E12Dh
6F3C  B1 46                     MOV  CL, 46h
6F3E  E8 44 72                  CALL E185h
6F41  E8 BB 9E                  CALL 0DFFh
6F44  B8 01 00                  MOV  AX, 0001h
6F47  89 46 F9                  MOV  [BP-07h], AX
6F4A  8B 46 F9                  MOV  AX, [BP-07h]
6F4D  50                        PUSH AX
6F4E  E8 BD FD                  CALL 6D0Eh
6F51  B8 01 00                  MOV  AX, 0001h
6F54  50                        PUSH AX
6F55  B8 10 00                  MOV  AX, 0010h
6F58  E8 97 6D                  CALL DCF2h
6F5B  E8 42 85                  CALL F4A0h
6F5E  E8 44 89                  CALL F8A5h
6F61  29 20 45 6E 74 65 72 3A...  db  ") Enter: C=Chg, F=PgFwd, B=PgBak, Q=Quit. "
6F8B  E8 DC 6F                  CALL DF6Ah
6F8E  B8 2A 00                  MOV  AX, 002Ah
6F91  50                        PUSH AX
6F92  B8 10 00                  MOV  AX, 0010h
6F95  E8 5A 6D                  CALL DCF2h
6F98  E8 57 62                  CALL D1F2h
6F9B  BF 42 58                  MOV  DI, 5842h
6F9E  1E                        PUSH DS
6F9F  57                        PUSH DI
6FA0  83 EC 03                  SUB  SP, 03h
6FA3  E8 5C 8E                  CALL FE02h
6FA6  B1 02                     MOV  CL, 02h
6FA8  E8 98 71                  CALL E143h
6FAB  BF 42 58                  MOV  DI, 5842h
6FAE  1E                        PUSH DS
6FAF  E8 62 71                  CALL E114h
6FB2  E8 78 71                  CALL E12Dh
6FB5  00 E8                     ADD  AL, CH
6FB7  15 72 75                  ADC  AX, 7572h
6FBA  03 E9                     ADD  BP, CX
6FBC  DD                        ???
6FBD  FF A0 43 58               JMP  [BX+SI+5843h]
6FC1  32 E4                     XOR  AH, AH
6FC3  E8 F0 62                  CALL D2B6h
6FC6  B9 00 00                  MOV  CX, 0000h
6FC9  BA FF 00                  MOV  DX, 00FFh
6FCC  E8 3C 6F                  CALL DF0Bh
6FCF  A2 41 58                  MOV  [5841h], AL
6FD2  A0 41 58                  MOV  AL, [5841h]
6FD5  32 E4                     XOR  AH, AH
6FD7  3D 43 00                  CMP  AX, 0043h
6FDA  74 03                     JZ   6FDFh
6FDC  E9 89 00                  JMP  7068h
6FDF  E8 BE 84                  CALL F4A0h
6FE2  E8 C0 88                  CALL F8A5h
6FE5  0C 20                     OR   AL, 20h
6FF2  E8 75 6F                  CALL DF6Ah
6FF5  E8 DB 84                  CALL F4D3h
6FF8  8D 7E FC                  LEA  DI, [BP-04h]
6FFB  16                        PUSH SS
6FFC  E8 BF 86                  CALL F6BEh
6FFF  E8 68 6F                  CALL DF6Ah
7002  8B 46 FC                  MOV  AX, [BP-04h]
7005  3D 00 00                  CMP  AX, 0000h
7008  B8 01 00                  MOV  AX, 0001h
700B  7F 01                     JG   700Eh
700D  48                        DEC  AX
700E  50                        PUSH AX
700F  8B 46 FC                  MOV  AX, [BP-04h]
7012  3D 0B 00                  CMP  AX, 000Bh
7015  B8 01 00                  MOV  AX, 0001h
7018  7C 01                     JL   701Bh
701A  48                        DEC  AX
701B  59                        POP  CX
701C  23 C1                     AND  AX, CX
701E  0B C0                     OR   AX, AX
7020  75 03                     JNZ  7025h
7022  E9 40 00                  JMP  7065h
7025  B8 01 00                  MOV  AX, 0001h
7028  B9 00 00                  MOV  CX, 0000h
702B  BA 01 00                  MOV  DX, 0001h
702E  E8 DA 6E                  CALL DF0Bh
7031  88 46 FB                  MOV  [BP-05h], AL
7034  B8 07 00                  MOV  AX, 0007h
7037  50                        PUSH AX
7038  8B 46 FC                  MOV  AX, [BP-04h]
703B  05 03 00                  ADD  AX, 0003h
703E  E8 B1 6C                  CALL DCF2h
7041  C4 3E BA 04               LES  DI, [04BAh]
7045  06                        PUSH ES
7046  57                        PUSH DI
7047  8B 46 FC                  MOV  AX, [BP-04h]
704A  03 46 F9                  ADD  AX, [BP-07h]
704D  2D 01 00                  SUB  AX, 0001h
7050  5F                        POP  DI
7051  07                        POP  ES
7052  48                        DEC  AX
7053  B9 28 00                  MOV  CX, 0028h
7056  E8 A8 6E                  CALL DF01h
7059  B9 51 00                  MOV  CX, 0051h
705C  F7 E1                     MUL  CX
705E  03 F8                     ADD  DI, AX
7060  06                        PUSH ES
7061  57                        PUSH DI
7062  E8 A5 90                  CALL 010Ah
7065  E9 23 00                  JMP  708Bh
7068  3D 46 00                  CMP  AX, 0046h
706B  74 03                     JZ   7070h
706D  E9 0B 00                  JMP  707Bh
7070  8D 7E F9                  LEA  DI, [BP-07h]
7073  16                        PUSH SS
7074  57                        PUSH DI
7075  E8 B2 FD                  CALL 6E2Ah
7078  E9 10 00                  JMP  708Bh
707B  3D 42 00                  CMP  AX, 0042h
707E  74 03                     JZ   7083h
7080  E9 08 00                  JMP  708Bh
7083  8D 7E F9                  LEA  DI, [BP-07h]
7086  16                        PUSH SS
7087  57                        PUSH DI
7088  E8 F2 FD                  CALL 6E7Dh
708B  A0 41 58                  MOV  AL, [5841h]
708E  32 E4                     XOR  AH, AH
7090  3D 51 00                  CMP  AX, 0051h
7093  74 03                     JZ   7098h
7095  E9 F6 FE                  JMP  6F8Eh
7098  8A 46 FB                  MOV  AL, [BP-05h]
709B  32 E4                     XOR  AH, AH
709D  0B C0                     OR   AX, AX
709F  75 03                     JNZ  70A4h
70A1  E9 86 00                  JMP  712Ah
70A4  BF 50 55                  MOV  DI, 5550h
70A7  1E                        PUSH DS
70A8  57                        PUSH DI
70A9  BF E8 57                  MOV  DI, 57E8h
70AC  1E                        PUSH DS
70AD  E8 64 70                  CALL E114h
70B0  E8 7A 70                  CALL E12Dh
70B3  0B 50 41                  OR   DX, [BX+SI+41h]
70BF  E8 83 71                  CALL E245h
70C2  E8 58 81                  CALL F21Dh
70C5  E8 A2 6E                  CALL DF6Ah
70C8  BF 50 55                  MOV  DI, 5550h
70CB  1E                        PUSH DS
70CC  B9 80 00                  MOV  CX, 0080h
70CF  E8 A4 81                  CALL F276h
70D2  E8 95 6E                  CALL DF6Ah
70D5  B8 01 00                  MOV  AX, 0001h
70D8  50                        PUSH AX
70D9  B8 28 00                  MOV  AX, 0028h
70DC  59                        POP  CX
70DD  91                        XCHG AX, CX
70DE  2B C8                     SUB  CX, AX
70E0  7D 03                     JGE  70E5h
70E2  E9 3B 00                  JMP  7120h
70E5  41                        INC  CX
70E6  89 46 FC                  MOV  [BP-04h], AX
70E9  51                        PUSH CX
70EA  BF 50 55                  MOV  DI, 5550h
70ED  1E                        PUSH DS
70EE  E8 C1 83                  CALL F4B2h
70F1  C4 3E BA 04               LES  DI, [04BAh]
70F5  8B 46 FC                  MOV  AX, [BP-04h]
70F8  48                        DEC  AX
70F9  B9 28 00                  MOV  CX, 0028h
70FC  E8 02 6E                  CALL DF01h
70FF  B9 51 00                  MOV  CX, 0051h
7102  F7 E1                     MUL  CX
7104  03 F8                     ADD  DI, AX
7106  06                        PUSH ES
7107  E8 0A 70                  CALL E114h
710A  B8 00 00                  MOV  AX, 0000h
710D  E8 5E 87                  CALL F86Eh
7110  E8 AA 87                  CALL F8BDh
7113  E8 54 6E                  CALL DF6Ah
7119  06                        PUSH ES
711A  FF 46 FC                  INC  [BP-04h]
711D  E9 C9 FF                  JMP  70E9h
7120  BF 50 55                  MOV  DI, 5550h
7123  1E                        PUSH DS
7124  E8 74 82                  CALL F39Bh
7127  E8 40 6E                  CALL DF6Ah
712A  E8 85 9E                  CALL 0FB2h
712D  E9 00 00                  JMP  7130h
7130  8B E5                     MOV  SP, BP
7132  5D                        POP  BP
7133  C3                        RET
7134  00 00                     ADD  [BX+SI], AL
7136  00 00                     ADD  [BX+SI], AL
7138  00 00                     ADD  [BX+SI], AL
713A  00 00                     ADD  [BX+SI], AL
713C  00 00                     ADD  [BX+SI], AL
713E  00 00                     ADD  [BX+SI], AL
7140  00 00                     ADD  [BX+SI], AL
7142  00 00                     ADD  [BX+SI], AL
7144  00 00                     ADD  [BX+SI], AL
7146  00 00                     ADD  [BX+SI], AL
7148  00 00                     ADD  [BX+SI], AL
714A  00 00                     ADD  [BX+SI], AL
714C  00 00                     ADD  [BX+SI], AL
714E  00 00                     ADD  [BX+SI], AL
7150  00 00                     ADD  [BX+SI], AL
7152  00 00                     ADD  [BX+SI], AL
7154  00 00                     ADD  [BX+SI], AL
7156  00 00                     ADD  [BX+SI], AL
7158  00 00                     ADD  [BX+SI], AL
715A  00 00                     ADD  [BX+SI], AL
715C  00 00                     ADD  [BX+SI], AL
715E  00 00                     ADD  [BX+SI], AL
7160  00 00                     ADD  [BX+SI], AL
7162  00 00                     ADD  [BX+SI], AL
7164  00 00                     ADD  [BX+SI], AL
7166  00 00                     ADD  [BX+SI], AL
7168  00 00                     ADD  [BX+SI], AL
716A  00 00                     ADD  [BX+SI], AL
716C  00 00                     ADD  [BX+SI], AL
716E  00 00                     ADD  [BX+SI], AL
7170  00 00                     ADD  [BX+SI], AL
7172  00 00                     ADD  [BX+SI], AL
7174  00 00                     ADD  [BX+SI], AL
7176  00 00                     ADD  [BX+SI], AL
7178  00 00                     ADD  [BX+SI], AL
717A  00 00                     ADD  [BX+SI], AL
717C  00 00                     ADD  [BX+SI], AL
717E  00 00                     ADD  [BX+SI], AL
7180  00 00                     ADD  [BX+SI], AL
7182  00 00                     ADD  [BX+SI], AL
7184  00 00                     ADD  [BX+SI], AL
7186  00 00                     ADD  [BX+SI], AL
7188  00 00                     ADD  [BX+SI], AL
718A  00 00                     ADD  [BX+SI], AL
718C  00 00                     ADD  [BX+SI], AL
718E  00 00                     ADD  [BX+SI], AL
7190  00 00                     ADD  [BX+SI], AL
7192  00 00                     ADD  [BX+SI], AL
7194  00 00                     ADD  [BX+SI], AL
7196  00 00                     ADD  [BX+SI], AL
7198  00 00                     ADD  [BX+SI], AL
719A  00 00                     ADD  [BX+SI], AL
719C  00 00                     ADD  [BX+SI], AL
719E  00 00                     ADD  [BX+SI], AL
71A0  00 00                     ADD  [BX+SI], AL
71A2  00 00                     ADD  [BX+SI], AL
71A4  00 00                     ADD  [BX+SI], AL
71A6  00 00                     ADD  [BX+SI], AL
71A8  00 00                     ADD  [BX+SI], AL
71AA  00 00                     ADD  [BX+SI], AL
71AC  00 00                     ADD  [BX+SI], AL
71AE  00 00                     ADD  [BX+SI], AL
71B0  00 00                     ADD  [BX+SI], AL
71B2  00 00                     ADD  [BX+SI], AL
71B4  00 00                     ADD  [BX+SI], AL
71B6  00 00                     ADD  [BX+SI], AL
71B8  00 00                     ADD  [BX+SI], AL
71BA  00 00                     ADD  [BX+SI], AL
71BC  00 00                     ADD  [BX+SI], AL
71BE  00 00                     ADD  [BX+SI], AL
71C0  00 00                     ADD  [BX+SI], AL
71C2  00 00                     ADD  [BX+SI], AL
71C4  00 00                     ADD  [BX+SI], AL
71C6  00 00                     ADD  [BX+SI], AL
71C8  00 00                     ADD  [BX+SI], AL
71CA  00 00                     ADD  [BX+SI], AL
71CC  00 00                     ADD  [BX+SI], AL
71CE  00 00                     ADD  [BX+SI], AL
71D0  00 00                     ADD  [BX+SI], AL
71D2  00 00                     ADD  [BX+SI], AL
71D4  00 00                     ADD  [BX+SI], AL
71D6  00 00                     ADD  [BX+SI], AL
71D8  00 00                     ADD  [BX+SI], AL
71DA  00 00                     ADD  [BX+SI], AL
71DC  00 00                     ADD  [BX+SI], AL
71DE  00 00                     ADD  [BX+SI], AL
71E0  00 00                     ADD  [BX+SI], AL
71E2  00 00                     ADD  [BX+SI], AL
71E4  00 00                     ADD  [BX+SI], AL
71E6  00 00                     ADD  [BX+SI], AL
71E8  00 00                     ADD  [BX+SI], AL
71EA  00 00                     ADD  [BX+SI], AL
71EC  00 00                     ADD  [BX+SI], AL
71EE  00 00                     ADD  [BX+SI], AL
71F0  00 00                     ADD  [BX+SI], AL
71F2  00 00                     ADD  [BX+SI], AL
71F4  00 00                     ADD  [BX+SI], AL
71F6  00 00                     ADD  [BX+SI], AL
71F8  00 00                     ADD  [BX+SI], AL
71FA  00 00                     ADD  [BX+SI], AL
71FC  00 00                     ADD  [BX+SI], AL
71FE  00 00                     ADD  [BX+SI], AL
7200  E8 11 6F                  CALL E114h
7203  58                        POP  AX
7204  01 BF 9D 55               ADD  [BX+559Dh], DI
7208  8B EC                     MOV  BP, SP
720A  55                        PUSH BP
720B  E9 00 00                  JMP  720Eh
720E  BF D6 2D                  MOV  DI, 2DD6h
7211  0E                        PUSH CS
7212  E8 FF 73                  CALL E614h
7215  E8 15 74                  CALL E62Dh
7218  03 59 45                  ADD  BX, [BX+DI+45h]
721B  53                        PUSH BX
721C  E8 A3 74                  CALL E6C2h
721F  75 03                     JNZ  7224h
7221  E9 98 00                  JMP  72BCh
7224  BF D6 2D                  MOV  DI, 2DD6h
7227  0E                        PUSH CS
7228  57                        PUSH DI
7229  E8 01 74                  CALL E62Dh
722C  02 4E 4F                  ADD  CL, [BP+4Fh]
722F  B1 03                     MOV  CL, 03h
7231  E8 0F 74                  CALL E643h
7234  B8 14 00                  MOV  AX, 0014h
7237  50                        PUSH AX
7238  B8 0C 00                  MOV  AX, 000Ch
723B  50                        PUSH AX
723C  B8 37 00                  MOV  AX, 0037h
723F  50                        PUSH AX
7240  B8 10 00                  MOV  AX, 0010h
7243  50                        PUSH AX
7244  E8 E6 73                  CALL E62Dh
7247  15 53 74                  ADC  AX, 7453h
725D  B1 46                     MOV  CL, 46h
725F  E8 23 74                  CALL E685h
7262  E8 9A A0                  CALL 12FFh
7265  E8 38 87                  CALL F9A0h
7268  E8 52 8B                  CALL FDBDh
726B  E8 FC 71                  CALL E46Ah
726E  E8 2F 87                  CALL F9A0h
7271  E8 31 8B                  CALL FDA5h
7274  16                        PUSH SS
7275  20 42 6C 61 6E 6B 20 4C...  db  " Blank Lines are to be"
728B  E8 DC 71                  CALL E46Ah
728E  2E                        CS:
728F  A1 95 2E                  MOV  AX, [2E95h]
7292  E8 6E 65                  CALL D803h
7295  E8 08 87                  CALL F9A0h
7298  E8 0A 8B                  CALL FDA5h
729B  0A 20                     OR   AH, [BX+SI]
72A6  E8 C1 71                  CALL E46Ah
72A9  2E                        CS:
72AA  A1 8D 2E                  MOV  AX, [2E8Dh]
72AD  E8 53 65                  CALL D803h
72B0  B8 D0 07                  MOV  AX, 07D0h
72B3  E8 A5 63                  CALL D65Bh
72B6  E8 F9 A1                  CALL 14B2h
72B9  E9 98 00                  JMP  7354h
72BC  BF D6 2D                  MOV  DI, 2DD6h
72BF  0E                        PUSH CS
72C0  57                        PUSH DI
72C1  E8 69 73                  CALL E62Dh
72C4  03 59 45                  ADD  BX, [BX+DI+45h]
72C7  53                        PUSH BX
72C8  B1 03                     MOV  CL, 03h
72CA  E8 76 73                  CALL E643h
72CD  B8 14 00                  MOV  AX, 0014h
72D0  50                        PUSH AX
72D1  B8 0C 00                  MOV  AX, 000Ch
72D4  50                        PUSH AX
72D5  B8 37 00                  MOV  AX, 0037h
72D8  50                        PUSH AX
72D9  B8 10 00                  MOV  AX, 0010h
72DC  50                        PUSH AX
72DD  E8 4D 73                  CALL E62Dh
72E0  15 53 74                  ADC  AX, 7453h
72F6  B1 46                     MOV  CL, 46h
72F8  E8 8A 73                  CALL E685h
72FB  E8 01 A0                  CALL 12FFh
72FE  E8 9F 86                  CALL F9A0h
7301  E8 B9 8A                  CALL FDBDh
7304  E8 63 71                  CALL E46Ah
7307  E8 96 86                  CALL F9A0h
730A  E8 98 8A                  CALL FDA5h
730D  16                        PUSH SS
730E  20 42 6C 61 6E 6B 20 4C...  db  " Blank Lines are to be"
7324  E8 43 71                  CALL E46Ah
7327  2E                        CS:
7328  A1 95 2E                  MOV  AX, [2E95h]
732B  E8 D5 64                  CALL D803h
732E  E8 6F 86                  CALL F9A0h
7331  E8 71 8A                  CALL FDA5h
7334  0C 20                     OR   AL, 20h
7341  E8 26 71                  CALL E46Ah
7344  2E                        CS:
7345  A1 8D 2E                  MOV  AX, [2E8Dh]
7348  E8 B8 64                  CALL D803h
734B  B8 D0 07                  MOV  AX, 07D0h
734E  E8 0A 63                  CALL D65Bh
7351  E8 5E A1                  CALL 14B2h
7354  E9 00 00                  JMP  7357h
7357  8B E5                     MOV  SP, BP
7359  5D                        POP  BP
735A  C3                        RET
735B  00 00                     ADD  [BX+SI], AL
735D  00 00                     ADD  [BX+SI], AL
735F  00 00                     ADD  [BX+SI], AL
7361  00 00                     ADD  [BX+SI], AL
7363  00 00                     ADD  [BX+SI], AL
7365  00 00                     ADD  [BX+SI], AL
7367  00 00                     ADD  [BX+SI], AL
7369  00 00                     ADD  [BX+SI], AL
736B  00 00                     ADD  [BX+SI], AL
736D  00 00                     ADD  [BX+SI], AL
736F  00 00                     ADD  [BX+SI], AL
7371  00 00                     ADD  [BX+SI], AL
7373  00 00                     ADD  [BX+SI], AL
7375  00 00                     ADD  [BX+SI], AL
7377  00 00                     ADD  [BX+SI], AL
7379  00 00                     ADD  [BX+SI], AL
737B  00 00                     ADD  [BX+SI], AL
737D  00 00                     ADD  [BX+SI], AL
737F  00 00                     ADD  [BX+SI], AL
7381  00 00                     ADD  [BX+SI], AL
7383  00 00                     ADD  [BX+SI], AL
7385  00 00                     ADD  [BX+SI], AL
7387  00 00                     ADD  [BX+SI], AL
7389  00 00                     ADD  [BX+SI], AL
738B  00 00                     ADD  [BX+SI], AL
738D  00 00                     ADD  [BX+SI], AL
738F  00 00                     ADD  [BX+SI], AL
7391  00 00                     ADD  [BX+SI], AL
7393  00 00                     ADD  [BX+SI], AL
7395  00 00                     ADD  [BX+SI], AL
7397  00 00                     ADD  [BX+SI], AL
7399  00 00                     ADD  [BX+SI], AL
739B  00 00                     ADD  [BX+SI], AL
739D  00 00                     ADD  [BX+SI], AL
739F  00 00                     ADD  [BX+SI], AL
73A1  00 00                     ADD  [BX+SI], AL
73A3  00 00                     ADD  [BX+SI], AL
73A5  00 00                     ADD  [BX+SI], AL
73A7  00 00                     ADD  [BX+SI], AL
73A9  00 00                     ADD  [BX+SI], AL
73AB  00 00                     ADD  [BX+SI], AL
73AD  00 00                     ADD  [BX+SI], AL
73AF  00 00                     ADD  [BX+SI], AL
73B1  00 00                     ADD  [BX+SI], AL
73B3  00 00                     ADD  [BX+SI], AL
73B5  00 00                     ADD  [BX+SI], AL
73B7  00 00                     ADD  [BX+SI], AL
73B9  00 00                     ADD  [BX+SI], AL
73BB  00 00                     ADD  [BX+SI], AL
73BD  00 00                     ADD  [BX+SI], AL
73BF  00 00                     ADD  [BX+SI], AL
73C1  00 00                     ADD  [BX+SI], AL
73C3  00 00                     ADD  [BX+SI], AL
73C5  00 00                     ADD  [BX+SI], AL
73C7  00 00                     ADD  [BX+SI], AL
73C9  00 00                     ADD  [BX+SI], AL
73CB  00 00                     ADD  [BX+SI], AL
73CD  00 00                     ADD  [BX+SI], AL
73CF  00 00                     ADD  [BX+SI], AL
73D1  00 00                     ADD  [BX+SI], AL
73D3  00 00                     ADD  [BX+SI], AL
73D5  00 00                     ADD  [BX+SI], AL
73D7  00 00                     ADD  [BX+SI], AL
73D9  00 00                     ADD  [BX+SI], AL
73DB  00 00                     ADD  [BX+SI], AL
73DD  00 00                     ADD  [BX+SI], AL
73DF  00 00                     ADD  [BX+SI], AL
73E1  00 00                     ADD  [BX+SI], AL
73E3  00 00                     ADD  [BX+SI], AL
73E5  00 00                     ADD  [BX+SI], AL
73E7  00 00                     ADD  [BX+SI], AL
73E9  00 00                     ADD  [BX+SI], AL
73EB  00 00                     ADD  [BX+SI], AL
73ED  00 00                     ADD  [BX+SI], AL
73EF  00 00                     ADD  [BX+SI], AL
73F1  00 00                     ADD  [BX+SI], AL
73F3  00 00                     ADD  [BX+SI], AL
73F5  00 00                     ADD  [BX+SI], AL
73F7  00 00                     ADD  [BX+SI], AL
73F9  00 00                     ADD  [BX+SI], AL
73FB  00 00                     ADD  [BX+SI], AL
73FD  00 00                     ADD  [BX+SI], AL
73FF  00 E8                     ADD  AL, CH
7401  11 6F E1                  ADC  [BX-1Fh], BP
7404  00 BF 9D 55               ADD  [BX+559Dh], BH
7408  8B EC                     MOV  BP, SP
740A  55                        PUSH BP
740B  E9 00 00                  JMP  740Eh
740E  83 EC 03                  SUB  SP, 03h
7411  B8 1E 00                  MOV  AX, 001Eh
7414  50                        PUSH AX
7415  B8 0C 00                  MOV  AX, 000Ch
7418  50                        PUSH AX
7419  B8 37 00                  MOV  AX, 0037h
741C  50                        PUSH AX
741D  B8 10 00                  MOV  AX, 0010h
7420  50                        PUSH AX
7421  E8 09 74                  CALL E82Dh
7424  05 45 78                  ADD  AX, 7845h
742A  B1 46                     MOV  CL, 46h
742C  E8 56 74                  CALL E885h
742F  E8 CD A0                  CALL 14FFh
7432  E8 6B 87                  CALL FBA0h
7435  E8 85 8B                  CALL FFBDh
7438  E8 2F 72                  CALL E66Ah
743B  E8 62 87                  CALL FBA0h
743E  E8 64 8B                  CALL FFA5h
7441  16                        PUSH SS
7442  20 45 78 69 74 20 50 61...  db  " Exit PackCom (N/y) ? "
7458  E8 0F 72                  CALL E66Ah
745B  E8 94 64                  CALL D8F2h
745E  8D 7E FB                  LEA  DI, [BP-05h]
7461  16                        PUSH SS
7462  57                        PUSH DI
7463  83 EC 03                  SUB  SP, 03h
7466  E8 99 90                  CALL 0502h
7469  B1 02                     MOV  CL, 02h
746B  E8 D5 73                  CALL E843h
746E  8D 7E FB                  LEA  DI, [BP-05h]
7471  16                        PUSH SS
7472  E8 9F 73                  CALL E814h
7475  E8 B5 73                  CALL E82Dh
7478  00 E8                     ADD  AL, CH
747A  52                        PUSH DX
747B  74 75                     JZ   74F2h
747D  03 E9                     ADD  BP, CX
747F  DD                        ???
7480  FF 8D 7E FB               DEC  [DI-0482h]
7484  16                        PUSH SS
7485  57                        PUSH DI
7486  8A 46 FC                  MOV  AL, [BP-04h]
7489  32 E4                     XOR  AH, AH
748B  E8 28 65                  CALL D9B6h
748E  8A E0                     MOV  AH, AL
7490  B0 01                     MOV  AL, 01h
7492  50                        PUSH AX
7493  B1 02                     MOV  CL, 02h
7495  E8 AB 73                  CALL E843h
7498  8A 46 FC                  MOV  AL, [BP-04h]
749B  32 E4                     XOR  AH, AH
749D  3D 59 00                  CMP  AX, 0059h
74A0  74 03                     JZ   74A5h
74A2  E9 35 00                  JMP  74DAh
74A5  B8 01 00                  MOV  AX, 0001h
74A8  B9 00 00                  MOV  CX, 0000h
74AB  BA 01 00                  MOV  DX, 0001h
74AE  E8 5A 71                  CALL E60Bh
74B1  A2 B9 04                  MOV  [04B9h], AL
74B4  B8 03 00                  MOV  AX, 0003h
74B7  B9 00 00                  MOV  CX, 0000h
74BA  BA FF 00                  MOV  DX, 00FFh
74BD  E8 4B 71                  CALL E60Bh
74C0  50                        PUSH AX
74C1  E8 3F B9                  CALL 2E03h
74C4  B8 F4 01                  MOV  AX, 01F4h
74C7  E8 91 63                  CALL D85Bh
74CA  B8 20 00                  MOV  AX, 0020h
74CD  B9 00 00                  MOV  CX, 0000h
74D0  BA FF 00                  MOV  DX, 00FFh
74D3  E8 35 71                  CALL E60Bh
74D6  50                        PUSH AX
74D7  E8 29 B9                  CALL 2E03h
74DA  E8 D5 A1                  CALL 16B2h
74DD  E9 00 00                  JMP  74E0h
74E0  8B E5                     MOV  SP, BP
74E2  5D                        POP  BP
74E3  C3                        RET
74E4  00 00                     ADD  [BX+SI], AL
74E6  00 00                     ADD  [BX+SI], AL
74E8  00 00                     ADD  [BX+SI], AL
74EA  00 00                     ADD  [BX+SI], AL
74EC  00 00                     ADD  [BX+SI], AL
74EE  00 00                     ADD  [BX+SI], AL
74F0  00 00                     ADD  [BX+SI], AL
74F2  00 00                     ADD  [BX+SI], AL
74F4  00 00                     ADD  [BX+SI], AL
74F6  00 00                     ADD  [BX+SI], AL
74F8  00 00                     ADD  [BX+SI], AL
74FA  00 00                     ADD  [BX+SI], AL
74FC  00 00                     ADD  [BX+SI], AL
74FE  00 00                     ADD  [BX+SI], AL
7500  E8 11 6F                  CALL E414h
7503  41                        INC  CX
7504  07                        POP  ES
7505  BF 9D 55                  MOV  DI, 559Dh
7508  8B EC                     MOV  BP, SP
750A  55                        PUSH BP
750B  E9 BC 00                  JMP  75CAh
750E  55                        PUSH BP
750F  8B C4                     MOV  AX, SP
7511  FF 76 FE                  PUSH  [BP-02h]
7514  8B E8                     MOV  BP, AX
7516  55                        PUSH BP
7517  E9 00 00                  JMP  751Ah
751A  83 EC 53                  SUB  SP, 53h
751D  8D 7E A9                  LEA  DI, [BP-57h]
7520  16                        PUSH SS
7521  57                        PUSH DI
7522  E8 08 74                  CALL E92Dh
7525  02 20                     ADD  AH, [BX+SI]
7527  24 B1                     AND  AL, B1h
7529  50                        PUSH AX
752A  E8 16 74                  CALL E943h
752D  B8 01 00                  MOV  AX, 0001h
7530  50                        PUSH AX
7531  B8 04 00                  MOV  AX, 0004h
7534  59                        POP  CX
7535  91                        XCHG AX, CX
7536  2B C8                     SUB  CX, AX
7538  7D 03                     JGE  753Dh
753A  E9 65 00                  JMP  75A2h
753D  41                        INC  CX
753E  88 46 FB                  MOV  [BP-05h], AL
7541  51                        PUSH CX
7542  8B 46 04                  MOV  AX, [BP+04h]
7545  B9 0C 00                  MOV  CX, 000Ch
7548  D3 E8                     SHR  AX, CL
754A  B9 00 00                  MOV  CX, 0000h
754D  BA FF 00                  MOV  DX, 00FFh
7550  E8 B8 71                  CALL E70Bh
7553  88 46 FA                  MOV  [BP-06h], AL
7556  8B 46 04                  MOV  AX, [BP+04h]
7559  B9 04 00                  MOV  CX, 0004h
755C  D3 E0                     SHL  AX, CL
755E  89 46 04                  MOV  [BP+04h], AX
7561  8D 7E A9                  LEA  DI, [BP-57h]
7564  16                        PUSH SS
7565  57                        PUSH DI
7566  8D 7E A9                  LEA  DI, [BP-57h]
7569  16                        PUSH SS
756A  E8 A7 73                  CALL E914h
756D  E8 BD 73                  CALL E92Dh
7570  10 30                     ADC  [BX+SI], DH
7581  8A 46 FA                  MOV  AL, [BP-06h]
7584  32 E4                     XOR  AH, AH
7586  05 01 00                  ADD  AX, 0001h
7589  50                        PUSH AX
758A  B8 01 00                  MOV  AX, 0001h
758D  E8 F7 74                  CALL EA87h
7590  E8 B2 74                  CALL EA45h
7593  B1 50                     MOV  CL, 50h
7595  E8 AB 73                  CALL E943h
759B  06                        PUSH ES
759C  FE 46 FB                  INC  [BP-05h]
759F  E9 9F FF                  JMP  7541h
75A2  8D 7E 06                  LEA  DI, [BP+06h]
75A5  16                        PUSH SS
75A6  57                        PUSH DI
75A7  8D 7E A9                  LEA  DI, [BP-57h]
75AA  16                        PUSH SS
75AB  E8 66 73                  CALL E914h
75AE  E8 7C 73                  CALL E92Dh
75B1  02 20                     ADD  AH, [BX+SI]
75B3  20 E8                     AND  AL, CH
75B5  8E 74 B1                  MOV  SS, [SI-4Fh]
75B8  50                        PUSH AX
75B9  E8 87 73                  CALL E943h
75BC  E9 00 00                  JMP  75BFh
75BF  BA 02 00                  MOV  DX, 0002h
75C2  B1 50                     MOV  CL, 50h
75C4  8B E5                     MOV  SP, BP
75C6  5D                        POP  BP
75C7  E9 16 76                  JMP  EBE0h
75CA  B8 01 00                  MOV  AX, 0001h
75CD  50                        PUSH AX
75CE  B8 01 00                  MOV  AX, 0001h
75D1  50                        PUSH AX
75D2  B8 4F 00                  MOV  AX, 004Fh
75D5  50                        PUSH AX
75D6  B8 17 00                  MOV  AX, 0017h
75D9  50                        PUSH AX
75DA  E8 50 73                  CALL E92Dh
75DD  16                        PUSH SS
75DE  44 69 73 70 6C 61 79 5F...  db  "Display_Comm_Port_Info"
75F4  B1 46                     MOV  CL, 46h
75F6  E8 8C 73                  CALL E985h
75F9  E8 03 A0                  CALL 15FFh
75FC  E8 A1 86                  CALL FCA0h
75FF  E8 A3 8A                  CALL 00A5h
7602  13 20                     ADC  SP, [BX+SI]
7616  83 EC 51                  SUB  SP, 51h
7619  A1 9C 02                  MOV  AX, [029Ch]
761C  50                        PUSH AX
761D  E8 EE FE                  CALL 750Eh
7620  B8 00 00                  MOV  AX, 0000h
7623  E8 48 8A                  CALL 006Eh
7626  83 EC 51                  SUB  SP, 51h
7629  A1 9C 02                  MOV  AX, [029Ch]
762C  92                        XCHG AX, DX
762D  EC                        IN   AL, DX
762E  32 E4                     XOR  AH, AH
7630  50                        PUSH AX
7631  E8 DA FE                  CALL 750Eh
7634  B8 00 00                  MOV  AX, 0000h
7637  E8 34 8A                  CALL 006Eh
763A  E8 68 8A                  CALL 00A5h
763D  11 20                     ADC  [BX+SI], SP
764F  83 EC 51                  SUB  SP, 51h
7652  A0 9B 02                  MOV  AL, [029Bh]
7655  32 E4                     XOR  AH, AH
7657  50                        PUSH AX
7658  E8 B3 FE                  CALL 750Eh
765B  B8 00 00                  MOV  AX, 0000h
765E  E8 0D 8A                  CALL 006Eh
7661  E8 59 8A                  CALL 00BDh
7664  E8 03 71                  CALL E76Ah
7667  E8 36 86                  CALL FCA0h
766A  E8 38 8A                  CALL 00A5h
766D  13 20                     ADC  SP, [BX+SI]
7681  83 EC 51                  SUB  SP, 51h
7684  A1 8A 02                  MOV  AX, [028Ah]
7687  50                        PUSH AX
7688  E8 83 FE                  CALL 750Eh
768B  B8 00 00                  MOV  AX, 0000h
768E  E8 DD 89                  CALL 006Eh
7691  83 EC 51                  SUB  SP, 51h
7694  A1 8A 02                  MOV  AX, [028Ah]
7697  92                        XCHG AX, DX
7698  EC                        IN   AL, DX
7699  32 E4                     XOR  AH, AH
769B  50                        PUSH AX
769C  E8 6F FE                  CALL 750Eh
769F  B8 00 00                  MOV  AX, 0000h
76A2  E8 C9 89                  CALL 006Eh
76A5  E8 15 8A                  CALL 00BDh
76A8  E8 BF 70                  CALL E76Ah
76AB  E8 F2 85                  CALL FCA0h
76AE  E8 F4 89                  CALL 00A5h
76B1  13 20                     ADC  SP, [BX+SI]
76C5  83 EC 51                  SUB  SP, 51h
76C8  A1 8C 02                  MOV  AX, [028Ch]
76CB  50                        PUSH AX
76CC  E8 3F FE                  CALL 750Eh
76CF  B8 00 00                  MOV  AX, 0000h
76D2  E8 99 89                  CALL 006Eh
76D5  83 EC 51                  SUB  SP, 51h
76D8  A1 8C 02                  MOV  AX, [028Ch]
76DB  92                        XCHG AX, DX
76DC  EC                        IN   AL, DX
76DD  32 E4                     XOR  AH, AH
76DF  50                        PUSH AX
76E0  E8 2B FE                  CALL 750Eh
76E3  B8 00 00                  MOV  AX, 0000h
76E6  E8 85 89                  CALL 006Eh
76E9  E8 D1 89                  CALL 00BDh
76EC  E8 7B 70                  CALL E76Ah
76EF  E8 AE 85                  CALL FCA0h
76F2  E8 B0 89                  CALL 00A5h
76F5  13 20                     ADC  SP, [BX+SI]
7709  83 EC 51                  SUB  SP, 51h
770C  A1 8E 02                  MOV  AX, [028Eh]
770F  50                        PUSH AX
7710  E8 FB FD                  CALL 750Eh
7713  B8 00 00                  MOV  AX, 0000h
7716  E8 55 89                  CALL 006Eh
7719  83 EC 51                  SUB  SP, 51h
771C  A1 8E 02                  MOV  AX, [028Eh]
771F  92                        XCHG AX, DX
7720  EC                        IN   AL, DX
7721  32 E4                     XOR  AH, AH
7723  50                        PUSH AX
7724  E8 E7 FD                  CALL 750Eh
7727  B8 00 00                  MOV  AX, 0000h
772A  E8 41 89                  CALL 006Eh
772D  E8 75 89                  CALL 00A5h
7730  11 20                     ADC  [BX+SI], SP
7742  83 EC 51                  SUB  SP, 51h
7745  A0 91 02                  MOV  AL, [0291h]
7748  32 E4                     XOR  AH, AH
774A  50                        PUSH AX
774B  E8 C0 FD                  CALL 750Eh
774E  B8 00 00                  MOV  AX, 0000h
7751  E8 1A 89                  CALL 006Eh
7754  E8 66 89                  CALL 00BDh
7757  E8 10 70                  CALL E76Ah
775A  E8 43 85                  CALL FCA0h
775D  E8 45 89                  CALL 00A5h
7760  13 20                     ADC  SP, [BX+SI]
7774  83 EC 51                  SUB  SP, 51h
7777  A1 97 02                  MOV  AX, [0297h]
777A  50                        PUSH AX
777B  E8 90 FD                  CALL 750Eh
777E  B8 00 00                  MOV  AX, 0000h
7781  E8 EA 88                  CALL 006Eh
7784  83 EC 51                  SUB  SP, 51h
7787  A1 97 02                  MOV  AX, [0297h]
778A  92                        XCHG AX, DX
778B  EC                        IN   AL, DX
778C  32 E4                     XOR  AH, AH
778E  50                        PUSH AX
778F  E8 7C FD                  CALL 750Eh
7792  B8 00 00                  MOV  AX, 0000h
7795  E8 D6 88                  CALL 006Eh
7798  E8 0A 89                  CALL 00A5h
779B  11 20                     ADC  [BX+SI], SP
77AD  83 EC 51                  SUB  SP, 51h
77B0  A0 92 02                  MOV  AL, [0292h]
77B3  32 E4                     XOR  AH, AH
77B5  50                        PUSH AX
77B6  E8 55 FD                  CALL 750Eh
77B9  B8 00 00                  MOV  AX, 0000h
77BC  E8 AF 88                  CALL 006Eh
77BF  E8 FB 88                  CALL 00BDh
77C2  E8 A5 6F                  CALL E76Ah
77C5  E8 D8 84                  CALL FCA0h
77C8  E8 DA 88                  CALL 00A5h
77CB  13 20                     ADC  SP, [BX+SI]
77DF  83 EC 51                  SUB  SP, 51h
77E2  A1 99 02                  MOV  AX, [0299h]
77E5  50                        PUSH AX
77E6  E8 25 FD                  CALL 750Eh
77E9  B8 00 00                  MOV  AX, 0000h
77EC  E8 7F 88                  CALL 006Eh
77EF  83 EC 51                  SUB  SP, 51h
77F2  A1 99 02                  MOV  AX, [0299h]
77F5  92                        XCHG AX, DX
77F6  EC                        IN   AL, DX
77F7  32 E4                     XOR  AH, AH
77F9  50                        PUSH AX
77FA  E8 11 FD                  CALL 750Eh
77FD  B8 00 00                  MOV  AX, 0000h
7800  E8 6B 88                  CALL 006Eh
7803  E8 9F 88                  CALL 00A5h
7806  11 20                     ADC  [BX+SI], SP
7818  83 EC 51                  SUB  SP, 51h
781B  A0 93 02                  MOV  AL, [0293h]
781E  32 E4                     XOR  AH, AH
7820  50                        PUSH AX
7821  E8 EA FC                  CALL 750Eh
7824  B8 00 00                  MOV  AX, 0000h
7827  E8 44 88                  CALL 006Eh
782A  E8 90 88                  CALL 00BDh
782D  E8 3A 6F                  CALL E76Ah
7830  E8 6D 84                  CALL FCA0h
7833  E8 6F 88                  CALL 00A5h
7836  13 20                     ADC  SP, [BX+SI]
784A  83 EC 51                  SUB  SP, 51h
784D  A1 9F 02                  MOV  AX, [029Fh]
7850  50                        PUSH AX
7851  E8 BA FC                  CALL 750Eh
7854  B8 00 00                  MOV  AX, 0000h
7857  E8 14 88                  CALL 006Eh
785A  83 EC 51                  SUB  SP, 51h
785D  A1 9F 02                  MOV  AX, [029Fh]
7860  92                        XCHG AX, DX
7861  EC                        IN   AL, DX
7862  32 E4                     XOR  AH, AH
7864  50                        PUSH AX
7865  E8 A6 FC                  CALL 750Eh
7868  B8 00 00                  MOV  AX, 0000h
786B  E8 00 88                  CALL 006Eh
786E  E8 34 88                  CALL 00A5h
7871  11 20                     ADC  [BX+SI], SP
7883  83 EC 51                  SUB  SP, 51h
7886  A0 94 02                  MOV  AL, [0294h]
7889  32 E4                     XOR  AH, AH
788B  50                        PUSH AX
788C  E8 7F FC                  CALL 750Eh
788F  B8 00 00                  MOV  AX, 0000h
7892  E8 D9 87                  CALL 006Eh
7895  E8 25 88                  CALL 00BDh
7898  E8 CF 6E                  CALL E76Ah
789B  E8 02 84                  CALL FCA0h
789E  E8 04 88                  CALL 00A5h
78A1  0B 20                     OR   SP, [BX+SI]
78AD  83 EC 51                  SUB  SP, 51h
78B0  B8 20 00                  MOV  AX, 0020h
78B3  92                        XCHG AX, DX
78B4  EC                        IN   AL, DX
78B5  32 E4                     XOR  AH, AH
78B7  50                        PUSH AX
78B8  E8 53 FC                  CALL 750Eh
78BB  B8 00 00                  MOV  AX, 0000h
78BE  E8 AD 87                  CALL 006Eh
78C1  B8 20 00                  MOV  AX, 0020h
78C4  92                        XCHG AX, DX
78C5  EC                        IN   AL, DX
78C6  32 E4                     XOR  AH, AH
78C8  50                        PUSH AX
78C9  B8 00 00                  MOV  AX, 0000h
78CC  E8 32 87                  CALL 0001h
78CF  E8 98 6E                  CALL E76Ah
78D2  E8 CB 83                  CALL FCA0h
78D5  E8 CD 87                  CALL 00A5h
78D8  14 20                     ADC  AL, 20h
78ED  83 EC 51                  SUB  SP, 51h
78F0  2E                        CS:
78F1  A1 A9 2D                  MOV  AX, [2DA9h]
78F4  50                        PUSH AX
78F5  E8 16 FC                  CALL 750Eh
78F8  B8 00 00                  MOV  AX, 0000h
78FB  E8 70 87                  CALL 006Eh
78FE  E8 69 6E                  CALL E76Ah
7901  E8 9C 83                  CALL FCA0h
7904  E8 9E 87                  CALL 00A5h
7907  0E                        PUSH CS
7908  20 20 20 20 69 6E 74 5F...  db  "    int_count "
7916  A1 95 02                  MOV  AX, [0295h]
7919  50                        PUSH AX
791A  B8 00 00                  MOV  AX, 0000h
791D  E8 E1 86                  CALL 0001h
7920  E8 9A 87                  CALL 00BDh
7923  E8 44 6E                  CALL E76Ah
7926  E8 77 83                  CALL FCA0h
7929  E8 79 87                  CALL 00A5h
792C  0B 20                     OR   SP, [BX+SI]
7938  83 EC 51                  SUB  SP, 51h
793B  B8 21 00                  MOV  AX, 0021h
793E  92                        XCHG AX, DX
793F  EC                        IN   AL, DX
7940  32 E4                     XOR  AH, AH
7942  50                        PUSH AX
7943  E8 C8 FB                  CALL 750Eh
7946  B8 00 00                  MOV  AX, 0000h
7949  E8 22 87                  CALL 006Eh
794C  B8 21 00                  MOV  AX, 0021h
794F  92                        XCHG AX, DX
7950  EC                        IN   AL, DX
7951  32 E4                     XOR  AH, AH
7953  50                        PUSH AX
7954  B8 00 00                  MOV  AX, 0000h
7957  E8 A7 86                  CALL 0001h
795A  E8 0D 6E                  CALL E76Ah
795D  E8 40 83                  CALL FCA0h
7960  E8 42 87                  CALL 00A5h
7963  1E                        PUSH DS
7964  20 20 20 20 20 20 6F 66...  db  "      ofs(async_intr_handler) "
7982  83 EC 51                  SUB  SP, 51h
7985  B8 8C 55                  MOV  AX, 558Ch
7988  50                        PUSH AX
7989  E8 82 FB                  CALL 750Eh
798C  B8 00 00                  MOV  AX, 0000h
798F  E8 DC 86                  CALL 006Eh
7992  E8 28 87                  CALL 00BDh
7995  E8 D2 6D                  CALL E76Ah
7998  E8 05 83                  CALL FCA0h
799B  E8 07 87                  CALL 00A5h
799E  34 20 20 20 20 20 20 20...  db  "4                            CSeg                    "
79D3  83 EC 51                  SUB  SP, 51h
79D6  8C C8                     MOV  AX, CS
79D8  50                        PUSH AX
79D9  E8 32 FB                  CALL 750Eh
79DC  B8 00 00                  MOV  AX, 0000h
79DF  E8 8C 86                  CALL 006Eh
79E2  E8 D8 86                  CALL 00BDh
79E5  E8 82 6D                  CALL E76Ah
79E8  E8 B5 82                  CALL FCA0h
79EB  E8 B7 86                  CALL 00A5h
79EE  12 20                     ADC  AH, [BX+SI]
7A01  A0 7C 02                  MOV  AL, [027Ch]
7A04  32 E4                     XOR  AH, AH
7A06  50                        PUSH AX
7A07  B8 00 00                  MOV  AX, 0000h
7A0A  E8 41 86                  CALL 004Eh
7A0D  E8 5A 6D                  CALL E76Ah
7A10  E8 8D 82                  CALL FCA0h
7A13  E8 8F 86                  CALL 00A5h
7A16  16                        PUSH SS
7A17  20 20 20 20 20 20 49 52...  db  "      IRQ_vector_ofs  "
7A2D  83 EC 51                  SUB  SP, 51h
7A30  A1 82 02                  MOV  AX, [0282h]
7A33  50                        PUSH AX
7A34  E8 D7 FA                  CALL 750Eh
7A37  B8 00 00                  MOV  AX, 0000h
7A3A  E8 31 86                  CALL 006Eh
7A3D  83 EC 51                  SUB  SP, 51h
7A40  B8 00 00                  MOV  AX, 0000h
7A43  50                        PUSH AX
7A44  A1 82 02                  MOV  AX, [0282h]
7A47  97                        XCHG AX, DI
7A48  07                        POP  ES
7A49  26                        ES:
7A4A  8B 05                     MOV  AX, [DI]
7A4C  50                        PUSH AX
7A4D  E8 BE FA                  CALL 750Eh
7A50  B8 00 00                  MOV  AX, 0000h
7A53  E8 18 86                  CALL 006Eh
7A56  E8 64 86                  CALL 00BDh
7A59  E8 0E 6D                  CALL E76Ah
7A5C  E8 41 82                  CALL FCA0h
7A5F  E8 43 86                  CALL 00A5h
7A62  12 20                     ADC  AH, [BX+SI]
7A75  A1 78 02                  MOV  AX, [0278h]
7A78  50                        PUSH AX
7A79  B8 00 00                  MOV  AX, 0000h
7A7C  E8 82 85                  CALL 0001h
7A7F  E8 E8 6C                  CALL E76Ah
7A82  E8 1B 82                  CALL FCA0h
7A85  E8 1D 86                  CALL 00A5h
7A88  19 20                     SBB  [BX+SI], SP
7AA2  83 EC 51                  SUB  SP, 51h
7AA5  A1 84 02                  MOV  AX, [0284h]
7AA8  50                        PUSH AX
7AA9  E8 62 FA                  CALL 750Eh
7AAC  B8 00 00                  MOV  AX, 0000h
7AAF  E8 BC 85                  CALL 006Eh
7AB2  83 EC 51                  SUB  SP, 51h
7AB5  B8 00 00                  MOV  AX, 0000h
7AB8  50                        PUSH AX
7AB9  A1 84 02                  MOV  AX, [0284h]
7ABC  97                        XCHG AX, DI
7ABD  07                        POP  ES
7ABE  26                        ES:
7ABF  8B 05                     MOV  AX, [DI]
7AC1  50                        PUSH AX
7AC2  E8 49 FA                  CALL 750Eh
7AC5  B8 00 00                  MOV  AX, 0000h
7AC8  E8 A3 85                  CALL 006Eh
7ACB  E8 EF 85                  CALL 00BDh
7ACE  E8 99 6C                  CALL E76Ah
7AD1  E8 CC 81                  CALL FCA0h
7AD4  E8 CE 85                  CALL 00A5h
7AD7  15 20 73                  ADC  AX, 7320h
7AED  A1 7A 02                  MOV  AX, [027Ah]
7AF0  50                        PUSH AX
7AF1  B8 00 00                  MOV  AX, 0000h
7AF4  E8 0A 85                  CALL 0001h
7AF7  E8 C3 85                  CALL 00BDh
7AFA  E8 6D 6C                  CALL E76Ah
7AFD  E8 A0 81                  CALL FCA0h
7B00  E8 A2 85                  CALL 00A5h
7B03  15 20 73                  ADC  AX, 7320h
7B19  B8 00 02                  MOV  AX, 0200h
7B1C  50                        PUSH AX
7B1D  B8 00 00                  MOV  AX, 0000h
7B20  E8 DE 84                  CALL 0001h
7B23  E8 97 85                  CALL 00BDh
7B26  E8 41 6C                  CALL E76Ah
7B29  E8 74 81                  CALL FCA0h
7B2C  E8 76 85                  CALL 00A5h
7B2F  15 20 73                  ADC  AX, 7320h
7B45  A1 6E 02                  MOV  AX, [026Eh]
7B48  50                        PUSH AX
7B49  B8 00 00                  MOV  AX, 0000h
7B4C  E8 B2 84                  CALL 0001h
7B4F  E8 6B 85                  CALL 00BDh
7B52  E8 15 6C                  CALL E76Ah
7B55  E8 48 81                  CALL FCA0h
7B58  E8 4A 85                  CALL 00A5h
7B5B  15 20 73                  ADC  AX, 7320h
7B71  B8 00 28                  MOV  AX, 2800h
7B74  50                        PUSH AX
7B75  B8 00 00                  MOV  AX, 0000h
7B78  E8 86 84                  CALL 0001h
7B7B  E8 3F 85                  CALL 00BDh
7B7E  E8 E9 6B                  CALL E76Ah
7B81  E8 1C 81                  CALL FCA0h
7B84  E8 1E 85                  CALL 00A5h
7B87  15 20 73                  ADC  AX, 7320h
7B9D  A1 66 02                  MOV  AX, [0266h]
7BA0  50                        PUSH AX
7BA1  B8 00 00                  MOV  AX, 0000h
7BA4  E8 5A 84                  CALL 0001h
7BA7  E8 13 85                  CALL 00BDh
7BAA  E8 BD 6B                  CALL E76Ah
7BAD  E8 F0 80                  CALL FCA0h
7BB0  E8 F2 84                  CALL 00A5h
7BB3  15 20 44                  ADC  AX, 4420h
7BC9  A0 7D 02                  MOV  AL, [027Dh]
7BCC  32 E4                     XOR  AH, AH
7BCE  50                        PUSH AX
7BCF  B8 00 00                  MOV  AX, 0000h
7BD2  E8 79 84                  CALL 004Eh
7BD5  E8 E5 84                  CALL 00BDh
7BD8  E8 8F 6B                  CALL E76Ah
7BDB  E8 C2 80                  CALL FCA0h
7BDE  E8 C4 84                  CALL 00A5h
7BE1  15 20 43                  ADC  AX, 4320h
7BF7  A0 7E 02                  MOV  AL, [027Eh]
7BFA  32 E4                     XOR  AH, AH
7BFC  50                        PUSH AX
7BFD  B8 00 00                  MOV  AX, 0000h
7C00  E8 4B 84                  CALL 004Eh
7C03  E8 B7 84                  CALL 00BDh
7C06  E8 61 6B                  CALL E76Ah
7C09  E8 94 80                  CALL FCA0h
7C0C  E8 96 84                  CALL 00A5h
7C0F  15 20 43                  ADC  AX, 4320h
7C25  A0 7F 02                  MOV  AL, [027Fh]
7C28  32 E4                     XOR  AH, AH
7C2A  50                        PUSH AX
7C2B  B8 00 00                  MOV  AX, 0000h
7C2E  E8 1D 84                  CALL 004Eh
7C31  E8 89 84                  CALL 00BDh
7C34  E8 33 6B                  CALL E76Ah
7C37  E8 47 97                  CALL 1381h
7C3A  E8 75 9B                  CALL 17B2h
7C3D  E9 00 00                  JMP  7C40h
7C40  8B E5                     MOV  SP, BP
7C42  5D                        POP  BP
7C43  C3                        RET
7C44  00 00                     ADD  [BX+SI], AL
7C46  00 00                     ADD  [BX+SI], AL
7C48  00 00                     ADD  [BX+SI], AL
7C4A  00 00                     ADD  [BX+SI], AL
7C4C  00 00                     ADD  [BX+SI], AL
7C4E  00 00                     ADD  [BX+SI], AL
7C50  00 00                     ADD  [BX+SI], AL
7C52  00 00                     ADD  [BX+SI], AL
7C54  00 00                     ADD  [BX+SI], AL
7C56  00 00                     ADD  [BX+SI], AL
7C58  00 00                     ADD  [BX+SI], AL
7C5A  00 00                     ADD  [BX+SI], AL
7C5C  00 00                     ADD  [BX+SI], AL
7C5E  00 00                     ADD  [BX+SI], AL
7C60  00 00                     ADD  [BX+SI], AL
7C62  00 00                     ADD  [BX+SI], AL
7C64  00 00                     ADD  [BX+SI], AL
7C66  00 00                     ADD  [BX+SI], AL
7C68  00 00                     ADD  [BX+SI], AL
7C6A  00 00                     ADD  [BX+SI], AL
7C6C  00 00                     ADD  [BX+SI], AL
7C6E  00 00                     ADD  [BX+SI], AL
7C70  00 00                     ADD  [BX+SI], AL
7C72  00 00                     ADD  [BX+SI], AL
7C74  00 00                     ADD  [BX+SI], AL
7C76  00 00                     ADD  [BX+SI], AL
7C78  00 00                     ADD  [BX+SI], AL
7C7A  00 00                     ADD  [BX+SI], AL
7C7C  00 00                     ADD  [BX+SI], AL
7C7E  00 00                     ADD  [BX+SI], AL
7C80  00 00                     ADD  [BX+SI], AL
7C82  00 00                     ADD  [BX+SI], AL
7C84  00 00                     ADD  [BX+SI], AL
7C86  00 00                     ADD  [BX+SI], AL
7C88  00 00                     ADD  [BX+SI], AL
7C8A  00 00                     ADD  [BX+SI], AL
7C8C  00 00                     ADD  [BX+SI], AL
7C8E  00 00                     ADD  [BX+SI], AL
7C90  00 00                     ADD  [BX+SI], AL
7C92  00 00                     ADD  [BX+SI], AL
7C94  00 00                     ADD  [BX+SI], AL
7C96  00 00                     ADD  [BX+SI], AL
7C98  00 00                     ADD  [BX+SI], AL
7C9A  00 00                     ADD  [BX+SI], AL
7C9C  00 00                     ADD  [BX+SI], AL
7C9E  00 00                     ADD  [BX+SI], AL
7CA0  00 00                     ADD  [BX+SI], AL
7CA2  00 00                     ADD  [BX+SI], AL
7CA4  00 00                     ADD  [BX+SI], AL
7CA6  00 00                     ADD  [BX+SI], AL
7CA8  00 00                     ADD  [BX+SI], AL
7CAA  00 00                     ADD  [BX+SI], AL
7CAC  00 00                     ADD  [BX+SI], AL
7CAE  00 00                     ADD  [BX+SI], AL
7CB0  00 00                     ADD  [BX+SI], AL
7CB2  00 00                     ADD  [BX+SI], AL
7CB4  00 00                     ADD  [BX+SI], AL
7CB6  00 00                     ADD  [BX+SI], AL
7CB8  00 00                     ADD  [BX+SI], AL
7CBA  00 00                     ADD  [BX+SI], AL
7CBC  00 00                     ADD  [BX+SI], AL
7CBE  00 00                     ADD  [BX+SI], AL
7CC0  00 00                     ADD  [BX+SI], AL
7CC2  00 00                     ADD  [BX+SI], AL
7CC4  00 00                     ADD  [BX+SI], AL
7CC6  00 00                     ADD  [BX+SI], AL
7CC8  00 00                     ADD  [BX+SI], AL
7CCA  00 00                     ADD  [BX+SI], AL
7CCC  00 00                     ADD  [BX+SI], AL
7CCE  00 00                     ADD  [BX+SI], AL
7CD0  00 00                     ADD  [BX+SI], AL
7CD2  00 00                     ADD  [BX+SI], AL
7CD4  00 00                     ADD  [BX+SI], AL
7CD6  00 00                     ADD  [BX+SI], AL
7CD8  00 00                     ADD  [BX+SI], AL
7CDA  00 00                     ADD  [BX+SI], AL
7CDC  00 00                     ADD  [BX+SI], AL
7CDE  00 00                     ADD  [BX+SI], AL
7CE0  00 00                     ADD  [BX+SI], AL
7CE2  00 00                     ADD  [BX+SI], AL
7CE4  00 00                     ADD  [BX+SI], AL
7CE6  00 00                     ADD  [BX+SI], AL
7CE8  00 00                     ADD  [BX+SI], AL
7CEA  00 00                     ADD  [BX+SI], AL
7CEC  00 00                     ADD  [BX+SI], AL
7CEE  00 00                     ADD  [BX+SI], AL
7CF0  00 00                     ADD  [BX+SI], AL
7CF2  00 00                     ADD  [BX+SI], AL
7CF4  00 00                     ADD  [BX+SI], AL
7CF6  00 00                     ADD  [BX+SI], AL
7CF8  00 00                     ADD  [BX+SI], AL
7CFA  00 00                     ADD  [BX+SI], AL
7CFC  00 00                     ADD  [BX+SI], AL
7CFE  00 00                     ADD  [BX+SI], AL
7D00  E8 11 6F                  CALL EC14h
7D03  5B                        POP  BX
7D04  1E                        PUSH DS
7D05  BF 9D 55                  MOV  DI, 559Dh
7D08  8B EC                     MOV  BP, SP
7D0A  55                        PUSH BP
7D0B  E9 F2 17                  JMP  9500h
7D0E  55                        PUSH BP
7D0F  8B C4                     MOV  AX, SP
7D11  FF 76 FE                  PUSH  [BP-02h]
7D14  8B E8                     MOV  BP, AX
7D16  55                        PUSH BP
7D17  E9 00 00                  JMP  7D1Ah
7D1A  83 EC 03                  SUB  SP, 03h
7D1D  E8 CC 6F                  CALL ECECh
7D20  75 03                     JNZ  7D25h
7D22  E9 4D 00                  JMP  7D72h
7D25  BF 4A 01                  MOV  DI, 014Ah
7D28  1E                        PUSH DS
7D29  E8 57 87                  CALL 0483h
7D2C  8D 7E F9                  LEA  DI, [BP-07h]
7D2F  16                        PUSH SS
7D30  E8 77 89                  CALL 06AAh
7D33  E8 34 72                  CALL EF6Ah
7D36  8A 46 F9                  MOV  AL, [BP-07h]
7D39  32 E4                     XOR  AH, AH
7D3B  89 46 FA                  MOV  [BP-06h], AX
7D3E  8A 46 F9                  MOV  AL, [BP-07h]
7D41  32 E4                     XOR  AH, AH
7D43  3D 1B 00                  CMP  AX, 001Bh
7D46  74 03                     JZ   7D4Bh
7D48  E9 24 00                  JMP  7D6Fh
7D4B  E8 9E 6F                  CALL ECECh
7D4E  75 03                     JNZ  7D53h
7D50  E9 1C 00                  JMP  7D6Fh
7D53  BF 4A 01                  MOV  DI, 014Ah
7D56  1E                        PUSH DS
7D57  E8 29 87                  CALL 0483h
7D5A  8D 7E F9                  LEA  DI, [BP-07h]
7D5D  16                        PUSH SS
7D5E  E8 49 89                  CALL 06AAh
7D61  E8 06 72                  CALL EF6Ah
7D64  8A 46 F9                  MOV  AL, [BP-07h]
7D67  32 E4                     XOR  AH, AH
7D69  05 80 00                  ADD  AX, 0080h
7D6C  89 46 FA                  MOV  [BP-06h], AX
7D6F  E9 06 00                  JMP  7D78h
7D72  B8 00 00                  MOV  AX, 0000h
7D75  89 46 FA                  MOV  [BP-06h], AX
7D78  8B 46 FA                  MOV  AX, [BP-06h]
7D7B  89 46 04                  MOV  [BP+04h], AX
7D7E  E9 00 00                  JMP  7D81h
7D81  8B 46 04                  MOV  AX, [BP+04h]
7D84  8B E5                     MOV  SP, BP
7D86  5D                        POP  BP
7D87  C2 02 00                  RET  0002h
7D8A  55                        PUSH BP
7D8B  8B C4                     MOV  AX, SP
7D8D  FF 76 FE                  PUSH  [BP-02h]
7D90  8B E8                     MOV  BP, AX
7D92  55                        PUSH BP
7D93  E9 00 00                  JMP  7D96h
7D96  B8 01 00                  MOV  AX, 0001h
7D99  50                        PUSH AX
7D9A  B8 01 00                  MOV  AX, 0001h
7D9D  50                        PUSH AX
7D9E  B8 50 00                  MOV  AX, 0050h
7DA1  50                        PUSH AX
7DA2  B8 18 00                  MOV  AX, 0018h
7DA5  50                        PUSH AX
7DA6  E8 84 73                  CALL F12Dh
7DCE  B1 46                     MOV  CL, 46h
7DD0  E8 B2 73                  CALL F185h
7DD3  E8 29 A0                  CALL 1DFFh
7DD6  E8 C7 86                  CALL 04A0h
7DD9  E8 E1 8A                  CALL 08BDh
7DDC  E8 8B 71                  CALL EF6Ah
7DDF  E8 BE 86                  CALL 04A0h
7DE2  E8 C0 8A                  CALL 08A5h
7DE5  43 20 20 54 68 69 73 20...  db  "C  This window is used to update the Colors generated on the monitor"
7E29  E8 91 8A                  CALL 08BDh
7E2C  E8 3B 71                  CALL EF6Ah
7E2F  E8 6E 86                  CALL 04A0h
7E32  E8 70 8A                  CALL 08A5h
7E35  46 20 20 66 6F 72 20 70...  db  "F  for packets received by PackCom, that match previously sent packets."
7E7C  E8 3E 8A                  CALL 08BDh
7E7F  E8 E8 70                  CALL EF6Ah
7E82  E8 1B 86                  CALL 04A0h
7E85  E8 1D 8A                  CALL 08A5h
7E88  40 20 20 55 73 75 61 6C...  db  "@  Usually these packets come from the TNC echoing the keyboard's"
7EC9  E8 F1 89                  CALL 08BDh
7ECC  E8 9B 70                  CALL EF6Ah
7ECF  E8 CE 85                  CALL 04A0h
7ED2  E8 D0 89                  CALL 08A5h
7ED5  45 20 20 69 6E 70 75 74...  db  "E  input back to you, or by a Digipeater echoing your outgoing packets"
7F1B  E8 9F 89                  CALL 08BDh
7F1E  E8 49 70                  CALL EF6Ah
7F21  E8 7C 85                  CALL 04A0h
7F24  E8 7E 89                  CALL 08A5h
7F27  0E                        PUSH CS
7F28  20 20 62 61 63 6B 20 74...  db  "  back to you."
7F36  E8 84 89                  CALL 08BDh
7F39  E8 2E 70                  CALL EF6Ah
7F3C  E8 61 85                  CALL 04A0h
7F3F  E8 7B 89                  CALL 08BDh
7F42  E8 25 70                  CALL EF6Ah
7F45  E8 58 85                  CALL 04A0h
7F48  E8 72 89                  CALL 08BDh
7F4B  E8 1C 70                  CALL EF6Ah
7F4E  B8 07 00                  MOV  AX, 0007h
7F51  50                        PUSH AX
7F52  B8 09 00                  MOV  AX, 0009h
7F55  E8 9A 6D                  CALL ECF2h
7F58  E8 97 62                  CALL E1F2h
7F5B  E8 42 85                  CALL 04A0h
7F5E  E8 44 89                  CALL 08A5h
7F61  19 4B 65                  SBB  [BP+DI+65h], CX
7F7B  E8 EC 6F                  CALL EF6Ah
7F7E  B8 26 00                  MOV  AX, 0026h
7F81  50                        PUSH AX
7F82  B8 09 00                  MOV  AX, 0009h
7F85  E8 6A 6D                  CALL ECF2h
7F88  E8 15 85                  CALL 04A0h
7F8B  E8 17 89                  CALL 08A5h
7F8E  09 46 6F                  OR   [BP+6Fh], AX
7F98  E8 CF 6F                  CALL EF6Ah
7F9B  B8 33 00                  MOV  AX, 0033h
7F9E  50                        PUSH AX
7F9F  B8 09 00                  MOV  AX, 0009h
7FA2  E8 4D 6D                  CALL ECF2h
7FA5  E8 F8 84                  CALL 04A0h
7FA8  E8 FA 88                  CALL 08A5h
7FAB  09 42 61                  OR   [BP+SI+61h], AX
7FB5  E8 B2 6F                  CALL EF6Ah
7FB8  B8 07 00                  MOV  AX, 0007h
7FBB  50                        PUSH AX
7FBC  B8 0B 00                  MOV  AX, 000Bh
7FBF  E8 30 6D                  CALL ECF2h
7FC2  E8 2D 62                  CALL E1F2h
7FC5  A1 85 87                  MOV  AX, [8785h]
7FC8  E8 38 63                  CALL E303h
7FCB  A1 87 87                  MOV  AX, [8787h]
7FCE  E8 46 63                  CALL E317h
7FD1  E8 CC 84                  CALL 04A0h
7FD4  E8 CE 88                  CALL 08A5h
7FD7  16                        PUSH SS
7FD8  4B 65 79 62 6F 61 72 64...  db  "Keyboard/Digi Echo ..."
7FEE  E8 79 6F                  CALL EF6Ah
7FF1  2E                        CS:
7FF2  A1 8D 2E                  MOV  AX, [2E8Dh]
7FF5  E8 0B 63                  CALL E303h
7FF8  2E                        CS:
7FF9  A1 8F 2E                  MOV  AX, [2E8Fh]
7FFC  E8 18 63                  CALL E317h
7FFF  B8 26 00                  MOV  AX, 0026h
8002  50                        PUSH AX
8003  B8 0B 00                  MOV  AX, 000Bh
8006  E8 E9 6C                  CALL ECF2h
8009  A1 85 87                  MOV  AX, [8785h]
800C  B9 10 00                  MOV  CX, 0010h
800F  E8 EF 6E                  CALL EF01h
8012  B9 0D 00                  MOV  CX, 000Dh
8015  F7 E1                     MUL  CX
8017  97                        XCHG AX, DI
8018  E8 85 84                  CALL 04A0h
801B  81 C7 44 8F               ADD  DI, 8F44h
801F  1E                        PUSH DS
8020  E8 F1 70                  CALL F114h
8023  B8 00 00                  MOV  AX, 0000h
8026  E8 45 88                  CALL 086Eh
8029  E8 3E 6F                  CALL EF6Ah
802C  B8 33 00                  MOV  AX, 0033h
802F  50                        PUSH AX
8030  B8 0B 00                  MOV  AX, 000Bh
8033  E8 BC 6C                  CALL ECF2h
8036  A1 87 87                  MOV  AX, [8787h]
8039  B9 10 00                  MOV  CX, 0010h
803C  E8 C2 6E                  CALL EF01h
803F  B9 0D 00                  MOV  CX, 000Dh
8042  F7 E1                     MUL  CX
8044  97                        XCHG AX, DI
8045  E8 58 84                  CALL 04A0h
8048  81 C7 44 8F               ADD  DI, 8F44h
804C  1E                        PUSH DS
804D  E8 C4 70                  CALL F114h
8050  B8 00 00                  MOV  AX, 0000h
8053  E8 18 88                  CALL 086Eh
8056  E8 11 6F                  CALL EF6Ah
8059  B8 01 00                  MOV  AX, 0001h
805C  B9 00 00                  MOV  CX, 0000h
805F  BA 01 00                  MOV  DX, 0001h
8062  E8 A6 6E                  CALL EF0Bh
8065  8B 5E FE                  MOV  BX, [BP-02h]
8068  36                        SS:
8069  88 47 FA                  MOV  [BX-06h], AL
806C  B8 01 00                  MOV  AX, 0001h
806F  50                        PUSH AX
8070  B8 13 00                  MOV  AX, 0013h
8073  E8 7C 6C                  CALL ECF2h
8076  E8 27 84                  CALL 04A0h
8079  E8 29 88                  CALL 08A5h
807C  32 20 50 72 65 73 73 20...  db  "2 Press <Home> or <End> to Modify Foreground Color."
80AF  E8 B8 6E                  CALL EF6Ah
80B2  B8 01 00                  MOV  AX, 0001h
80B5  50                        PUSH AX
80B6  B8 14 00                  MOV  AX, 0014h
80B9  E8 36 6C                  CALL ECF2h
80BC  E8 E1 83                  CALL 04A0h
80BF  E8 E3 87                  CALL 08A5h
80C2  3D 20 50 72 65 73 73 20...  db  "= Press <Up Arrow> or <Down Arrow> to Modify Background Color."
8100  E8 67 6E                  CALL EF6Ah
8103  B8 01 00                  MOV  AX, 0001h
8106  50                        PUSH AX
8107  B8 16 00                  MOV  AX, 0016h
810A  E8 E5 6B                  CALL ECF2h
810D  E8 90 83                  CALL 04A0h
8110  E8 92 87                  CALL 08A5h
8113  17                        POP  SS
8114  20 50 72 65 73 73 20 3C...  db  " Press <Enter> to Exit."
812B  E8 3C 6E                  CALL EF6Ah
8130  E8 DB FB                  CALL 7D0Eh
8133  8B 5E FE                  MOV  BX, [BP-02h]
8136  36                        SS:
8137  89 47 F5                  MOV  [BX-0Bh], AX
813A  8B 5E FE                  MOV  BX, [BP-02h]
813D  36                        SS:
813E  8B 47 F5                  MOV  AX, [BX-0Bh]
8141  3D 00 00                  CMP  AX, 0000h
8144  75 03                     JNZ  8149h
8146  E9 E5 FF                  JMP  812Eh
8149  8B 5E FE                  MOV  BX, [BP-02h]
814C  36                        SS:
814D  8B 47 F5                  MOV  AX, [BX-0Bh]
8150  3D C7 00                  CMP  AX, 00C7h
8153  74 03                     JZ   8158h
8155  E9 13 00                  JMP  816Bh
8158  A1 85 87                  MOV  AX, [8785h]
815B  05 01 00                  ADD  AX, 0001h
815E  B9 10 00                  MOV  CX, 0010h
8161  99                        CWD
8162  F7 F9                     IDIV  CX
8164  92                        XCHG AX, DX
8165  A3 85 87                  MOV  [8785h], AX
8168  E9 6C 00                  JMP  81D7h
816B  3D CF 00                  CMP  AX, 00CFh
816E  74 03                     JZ   8173h
8170  E9 13 00                  JMP  8186h
8173  A1 85 87                  MOV  AX, [8785h]
8176  05 0F 00                  ADD  AX, 000Fh
8179  B9 10 00                  MOV  CX, 0010h
817C  99                        CWD
817D  F7 F9                     IDIV  CX
817F  92                        XCHG AX, DX
8180  A3 85 87                  MOV  [8785h], AX
8183  E9 51 00                  JMP  81D7h
8186  3D C8 00                  CMP  AX, 00C8h
8189  74 03                     JZ   818Eh
818B  E9 13 00                  JMP  81A1h
818E  A1 87 87                  MOV  AX, [8787h]
8191  05 01 00                  ADD  AX, 0001h
8194  B9 08 00                  MOV  CX, 0008h
8197  99                        CWD
8198  F7 F9                     IDIV  CX
819A  92                        XCHG AX, DX
819B  A3 87 87                  MOV  [8787h], AX
819E  E9 36 00                  JMP  81D7h
81A1  3D D0 00                  CMP  AX, 00D0h
81A4  74 03                     JZ   81A9h
81A6  E9 13 00                  JMP  81BCh
81A9  A1 87 87                  MOV  AX, [8787h]
81AC  05 07 00                  ADD  AX, 0007h
81AF  B9 08 00                  MOV  CX, 0008h
81B2  99                        CWD
81B3  F7 F9                     IDIV  CX
81B5  92                        XCHG AX, DX
81B6  A3 87 87                  MOV  [8787h], AX
81B9  E9 1B 00                  JMP  81D7h
81BC  3D 0D 00                  CMP  AX, 000Dh
81BF  74 03                     JZ   81C4h
81C1  E9 03 00                  JMP  81C7h
81C4  E9 10 00                  JMP  81D7h
81C7  E8 D6 82                  CALL 04A0h
81CA  B8 07 00                  MOV  AX, 0007h
81CD  50                        PUSH AX
81CE  B8 00 00                  MOV  AX, 0000h
81D1  E8 11 86                  CALL 07E5h
81D4  E8 93 6D                  CALL EF6Ah
81D7  A1 85 87                  MOV  AX, [8785h]
81DA  E8 26 61                  CALL E303h
81DD  A1 87 87                  MOV  AX, [8787h]
81E0  E8 34 61                  CALL E317h
81E3  B8 07 00                  MOV  AX, 0007h
81E6  50                        PUSH AX
81E7  B8 0B 00                  MOV  AX, 000Bh
81EA  E8 05 6B                  CALL ECF2h
81ED  E8 B0 82                  CALL 04A0h
81F0  E8 B2 86                  CALL 08A5h
81F3  16                        PUSH SS
81F4  4B 65 79 62 6F 61 72 64...  db  "Keyboard/Digi Echo ..."
820A  E8 5D 6D                  CALL EF6Ah
820D  2E                        CS:
820E  A1 8D 2E                  MOV  AX, [2E8Dh]
8211  E8 EF 60                  CALL E303h
8214  2E                        CS:
8215  A1 8F 2E                  MOV  AX, [2E8Fh]
8218  E8 FC 60                  CALL E317h
821B  B8 26 00                  MOV  AX, 0026h
821E  50                        PUSH AX
821F  B8 0B 00                  MOV  AX, 000Bh
8222  E8 CD 6A                  CALL ECF2h
8225  A1 85 87                  MOV  AX, [8785h]
8228  B9 10 00                  MOV  CX, 0010h
822B  E8 D3 6C                  CALL EF01h
822E  B9 0D 00                  MOV  CX, 000Dh
8231  F7 E1                     MUL  CX
8233  97                        XCHG AX, DI
8234  E8 69 82                  CALL 04A0h
8237  81 C7 44 8F               ADD  DI, 8F44h
823B  1E                        PUSH DS
823C  E8 D5 6E                  CALL F114h
823F  B8 00 00                  MOV  AX, 0000h
8242  E8 29 86                  CALL 086Eh
8245  E8 22 6D                  CALL EF6Ah
8248  B8 33 00                  MOV  AX, 0033h
824B  50                        PUSH AX
824C  B8 0B 00                  MOV  AX, 000Bh
824F  E8 A0 6A                  CALL ECF2h
8252  A1 87 87                  MOV  AX, [8787h]
8255  B9 10 00                  MOV  CX, 0010h
8258  E8 A6 6C                  CALL EF01h
825B  B9 0D 00                  MOV  CX, 000Dh
825E  F7 E1                     MUL  CX
8260  97                        XCHG AX, DI
8261  E8 3C 82                  CALL 04A0h
8264  81 C7 44 8F               ADD  DI, 8F44h
8268  1E                        PUSH DS
8269  E8 A8 6E                  CALL F114h
826C  B8 00 00                  MOV  AX, 0000h
826F  E8 FC 85                  CALL 086Eh
8272  E8 F5 6C                  CALL EF6Ah
8275  8B 5E FE                  MOV  BX, [BP-02h]
8278  36                        SS:
8279  8B 47 F5                  MOV  AX, [BX-0Bh]
827C  3D 0D 00                  CMP  AX, 000Dh
827F  74 03                     JZ   8284h
8281  E9 AA FE                  JMP  812Eh
8284  B8 01 00                  MOV  AX, 0001h
8287  50                        PUSH AX
8288  B8 13 00                  MOV  AX, 0013h
828B  E8 64 6A                  CALL ECF2h
828E  E8 61 5F                  CALL E1F2h
8291  B8 01 00                  MOV  AX, 0001h
8294  50                        PUSH AX
8295  B8 14 00                  MOV  AX, 0014h
8298  E8 57 6A                  CALL ECF2h
829B  E8 54 5F                  CALL E1F2h
829E  B8 01 00                  MOV  AX, 0001h
82A1  50                        PUSH AX
82A2  B8 15 00                  MOV  AX, 0015h
82A5  E8 4A 6A                  CALL ECF2h
82A8  E8 47 5F                  CALL E1F2h
82AB  B8 01 00                  MOV  AX, 0001h
82AE  50                        PUSH AX
82AF  B8 16 00                  MOV  AX, 0016h
82B2  E8 3D 6A                  CALL ECF2h
82B5  E8 3A 5F                  CALL E1F2h
82B8  E8 F7 9C                  CALL 1FB2h
82BB  E9 00 00                  JMP  82BEh
82BE  8B E5                     MOV  SP, BP
82C0  5D                        POP  BP
82C1  C3                        RET
82C2  55                        PUSH BP
82C3  8B C4                     MOV  AX, SP
82C5  FF 76 FE                  PUSH  [BP-02h]
82C8  8B E8                     MOV  BP, AX
82CA  55                        PUSH BP
82CB  E9 00 00                  JMP  82CEh
82CE  B8 01 00                  MOV  AX, 0001h
82D1  50                        PUSH AX
82D2  B8 01 00                  MOV  AX, 0001h
82D5  50                        PUSH AX
82D6  B8 50 00                  MOV  AX, 0050h
82D9  50                        PUSH AX
82DA  B8 18 00                  MOV  AX, 0018h
82DD  50                        PUSH AX
82DE  E8 4C 6E                  CALL F12Dh
82E1  1C 43                     SBB  AL, 43h
82FE  B1 46                     MOV  CL, 46h
8300  E8 82 6E                  CALL F185h
8303  E8 F9 9A                  CALL 1DFFh
8306  E8 97 81                  CALL 04A0h
8309  E8 B1 85                  CALL 08BDh
830C  E8 5B 6C                  CALL EF6Ah
830F  E8 8E 81                  CALL 04A0h
8312  E8 90 85                  CALL 08A5h
8315  43 20 20 54 68 69 73 20...  db  "C  This window is used to update the Colors generated on the monitor"
8359  E8 61 85                  CALL 08BDh
835C  E8 0B 6C                  CALL EF6Ah
835F  E8 3E 81                  CALL 04A0h
8362  E8 40 85                  CALL 08A5h
8365  49 20 20 66 6F 72 20 70...  db  "I  for packets received by PackCom, that meet the two following conditions"
83AF  E8 0B 85                  CALL 08BDh
83B2  E8 B5 6B                  CALL EF6Ah
83B5  E8 E8 80                  CALL 04A0h
83B8  E8 EA 84                  CALL 08A5h
83BB  37 20 20 20 20 20 20 31...  db  "7      1) Packets do not match a previously sent packet."
83F3  E8 C7 84                  CALL 08BDh
83F6  E8 71 6B                  CALL EF6Ah
83F9  E8 A4 80                  CALL 04A0h
83FC  E8 A6 84                  CALL 08A5h
83FF  37 20 20 20 20 20 20 32...  db  "7      2) And packets do not contain Header information."
8437  E8 83 84                  CALL 08BDh
843A  E8 2D 6B                  CALL EF6Ah
843D  E8 60 80                  CALL 04A0h
8440  E8 62 84                  CALL 08A5h
8443  47 20 20 55 73 75 61 6C...  db  "G  Usually packets meeting these conditions will be information received"
848B  E8 2F 84                  CALL 08BDh
848E  E8 D9 6A                  CALL EF6Ah
8491  E8 0C 80                  CALL 04A0h
8494  E8 0E 84                  CALL 08A5h
8497  47 20 20 66 72 6F 6D 20...  db  "G  from a connected station or information sent from the TNC in response"
84DF  E8 DB 83                  CALL 08BDh
84E2  E8 85 6A                  CALL EF6Ah
84E5  E8 B8 7F                  CALL 04A0h
84E8  E8 BA 83                  CALL 08A5h
84EB  13 20                     ADC  SP, [BX+SI]
84FF  E8 BB 83                  CALL 08BDh
8502  E8 65 6A                  CALL EF6Ah
8505  E8 98 7F                  CALL 04A0h
8508  E8 B2 83                  CALL 08BDh
850B  E8 5C 6A                  CALL EF6Ah
850E  E8 8F 7F                  CALL 04A0h
8511  E8 A9 83                  CALL 08BDh
8514  E8 53 6A                  CALL EF6Ah
8517  B8 07 00                  MOV  AX, 0007h
851A  50                        PUSH AX
851B  B8 0B 00                  MOV  AX, 000Bh
851E  E8 D1 67                  CALL ECF2h
8521  E8 CE 5C                  CALL E1F2h
8524  E8 79 7F                  CALL 04A0h
8527  E8 7B 83                  CALL 08A5h
852A  11 4E 6F                  ADC  [BP+6Fh], CX
853C  E8 2B 6A                  CALL EF6Ah
853F  B8 26 00                  MOV  AX, 0026h
8542  50                        PUSH AX
8543  B8 0B 00                  MOV  AX, 000Bh
8546  E8 A9 67                  CALL ECF2h
8549  E8 54 7F                  CALL 04A0h
854C  E8 56 83                  CALL 08A5h
854F  09 46 6F                  OR   [BP+6Fh], AX
8559  E8 0E 6A                  CALL EF6Ah
855C  B8 33 00                  MOV  AX, 0033h
855F  50                        PUSH AX
8560  B8 0B 00                  MOV  AX, 000Bh
8563  E8 8C 67                  CALL ECF2h
8566  E8 37 7F                  CALL 04A0h
8569  E8 39 83                  CALL 08A5h
856C  09 42 61                  OR   [BP+SI+61h], AX
8576  E8 F1 69                  CALL EF6Ah
8579  B8 07 00                  MOV  AX, 0007h
857C  50                        PUSH AX
857D  B8 0D 00                  MOV  AX, 000Dh
8580  E8 6F 67                  CALL ECF2h
8583  E8 6C 5C                  CALL E1F2h
8586  A1 D4 87                  MOV  AX, [87D4h]
8589  E8 77 5D                  CALL E303h
858C  A1 D6 87                  MOV  AX, [87D6h]
858F  E8 85 5D                  CALL E317h
8592  E8 0B 7F                  CALL 04A0h
8595  E8 0D 83                  CALL 08A5h
8598  1A 4E 6F                  SBB  CL, [BP+6Fh]
85B3  E8 B4 69                  CALL EF6Ah
85B6  2E                        CS:
85B7  A1 8D 2E                  MOV  AX, [2E8Dh]
85BA  E8 46 5D                  CALL E303h
85BD  2E                        CS:
85BE  A1 8F 2E                  MOV  AX, [2E8Fh]
85C1  E8 53 5D                  CALL E317h
85C4  B8 26 00                  MOV  AX, 0026h
85C7  50                        PUSH AX
85C8  B8 0D 00                  MOV  AX, 000Dh
85CB  E8 24 67                  CALL ECF2h
85CE  A1 D4 87                  MOV  AX, [87D4h]
85D1  B9 10 00                  MOV  CX, 0010h
85D4  E8 2A 69                  CALL EF01h
85D7  B9 0D 00                  MOV  CX, 000Dh
85DA  F7 E1                     MUL  CX
85DC  97                        XCHG AX, DI
85DD  E8 C0 7E                  CALL 04A0h
85E0  81 C7 44 8F               ADD  DI, 8F44h
85E4  1E                        PUSH DS
85E5  E8 2C 6B                  CALL F114h
85E8  B8 00 00                  MOV  AX, 0000h
85EB  E8 80 82                  CALL 086Eh
85EE  E8 79 69                  CALL EF6Ah
85F1  B8 33 00                  MOV  AX, 0033h
85F4  50                        PUSH AX
85F5  B8 0D 00                  MOV  AX, 000Dh
85F8  E8 F7 66                  CALL ECF2h
85FB  A1 D6 87                  MOV  AX, [87D6h]
85FE  B9 10 00                  MOV  CX, 0010h
8601  E8 FD 68                  CALL EF01h
8604  B9 0D 00                  MOV  CX, 000Dh
8607  F7 E1                     MUL  CX
8609  97                        XCHG AX, DI
860A  E8 93 7E                  CALL 04A0h
860D  81 C7 44 8F               ADD  DI, 8F44h
8611  1E                        PUSH DS
8612  E8 FF 6A                  CALL F114h
8615  B8 00 00                  MOV  AX, 0000h
8618  E8 53 82                  CALL 086Eh
861B  E8 4C 69                  CALL EF6Ah
861E  B8 01 00                  MOV  AX, 0001h
8621  B9 00 00                  MOV  CX, 0000h
8624  BA 01 00                  MOV  DX, 0001h
8627  E8 E1 68                  CALL EF0Bh
862A  8B 5E FE                  MOV  BX, [BP-02h]
862D  36                        SS:
862E  88 47 FA                  MOV  [BX-06h], AL
8631  B8 01 00                  MOV  AX, 0001h
8634  50                        PUSH AX
8635  B8 13 00                  MOV  AX, 0013h
8638  E8 B7 66                  CALL ECF2h
863B  E8 62 7E                  CALL 04A0h
863E  E8 64 82                  CALL 08A5h
8641  32 20 50 72 65 73 73 20...  db  "2 Press <Home> or <End> to Modify Foreground Color."
8674  E8 F3 68                  CALL EF6Ah
8677  B8 01 00                  MOV  AX, 0001h
867A  50                        PUSH AX
867B  B8 14 00                  MOV  AX, 0014h
867E  E8 71 66                  CALL ECF2h
8681  E8 1C 7E                  CALL 04A0h
8684  E8 1E 82                  CALL 08A5h
8687  3D 20 50 72 65 73 73 20...  db  "= Press <Up Arrow> or <Down Arrow> to Modify Background Color."
86C5  E8 A2 68                  CALL EF6Ah
86C8  B8 01 00                  MOV  AX, 0001h
86CB  50                        PUSH AX
86CC  B8 16 00                  MOV  AX, 0016h
86CF  E8 20 66                  CALL ECF2h
86D2  E8 CB 7D                  CALL 04A0h
86D5  E8 CD 81                  CALL 08A5h
86D8  17                        POP  SS
86D9  20 50 72 65 73 73 20 3C...  db  " Press <Enter> to Exit."
86F0  E8 77 68                  CALL EF6Ah
86F5  E8 16 F6                  CALL 7D0Eh
86F8  8B 5E FE                  MOV  BX, [BP-02h]
86FB  36                        SS:
86FC  89 47 F5                  MOV  [BX-0Bh], AX
86FF  8B 5E FE                  MOV  BX, [BP-02h]
8702  36                        SS:
8703  8B 47 F5                  MOV  AX, [BX-0Bh]
8706  3D 00 00                  CMP  AX, 0000h
8709  75 03                     JNZ  870Eh
870B  E9 E5 FF                  JMP  86F3h
870E  8B 5E FE                  MOV  BX, [BP-02h]
8711  36                        SS:
8712  8B 47 F5                  MOV  AX, [BX-0Bh]
8715  3D C7 00                  CMP  AX, 00C7h
8718  74 03                     JZ   871Dh
871A  E9 13 00                  JMP  8730h
871D  A1 D4 87                  MOV  AX, [87D4h]
8720  05 01 00                  ADD  AX, 0001h
8723  B9 10 00                  MOV  CX, 0010h
8726  99                        CWD
8727  F7 F9                     IDIV  CX
8729  92                        XCHG AX, DX
872A  A3 D4 87                  MOV  [87D4h], AX
872D  E9 6C 00                  JMP  879Ch
8730  3D CF 00                  CMP  AX, 00CFh
8733  74 03                     JZ   8738h
8735  E9 13 00                  JMP  874Bh
8738  A1 D4 87                  MOV  AX, [87D4h]
873B  05 0F 00                  ADD  AX, 000Fh
873E  B9 10 00                  MOV  CX, 0010h
8741  99                        CWD
8742  F7 F9                     IDIV  CX
8744  92                        XCHG AX, DX
8745  A3 D4 87                  MOV  [87D4h], AX
8748  E9 51 00                  JMP  879Ch
874B  3D C8 00                  CMP  AX, 00C8h
874E  74 03                     JZ   8753h
8750  E9 13 00                  JMP  8766h
8753  A1 D6 87                  MOV  AX, [87D6h]
8756  05 01 00                  ADD  AX, 0001h
8759  B9 08 00                  MOV  CX, 0008h
875C  99                        CWD
875D  F7 F9                     IDIV  CX
875F  92                        XCHG AX, DX
8760  A3 D6 87                  MOV  [87D6h], AX
8763  E9 36 00                  JMP  879Ch
8766  3D D0 00                  CMP  AX, 00D0h
8769  74 03                     JZ   876Eh
876B  E9 13 00                  JMP  8781h
876E  A1 D6 87                  MOV  AX, [87D6h]
8771  05 07 00                  ADD  AX, 0007h
8774  B9 08 00                  MOV  CX, 0008h
8777  99                        CWD
8778  F7 F9                     IDIV  CX
877A  92                        XCHG AX, DX
877B  A3 D6 87                  MOV  [87D6h], AX
877E  E9 1B 00                  JMP  879Ch
8781  3D 0D 00                  CMP  AX, 000Dh
8784  74 03                     JZ   8789h
8786  E9 03 00                  JMP  878Ch
8789  E9 10 00                  JMP  879Ch
878C  E8 11 7D                  CALL 04A0h
878F  B8 07 00                  MOV  AX, 0007h
8792  50                        PUSH AX
8793  B8 00 00                  MOV  AX, 0000h
8796  E8 4C 80                  CALL 07E5h
8799  E8 CE 67                  CALL EF6Ah
879C  A1 D4 87                  MOV  AX, [87D4h]
879F  E8 61 5B                  CALL E303h
87A2  A1 D6 87                  MOV  AX, [87D6h]
87A5  E8 6F 5B                  CALL E317h
87A8  B8 07 00                  MOV  AX, 0007h
87AB  50                        PUSH AX
87AC  B8 0D 00                  MOV  AX, 000Dh
87AF  E8 40 65                  CALL ECF2h
87B2  E8 EB 7C                  CALL 04A0h
87B5  E8 ED 80                  CALL 08A5h
87B8  1A 4E 6F                  SBB  CL, [BP+6Fh]
87D3  E8 94 67                  CALL EF6Ah
87D6  2E                        CS:
87D7  A1 8D 2E                  MOV  AX, [2E8Dh]
87DA  E8 26 5B                  CALL E303h
87DD  2E                        CS:
87DE  A1 8F 2E                  MOV  AX, [2E8Fh]
87E1  E8 33 5B                  CALL E317h
87E4  B8 26 00                  MOV  AX, 0026h
87E7  50                        PUSH AX
87E8  B8 0D 00                  MOV  AX, 000Dh
87EB  E8 04 65                  CALL ECF2h
87EE  A1 D4 87                  MOV  AX, [87D4h]
87F1  B9 10 00                  MOV  CX, 0010h
87F4  E8 0A 67                  CALL EF01h
87F7  B9 0D 00                  MOV  CX, 000Dh
87FA  F7 E1                     MUL  CX
87FC  97                        XCHG AX, DI
87FD  E8 A0 7C                  CALL 04A0h
8800  81 C7 44 8F               ADD  DI, 8F44h
8804  1E                        PUSH DS
8805  E8 0C 69                  CALL F114h
8808  B8 00 00                  MOV  AX, 0000h
880B  E8 60 80                  CALL 086Eh
880E  E8 59 67                  CALL EF6Ah
8811  B8 33 00                  MOV  AX, 0033h
8814  50                        PUSH AX
8815  B8 0D 00                  MOV  AX, 000Dh
8818  E8 D7 64                  CALL ECF2h
881B  A1 D6 87                  MOV  AX, [87D6h]
881E  B9 10 00                  MOV  CX, 0010h
8821  E8 DD 66                  CALL EF01h
8824  B9 0D 00                  MOV  CX, 000Dh
8827  F7 E1                     MUL  CX
8829  97                        XCHG AX, DI
882A  E8 73 7C                  CALL 04A0h
882D  81 C7 44 8F               ADD  DI, 8F44h
8831  1E                        PUSH DS
8832  E8 DF 68                  CALL F114h
8835  B8 00 00                  MOV  AX, 0000h
8838  E8 33 80                  CALL 086Eh
883B  E8 2C 67                  CALL EF6Ah
883E  8B 5E FE                  MOV  BX, [BP-02h]
8841  36                        SS:
8842  8B 47 F5                  MOV  AX, [BX-0Bh]
8845  3D 0D 00                  CMP  AX, 000Dh
8848  74 03                     JZ   884Dh
884A  E9 A6 FE                  JMP  86F3h
884D  B8 01 00                  MOV  AX, 0001h
8850  50                        PUSH AX
8851  B8 13 00                  MOV  AX, 0013h
8854  E8 9B 64                  CALL ECF2h
8857  E8 98 59                  CALL E1F2h
885A  B8 01 00                  MOV  AX, 0001h
885D  50                        PUSH AX
885E  B8 14 00                  MOV  AX, 0014h
8861  E8 8E 64                  CALL ECF2h
8864  E8 8B 59                  CALL E1F2h
8867  B8 01 00                  MOV  AX, 0001h
886A  50                        PUSH AX
886B  B8 15 00                  MOV  AX, 0015h
886E  E8 81 64                  CALL ECF2h
8871  E8 7E 59                  CALL E1F2h
8874  B8 01 00                  MOV  AX, 0001h
8877  50                        PUSH AX
8878  B8 16 00                  MOV  AX, 0016h
887B  E8 74 64                  CALL ECF2h
887E  E8 71 59                  CALL E1F2h
8881  E8 2E 97                  CALL 1FB2h
8884  E9 00 00                  JMP  8887h
8887  8B E5                     MOV  SP, BP
8889  5D                        POP  BP
888A  C3                        RET
888B  55                        PUSH BP
888C  8B C4                     MOV  AX, SP
888E  FF 76 FE                  PUSH  [BP-02h]
8891  8B E8                     MOV  BP, AX
8893  55                        PUSH BP
8894  E9 00 00                  JMP  8897h
8897  4C                        DEC  SP
8898  E8 D3 58                  CALL E16Eh
889B  B8 07 00                  MOV  AX, 0007h
889E  50                        PUSH AX
889F  B8 01 00                  MOV  AX, 0001h
88A2  E8 4D 64                  CALL ECF2h
88A5  E8 F8 7B                  CALL 04A0h
88A8  E8 FA 7F                  CALL 08A5h
88AB  16                        PUSH SS
88AC  4B 65 79 20 57 6F 72 64...  db  "Key Words to Search on"
88C2  E8 A5 66                  CALL EF6Ah
88C5  B8 26 00                  MOV  AX, 0026h
88C8  50                        PUSH AX
88C9  B8 01 00                  MOV  AX, 0001h
88CC  E8 23 64                  CALL ECF2h
88CF  E8 CE 7B                  CALL 04A0h
88D2  E8 D0 7F                  CALL 08A5h
88D5  09 46 6F                  OR   [BP+6Fh], AX
88DF  E8 88 66                  CALL EF6Ah
88E2  B8 33 00                  MOV  AX, 0033h
88E5  50                        PUSH AX
88E6  B8 01 00                  MOV  AX, 0001h
88E9  E8 06 64                  CALL ECF2h
88EC  E8 B1 7B                  CALL 04A0h
88EF  E8 B3 7F                  CALL 08A5h
88F2  09 42 61                  OR   [BP+SI+61h], AX
88FC  E8 6B 66                  CALL EF6Ah
88FF  B8 3F 00                  MOV  AX, 003Fh
8902  50                        PUSH AX
8903  B8 01 00                  MOV  AX, 0001h
8906  E8 E9 63                  CALL ECF2h
8909  E8 94 7B                  CALL 04A0h
890C  E8 96 7F                  CALL 08A5h
890F  0F                        ???
8910  53 70 65 63 69 61 6C 20...  db  "Special Effects"
891F  E8 48 66                  CALL EF6Ah
8922  B8 01 00                  MOV  AX, 0001h
8925  50                        PUSH AX
8926  B8 10 00                  MOV  AX, 0010h
8929  59                        POP  CX
892A  91                        XCHG AX, CX
892B  2B C8                     SUB  CX, AX
892D  7D 03                     JGE  8932h
892F  E9 93 01                  JMP  8AC5h
8932  41                        INC  CX
8933  88 46 FB                  MOV  [BP-05h], AL
8936  51                        PUSH CX
8937  E8 B8 58                  CALL E1F2h
893A  B8 01 00                  MOV  AX, 0001h
893D  50                        PUSH AX
893E  8A 46 FB                  MOV  AL, [BP-05h]
8941  32 E4                     XOR  AH, AH
8943  05 02 00                  ADD  AX, 0002h
8946  E8 A9 63                  CALL ECF2h
8949  E8 54 7B                  CALL 04A0h
894C  8A 46 FB                  MOV  AL, [BP-05h]
894F  32 E4                     XOR  AH, AH
8951  50                        PUSH AX
8952  B8 03 00                  MOV  AX, 0003h
8955  E8 A9 7E                  CALL 0801h
8958  E8 4A 7F                  CALL 08A5h
895B  03 2E 20 20               ADD  BP, [2020h]
895F  E8 08 66                  CALL EF6Ah
8962  8A 46 FB                  MOV  AL, [BP-05h]
8965  32 E4                     XOR  AH, AH
8967  05 0A 00                  ADD  AX, 000Ah
896A  48                        DEC  AX
896B  B9 1A 00                  MOV  CX, 001Ah
896E  E8 90 65                  CALL EF01h
8971  B9 4F 00                  MOV  CX, 004Fh
8974  F7 E1                     MUL  CX
8976  97                        XCHG AX, DI
8977  8B 85 85 87               MOV  AX, [DI-787Bh]
897B  E8 85 59                  CALL E303h
897E  8A 46 FB                  MOV  AL, [BP-05h]
8981  32 E4                     XOR  AH, AH
8983  05 0A 00                  ADD  AX, 000Ah
8986  48                        DEC  AX
8987  B9 1A 00                  MOV  CX, 001Ah
898A  E8 74 65                  CALL EF01h
898D  B9 4F 00                  MOV  CX, 004Fh
8990  F7 E1                     MUL  CX
8992  97                        XCHG AX, DI
8993  8B 85 87 87               MOV  AX, [DI-7879h]
8997  E8 7D 59                  CALL E317h
899A  B8 07 00                  MOV  AX, 0007h
899D  50                        PUSH AX
899E  8A 46 FB                  MOV  AL, [BP-05h]
89A1  32 E4                     XOR  AH, AH
89A3  05 02 00                  ADD  AX, 0002h
89A6  E8 49 63                  CALL ECF2h
89A9  8A 46 FB                  MOV  AL, [BP-05h]
89AC  32 E4                     XOR  AH, AH
89AE  05 0A 00                  ADD  AX, 000Ah
89B1  48                        DEC  AX
89B2  B9 1A 00                  MOV  CX, 001Ah
89B5  E8 49 65                  CALL EF01h
89B8  B9 4F 00                  MOV  CX, 004Fh
89BB  F7 E1                     MUL  CX
89BD  97                        XCHG AX, DI
89BE  E8 DF 7A                  CALL 04A0h
89C1  81 C7 3C 87               ADD  DI, 873Ch
89C5  1E                        PUSH DS
89C6  E8 4B 67                  CALL F114h
89C9  B8 00 00                  MOV  AX, 0000h
89CC  E8 9F 7E                  CALL 086Eh
89CF  E8 98 65                  CALL EF6Ah
89D2  2E                        CS:
89D3  A1 8D 2E                  MOV  AX, [2E8Dh]
89D6  E8 2A 59                  CALL E303h
89D9  2E                        CS:
89DA  A1 8F 2E                  MOV  AX, [2E8Fh]
89DD  E8 37 59                  CALL E317h
89E0  B8 26 00                  MOV  AX, 0026h
89E3  50                        PUSH AX
89E4  8A 46 FB                  MOV  AL, [BP-05h]
89E7  32 E4                     XOR  AH, AH
89E9  05 02 00                  ADD  AX, 0002h
89EC  E8 03 63                  CALL ECF2h
89EF  8A 46 FB                  MOV  AL, [BP-05h]
89F2  32 E4                     XOR  AH, AH
89F4  05 0A 00                  ADD  AX, 000Ah
89F7  48                        DEC  AX
89F8  B9 1A 00                  MOV  CX, 001Ah
89FB  E8 03 65                  CALL EF01h
89FE  B9 4F 00                  MOV  CX, 004Fh
8A01  F7 E1                     MUL  CX
8A03  97                        XCHG AX, DI
8A04  8B 85 85 87               MOV  AX, [DI-787Bh]
8A08  B9 10 00                  MOV  CX, 0010h
8A0B  E8 F3 64                  CALL EF01h
8A0E  B9 0D 00                  MOV  CX, 000Dh
8A11  F7 E1                     MUL  CX
8A13  97                        XCHG AX, DI
8A14  E8 89 7A                  CALL 04A0h
8A17  81 C7 44 8F               ADD  DI, 8F44h
8A1B  1E                        PUSH DS
8A1C  E8 F5 66                  CALL F114h
8A1F  B8 00 00                  MOV  AX, 0000h
8A22  E8 49 7E                  CALL 086Eh
8A25  E8 42 65                  CALL EF6Ah
8A28  B8 33 00                  MOV  AX, 0033h
8A2B  50                        PUSH AX
8A2C  8A 46 FB                  MOV  AL, [BP-05h]
8A2F  32 E4                     XOR  AH, AH
8A31  05 02 00                  ADD  AX, 0002h
8A34  E8 BB 62                  CALL ECF2h
8A37  8A 46 FB                  MOV  AL, [BP-05h]
8A3A  32 E4                     XOR  AH, AH
8A3C  05 0A 00                  ADD  AX, 000Ah
8A3F  48                        DEC  AX
8A40  B9 1A 00                  MOV  CX, 001Ah
8A43  E8 BB 64                  CALL EF01h
8A46  B9 4F 00                  MOV  CX, 004Fh
8A49  F7 E1                     MUL  CX
8A4B  97                        XCHG AX, DI
8A4C  8B 85 87 87               MOV  AX, [DI-7879h]
8A50  B9 10 00                  MOV  CX, 0010h
8A53  E8 AB 64                  CALL EF01h
8A56  B9 0D 00                  MOV  CX, 000Dh
8A59  F7 E1                     MUL  CX
8A5B  97                        XCHG AX, DI
8A5C  E8 41 7A                  CALL 04A0h
8A5F  81 C7 44 8F               ADD  DI, 8F44h
8A63  1E                        PUSH DS
8A64  E8 AD 66                  CALL F114h
8A67  B8 00 00                  MOV  AX, 0000h
8A6A  E8 01 7E                  CALL 086Eh
8A6D  E8 FA 64                  CALL EF6Ah
8A70  B8 3F 00                  MOV  AX, 003Fh
8A73  50                        PUSH AX
8A74  8A 46 FB                  MOV  AL, [BP-05h]
8A77  32 E4                     XOR  AH, AH
8A79  05 02 00                  ADD  AX, 0002h
8A7C  E8 73 62                  CALL ECF2h
8A7F  8A 46 FB                  MOV  AL, [BP-05h]
8A82  32 E4                     XOR  AH, AH
8A84  05 0A 00                  ADD  AX, 000Ah
8A87  48                        DEC  AX
8A88  B9 1A 00                  MOV  CX, 001Ah
8A8B  E8 73 64                  CALL EF01h
8A8E  B9 4F 00                  MOV  CX, 004Fh
8A91  F7 E1                     MUL  CX
8A93  97                        XCHG AX, DI
8A94  8B 85 89 87               MOV  AX, [DI-7877h]
8A98  B9 04 00                  MOV  CX, 0004h
8A9B  E8 63 64                  CALL EF01h
8A9E  D1 E0                     SHL  AX, 1
8AA0  8B C8                     MOV  CX, AX
8AA2  D1 E0                     SHL  AX, 1
8AA4  03 C1                     ADD  AX, CX
8AA6  97                        XCHG AX, DI
8AA7  E8 F6 79                  CALL 04A0h
8AAA  81 C7 14 90               ADD  DI, 9014h
8AAE  1E                        PUSH DS
8AAF  E8 62 66                  CALL F114h
8AB2  B8 00 00                  MOV  AX, 0000h
8AB5  E8 B6 7D                  CALL 086Eh
8AB8  E8 AF 64                  CALL EF6Ah
8ABE  06                        PUSH ES
8ABF  FE 46 FB                  INC  [BP-05h]
8AC2  E9 71 FE                  JMP  8936h
8AC5  E9 00 00                  JMP  8AC8h
8AC8  8B E5                     MOV  SP, BP
8ACA  5D                        POP  BP
8ACB  C3                        RET
8ACC  55                        PUSH BP
8ACD  8B C4                     MOV  AX, SP
8ACF  FF 76 FE                  PUSH  [BP-02h]
8AD2  8B E8                     MOV  BP, AX
8AD4  55                        PUSH BP
8AD5  E9 00 00                  JMP  8AD8h
8AD8  B8 01 00                  MOV  AX, 0001h
8ADB  50                        PUSH AX
8ADC  B8 01 00                  MOV  AX, 0001h
8ADF  50                        PUSH AX
8AE0  B8 50 00                  MOV  AX, 0050h
8AE3  50                        PUSH AX
8AE4  B8 18 00                  MOV  AX, 0018h
8AE7  50                        PUSH AX
8AE8  E8 42 66                  CALL F12Dh
8AEB  1C 50                     SBB  AL, 50h
8B08  B1 46                     MOV  CL, 46h
8B0A  E8 78 66                  CALL F185h
8B0D  E8 EF 92                  CALL 1DFFh
8B10  E8 78 FD                  CALL 888Bh
8B13  B8 01 00                  MOV  AX, 0001h
8B16  50                        PUSH AX
8B17  B8 16 00                  MOV  AX, 0016h
8B1A  E8 D5 61                  CALL ECF2h
8B1D  E8 80 79                  CALL 04A0h
8B20  E8 82 7D                  CALL 08A5h
8B5F  E8 08 64                  CALL EF6Ah
8B62  B8 00 00                  MOV  AX, 0000h
8B65  B9 00 00                  MOV  CX, 0000h
8B68  BA FF 00                  MOV  DX, 00FFh
8B6B  E8 9D 63                  CALL EF0Bh
8B6E  8B 5E FE                  MOV  BX, [BP-02h]
8B71  36                        SS:
8B72  88 47 FB                  MOV  [BX-05h], AL
8B75  E8 5B 79                  CALL 04D3h
8B78  8B 5E FE                  MOV  BX, [BP-02h]
8B7B  36                        SS:
8B7C  8D 7F FB                  LEA  DI, [BX-05h]
8B7F  16                        PUSH SS
8B80  E8 38 7B                  CALL 06BBh
8B83  E8 DD 63                  CALL EF63h
8B86  3D 00 00                  CMP  AX, 0000h
8B89  B8 01 00                  MOV  AX, 0001h
8B8C  74 01                     JZ   8B8Fh
8B8E  48                        DEC  AX
8B8F  B9 00 00                  MOV  CX, 0000h
8B92  BA 01 00                  MOV  DX, 0001h
8B95  E8 73 63                  CALL EF0Bh
8B98  A2 8F 59                  MOV  [598Fh], AL
8B9B  A0 8F 59                  MOV  AL, [598Fh]
8B9E  32 E4                     XOR  AH, AH
8BA0  34 01                     XOR  AL, 01h
8BA2  75 03                     JNZ  8BA7h
8BA4  E9 23 00                  JMP  8BCAh
8BA7  E8 F6 78                  CALL 04A0h
8BAA  B8 07 00                  MOV  AX, 0007h
8BAD  50                        PUSH AX
8BAE  B8 00 00                  MOV  AX, 0000h
8BB1  E8 31 7C                  CALL 07E5h
8BB4  E8 B3 63                  CALL EF6Ah
8BB7  B8 00 00                  MOV  AX, 0000h
8BBA  B9 00 00                  MOV  CX, 0000h
8BBD  BA FF 00                  MOV  DX, 00FFh
8BC0  E8 48 63                  CALL EF0Bh
8BC3  8B 5E FE                  MOV  BX, [BP-02h]
8BC6  36                        SS:
8BC7  88 47 FB                  MOV  [BX-05h], AL
8BCA  8B 5E FE                  MOV  BX, [BP-02h]
8BCD  36                        SS:
8BCE  8A 47 FB                  MOV  AL, [BX-05h]
8BD1  32 E4                     XOR  AH, AH
8BD3  50                        PUSH AX
8BD4  E8 6D 68                  CALL F444h
8BD7  B8 01 00                  MOV  AX, 0001h
8BDA  50                        PUSH AX
8BDB  B8 10 00                  MOV  AX, 0010h
8BDE  E8 7C 68                  CALL F45Dh
8BE1  E8 45 69                  CALL F529h
8BE4  75 03                     JNZ  8BE9h
8BE6  E9 13 07                  JMP  92FCh
8BE9  B8 01 00                  MOV  AX, 0001h
8BEC  B9 00 00                  MOV  CX, 0000h
8BEF  BA 01 00                  MOV  DX, 0001h
8BF2  E8 16 63                  CALL EF0Bh
8BF5  8B 5E FE                  MOV  BX, [BP-02h]
8BF8  36                        SS:
8BF9  88 47 FA                  MOV  [BX-06h], AL
8BFC  B8 01 00                  MOV  AX, 0001h
8BFF  50                        PUSH AX
8C00  B8 16 00                  MOV  AX, 0016h
8C03  E8 EC 60                  CALL ECF2h
8C06  E8 E9 55                  CALL E1F2h
8C09  E8 94 78                  CALL 04A0h
8C0C  E8 96 7C                  CALL 08A5h
8C37  E8 30 63                  CALL EF6Ah
8C3A  B8 07 00                  MOV  AX, 0007h
8C3D  50                        PUSH AX
8C3E  8B 5E FE                  MOV  BX, [BP-02h]
8C41  36                        SS:
8C42  8A 47 FB                  MOV  AL, [BX-05h]
8C45  32 E4                     XOR  AH, AH
8C47  05 02 00                  ADD  AX, 0002h
8C4A  E8 A5 60                  CALL ECF2h
8C4D  E8 A2 55                  CALL E1F2h
8C50  8B 5E FE                  MOV  BX, [BP-02h]
8C53  36                        SS:
8C54  8A 47 FB                  MOV  AL, [BX-05h]
8C57  32 E4                     XOR  AH, AH
8C59  05 0A 00                  ADD  AX, 000Ah
8C5C  48                        DEC  AX
8C5D  B9 1A 00                  MOV  CX, 001Ah
8C60  E8 9E 62                  CALL EF01h
8C63  B9 4F 00                  MOV  CX, 004Fh
8C66  F7 E1                     MUL  CX
8C68  97                        XCHG AX, DI
8C69  8B 85 85 87               MOV  AX, [DI-787Bh]
8C6D  E8 93 56                  CALL E303h
8C70  8B 5E FE                  MOV  BX, [BP-02h]
8C73  36                        SS:
8C74  8A 47 FB                  MOV  AL, [BX-05h]
8C77  32 E4                     XOR  AH, AH
8C79  05 0A 00                  ADD  AX, 000Ah
8C7C  48                        DEC  AX
8C7D  B9 1A 00                  MOV  CX, 001Ah
8C80  E8 7E 62                  CALL EF01h
8C83  B9 4F 00                  MOV  CX, 004Fh
8C86  F7 E1                     MUL  CX
8C88  97                        XCHG AX, DI
8C89  8B 85 87 87               MOV  AX, [DI-7879h]
8C8D  E8 87 56                  CALL E317h
8C90  8B 5E FE                  MOV  BX, [BP-02h]
8C93  36                        SS:
8C94  8A 47 FB                  MOV  AL, [BX-05h]
8C97  32 E4                     XOR  AH, AH
8C99  05 0A 00                  ADD  AX, 000Ah
8C9C  48                        DEC  AX
8C9D  B9 1A 00                  MOV  CX, 001Ah
8CA0  E8 5E 62                  CALL EF01h
8CA3  B9 4F 00                  MOV  CX, 004Fh
8CA6  F7 E1                     MUL  CX
8CA8  97                        XCHG AX, DI
8CA9  E8 F4 77                  CALL 04A0h
8CAC  81 C7 3C 87               ADD  DI, 873Ch
8CB0  1E                        PUSH DS
8CB1  E8 60 64                  CALL F114h
8CB4  B8 00 00                  MOV  AX, 0000h
8CB7  E8 B4 7B                  CALL 086Eh
8CBA  E8 AD 62                  CALL EF6Ah
8CBD  B8 07 00                  MOV  AX, 0007h
8CC0  50                        PUSH AX
8CC1  8B 5E FE                  MOV  BX, [BP-02h]
8CC4  36                        SS:
8CC5  8A 47 FB                  MOV  AL, [BX-05h]
8CC8  32 E4                     XOR  AH, AH
8CCA  05 02 00                  ADD  AX, 0002h
8CCD  E8 22 60                  CALL ECF2h
8CD0  8B 5E FE                  MOV  BX, [BP-02h]
8CD3  36                        SS:
8CD4  8A 47 FB                  MOV  AL, [BX-05h]
8CD7  32 E4                     XOR  AH, AH
8CD9  05 0A 00                  ADD  AX, 000Ah
8CDC  48                        DEC  AX
8CDD  B9 1A 00                  MOV  CX, 001Ah
8CE0  E8 1E 62                  CALL EF01h
8CE3  B9 4F 00                  MOV  CX, 004Fh
8CE6  F7 E1                     MUL  CX
8CE8  97                        XCHG AX, DI
8CE9  81 C7 3C 87               ADD  DI, 873Ch
8CED  1E                        PUSH DS
8CEE  57                        PUSH DI
8CEF  E8 18 84                  CALL 110Ah
8CF2  2E                        CS:
8CF3  A1 8D 2E                  MOV  AX, [2E8Dh]
8CF6  E8 0A 56                  CALL E303h
8CF9  2E                        CS:
8CFA  A1 8F 2E                  MOV  AX, [2E8Fh]
8CFD  E8 17 56                  CALL E317h
8D00  B8 26 00                  MOV  AX, 0026h
8D03  50                        PUSH AX
8D04  8B 5E FE                  MOV  BX, [BP-02h]
8D07  36                        SS:
8D08  8A 47 FB                  MOV  AL, [BX-05h]
8D0B  32 E4                     XOR  AH, AH
8D0D  05 02 00                  ADD  AX, 0002h
8D10  E8 DF 5F                  CALL ECF2h
8D13  8B 5E FE                  MOV  BX, [BP-02h]
8D16  36                        SS:
8D17  8A 47 FB                  MOV  AL, [BX-05h]
8D1A  32 E4                     XOR  AH, AH
8D1C  05 0A 00                  ADD  AX, 000Ah
8D1F  48                        DEC  AX
8D20  B9 1A 00                  MOV  CX, 001Ah
8D23  E8 DB 61                  CALL EF01h
8D26  B9 4F 00                  MOV  CX, 004Fh
8D29  F7 E1                     MUL  CX
8D2B  97                        XCHG AX, DI
8D2C  8B 85 85 87               MOV  AX, [DI-787Bh]
8D30  B9 10 00                  MOV  CX, 0010h
8D33  E8 CB 61                  CALL EF01h
8D36  B9 0D 00                  MOV  CX, 000Dh
8D39  F7 E1                     MUL  CX
8D3B  97                        XCHG AX, DI
8D3C  E8 61 77                  CALL 04A0h
8D3F  81 C7 44 8F               ADD  DI, 8F44h
8D43  1E                        PUSH DS
8D44  E8 CD 63                  CALL F114h
8D47  B8 00 00                  MOV  AX, 0000h
8D4A  E8 21 7B                  CALL 086Eh
8D4D  E8 1A 62                  CALL EF6Ah
8D50  B8 33 00                  MOV  AX, 0033h
8D53  50                        PUSH AX
8D54  8B 5E FE                  MOV  BX, [BP-02h]
8D57  36                        SS:
8D58  8A 47 FB                  MOV  AL, [BX-05h]
8D5B  32 E4                     XOR  AH, AH
8D5D  05 02 00                  ADD  AX, 0002h
8D60  E8 8F 5F                  CALL ECF2h
8D63  8B 5E FE                  MOV  BX, [BP-02h]
8D66  36                        SS:
8D67  8A 47 FB                  MOV  AL, [BX-05h]
8D6A  32 E4                     XOR  AH, AH
8D6C  05 0A 00                  ADD  AX, 000Ah
8D6F  48                        DEC  AX
8D70  B9 1A 00                  MOV  CX, 001Ah
8D73  E8 8B 61                  CALL EF01h
8D76  B9 4F 00                  MOV  CX, 004Fh
8D79  F7 E1                     MUL  CX
8D7B  97                        XCHG AX, DI
8D7C  8B 85 87 87               MOV  AX, [DI-7879h]
8D80  B9 10 00                  MOV  CX, 0010h
8D83  E8 7B 61                  CALL EF01h
8D86  B9 0D 00                  MOV  CX, 000Dh
8D89  F7 E1                     MUL  CX
8D8B  97                        XCHG AX, DI
8D8C  E8 11 77                  CALL 04A0h
8D8F  81 C7 44 8F               ADD  DI, 8F44h
8D93  1E                        PUSH DS
8D94  E8 7D 63                  CALL F114h
8D97  B8 00 00                  MOV  AX, 0000h
8D9A  E8 D1 7A                  CALL 086Eh
8D9D  E8 CA 61                  CALL EF6Ah
8DA0  B8 3F 00                  MOV  AX, 003Fh
8DA3  50                        PUSH AX
8DA4  8B 5E FE                  MOV  BX, [BP-02h]
8DA7  36                        SS:
8DA8  8A 47 FB                  MOV  AL, [BX-05h]
8DAB  32 E4                     XOR  AH, AH
8DAD  05 02 00                  ADD  AX, 0002h
8DB0  E8 3F 5F                  CALL ECF2h
8DB3  8B 5E FE                  MOV  BX, [BP-02h]
8DB6  36                        SS:
8DB7  8A 47 FB                  MOV  AL, [BX-05h]
8DBA  32 E4                     XOR  AH, AH
8DBC  05 0A 00                  ADD  AX, 000Ah
8DBF  48                        DEC  AX
8DC0  B9 1A 00                  MOV  CX, 001Ah
8DC3  E8 3B 61                  CALL EF01h
8DC6  B9 4F 00                  MOV  CX, 004Fh
8DC9  F7 E1                     MUL  CX
8DCB  97                        XCHG AX, DI
8DCC  8B 85 89 87               MOV  AX, [DI-7877h]
8DD0  B9 04 00                  MOV  CX, 0004h
8DD3  E8 2B 61                  CALL EF01h
8DD6  D1 E0                     SHL  AX, 1
8DD8  8B C8                     MOV  CX, AX
8DDA  D1 E0                     SHL  AX, 1
8DDC  03 C1                     ADD  AX, CX
8DDE  97                        XCHG AX, DI
8DDF  E8 BE 76                  CALL 04A0h
8DE2  81 C7 14 90               ADD  DI, 9014h
8DE6  1E                        PUSH DS
8DE7  E8 2A 63                  CALL F114h
8DEA  B8 00 00                  MOV  AX, 0000h
8DED  E8 7E 7A                  CALL 086Eh
8DF0  E8 77 61                  CALL EF6Ah
8DF3  B8 01 00                  MOV  AX, 0001h
8DF6  50                        PUSH AX
8DF7  B8 13 00                  MOV  AX, 0013h
8DFA  E8 F5 5E                  CALL ECF2h
8DFD  E8 A0 76                  CALL 04A0h
8E00  E8 A2 7A                  CALL 08A5h
8E36  E8 31 61                  CALL EF6Ah
8E39  B8 01 00                  MOV  AX, 0001h
8E3C  50                        PUSH AX
8E3D  B8 14 00                  MOV  AX, 0014h
8E40  E8 AF 5E                  CALL ECF2h
8E43  E8 5A 76                  CALL 04A0h
8E46  E8 5C 7A                  CALL 08A5h
8E87  E8 E0 60                  CALL EF6Ah
8E8A  B8 01 00                  MOV  AX, 0001h
8E8D  50                        PUSH AX
8E8E  B8 15 00                  MOV  AX, 0015h
8E91  E8 5E 5E                  CALL ECF2h
8E94  E8 09 76                  CALL 04A0h
8E97  E8 0B 7A                  CALL 08A5h
8ED5  E8 92 60                  CALL EF6Ah
8ED8  B8 01 00                  MOV  AX, 0001h
8EDB  50                        PUSH AX
8EDC  B8 16 00                  MOV  AX, 0016h
8EDF  E8 10 5E                  CALL ECF2h
8EE2  E8 BB 75                  CALL 04A0h
8EE5  E8 BD 79                  CALL 08A5h
8F12  E8 55 60                  CALL EF6Ah
8F17  E8 F4 ED                  CALL 7D0Eh
8F1A  8B 5E FE                  MOV  BX, [BP-02h]
8F1D  36                        SS:
8F1E  89 47 F5                  MOV  [BX-0Bh], AX
8F21  8B 5E FE                  MOV  BX, [BP-02h]
8F24  36                        SS:
8F25  8B 47 F5                  MOV  AX, [BX-0Bh]
8F28  3D 00 00                  CMP  AX, 0000h
8F2B  75 03                     JNZ  8F30h
8F2D  E9 E5 FF                  JMP  8F15h
8F30  8B 5E FE                  MOV  BX, [BP-02h]
8F33  36                        SS:
8F34  8B 47 F5                  MOV  AX, [BX-0Bh]
8F37  3D C7 00                  CMP  AX, 00C7h
8F3A  74 03                     JZ   8F3Fh
8F3C  E9 49 00                  JMP  8F88h
8F3F  8B 5E FE                  MOV  BX, [BP-02h]
8F42  36                        SS:
8F43  8A 47 FB                  MOV  AL, [BX-05h]
8F46  32 E4                     XOR  AH, AH
8F48  05 0A 00                  ADD  AX, 000Ah
8F4B  48                        DEC  AX
8F4C  B9 1A 00                  MOV  CX, 001Ah
8F4F  E8 AF 5F                  CALL EF01h
8F52  B9 4F 00                  MOV  CX, 004Fh
8F55  F7 E1                     MUL  CX
8F57  97                        XCHG AX, DI
8F58  57                        PUSH DI
8F59  8B 5E FE                  MOV  BX, [BP-02h]
8F5C  36                        SS:
8F5D  8A 47 FB                  MOV  AL, [BX-05h]
8F60  32 E4                     XOR  AH, AH
8F62  05 0A 00                  ADD  AX, 000Ah
8F65  48                        DEC  AX
8F66  B9 1A 00                  MOV  CX, 001Ah
8F69  E8 95 5F                  CALL EF01h
8F6C  B9 4F 00                  MOV  CX, 004Fh
8F6F  F7 E1                     MUL  CX
8F71  97                        XCHG AX, DI
8F72  8B 85 85 87               MOV  AX, [DI-787Bh]
8F76  05 01 00                  ADD  AX, 0001h
8F79  B9 10 00                  MOV  CX, 0010h
8F7C  99                        CWD
8F7D  F7 F9                     IDIV  CX
8F7F  92                        XCHG AX, DX
8F80  5F                        POP  DI
8F81  89 85 85 87               MOV  [DI-787Bh], AX
8F85  E9 B0 01                  JMP  9138h
8F88  3D CF 00                  CMP  AX, 00CFh
8F8B  74 03                     JZ   8F90h
8F8D  E9 49 00                  JMP  8FD9h
8F90  8B 5E FE                  MOV  BX, [BP-02h]
8F93  36                        SS:
8F94  8A 47 FB                  MOV  AL, [BX-05h]
8F97  32 E4                     XOR  AH, AH
8F99  05 0A 00                  ADD  AX, 000Ah
8F9C  48                        DEC  AX
8F9D  B9 1A 00                  MOV  CX, 001Ah
8FA0  E8 5E 5F                  CALL EF01h
8FA3  B9 4F 00                  MOV  CX, 004Fh
8FA6  F7 E1                     MUL  CX
8FA8  97                        XCHG AX, DI
8FA9  57                        PUSH DI
8FAA  8B 5E FE                  MOV  BX, [BP-02h]
8FAD  36                        SS:
8FAE  8A 47 FB                  MOV  AL, [BX-05h]
8FB1  32 E4                     XOR  AH, AH
8FB3  05 0A 00                  ADD  AX, 000Ah
8FB6  48                        DEC  AX
8FB7  B9 1A 00                  MOV  CX, 001Ah
8FBA  E8 44 5F                  CALL EF01h
8FBD  B9 4F 00                  MOV  CX, 004Fh
8FC0  F7 E1                     MUL  CX
8FC2  97                        XCHG AX, DI
8FC3  8B 85 85 87               MOV  AX, [DI-787Bh]
8FC7  05 0F 00                  ADD  AX, 000Fh
8FCA  B9 10 00                  MOV  CX, 0010h
8FCD  99                        CWD
8FCE  F7 F9                     IDIV  CX
8FD0  92                        XCHG AX, DX
8FD1  5F                        POP  DI
8FD2  89 85 85 87               MOV  [DI-787Bh], AX
8FD6  E9 5F 01                  JMP  9138h
8FD9  3D C8 00                  CMP  AX, 00C8h
8FDC  74 03                     JZ   8FE1h
8FDE  E9 49 00                  JMP  902Ah
8FE1  8B 5E FE                  MOV  BX, [BP-02h]
8FE4  36                        SS:
8FE5  8A 47 FB                  MOV  AL, [BX-05h]
8FE8  32 E4                     XOR  AH, AH
8FEA  05 0A 00                  ADD  AX, 000Ah
8FED  48                        DEC  AX
8FEE  B9 1A 00                  MOV  CX, 001Ah
8FF1  E8 0D 5F                  CALL EF01h
8FF4  B9 4F 00                  MOV  CX, 004Fh
8FF7  F7 E1                     MUL  CX
8FF9  97                        XCHG AX, DI
8FFA  57                        PUSH DI
8FFB  8B 5E FE                  MOV  BX, [BP-02h]
8FFE  36                        SS:
8FFF  8A 47 FB                  MOV  AL, [BX-05h]
9002  32 E4                     XOR  AH, AH
9004  05 0A 00                  ADD  AX, 000Ah
9007  48                        DEC  AX
9008  B9 1A 00                  MOV  CX, 001Ah
900B  E8 F3 5E                  CALL EF01h
900E  B9 4F 00                  MOV  CX, 004Fh
9011  F7 E1                     MUL  CX
9013  97                        XCHG AX, DI
9014  8B 85 87 87               MOV  AX, [DI-7879h]
9018  05 01 00                  ADD  AX, 0001h
901B  B9 08 00                  MOV  CX, 0008h
901E  99                        CWD
901F  F7 F9                     IDIV  CX
9021  92                        XCHG AX, DX
9022  5F                        POP  DI
9023  89 85 87 87               MOV  [DI-7879h], AX
9027  E9 0E 01                  JMP  9138h
902A  3D D0 00                  CMP  AX, 00D0h
902D  74 03                     JZ   9032h
902F  E9 49 00                  JMP  907Bh
9032  8B 5E FE                  MOV  BX, [BP-02h]
9035  36                        SS:
9036  8A 47 FB                  MOV  AL, [BX-05h]
9039  32 E4                     XOR  AH, AH
903B  05 0A 00                  ADD  AX, 000Ah
903E  48                        DEC  AX
903F  B9 1A 00                  MOV  CX, 001Ah
9042  E8 BC 5E                  CALL EF01h
9045  B9 4F 00                  MOV  CX, 004Fh
9048  F7 E1                     MUL  CX
904A  97                        XCHG AX, DI
904B  57                        PUSH DI
904C  8B 5E FE                  MOV  BX, [BP-02h]
904F  36                        SS:
9050  8A 47 FB                  MOV  AL, [BX-05h]
9053  32 E4                     XOR  AH, AH
9055  05 0A 00                  ADD  AX, 000Ah
9058  48                        DEC  AX
9059  B9 1A 00                  MOV  CX, 001Ah
905C  E8 A2 5E                  CALL EF01h
905F  B9 4F 00                  MOV  CX, 004Fh
9062  F7 E1                     MUL  CX
9064  97                        XCHG AX, DI
9065  8B 85 87 87               MOV  AX, [DI-7879h]
9069  05 07 00                  ADD  AX, 0007h
906C  B9 08 00                  MOV  CX, 0008h
906F  99                        CWD
9070  F7 F9                     IDIV  CX
9072  92                        XCHG AX, DX
9073  5F                        POP  DI
9074  89 85 87 87               MOV  [DI-7879h], AX
9078  E9 BD 00                  JMP  9138h
907B  3D C9 00                  CMP  AX, 00C9h
907E  74 03                     JZ   9083h
9080  E9 49 00                  JMP  90CCh
9083  8B 5E FE                  MOV  BX, [BP-02h]
9086  36                        SS:
9087  8A 47 FB                  MOV  AL, [BX-05h]
908A  32 E4                     XOR  AH, AH
908C  05 0A 00                  ADD  AX, 000Ah
908F  48                        DEC  AX
9090  B9 1A 00                  MOV  CX, 001Ah
9093  E8 6B 5E                  CALL EF01h
9096  B9 4F 00                  MOV  CX, 004Fh
9099  F7 E1                     MUL  CX
909B  97                        XCHG AX, DI
909C  57                        PUSH DI
909D  8B 5E FE                  MOV  BX, [BP-02h]
90A0  36                        SS:
90A1  8A 47 FB                  MOV  AL, [BX-05h]
90A4  32 E4                     XOR  AH, AH
90A6  05 0A 00                  ADD  AX, 000Ah
90A9  48                        DEC  AX
90AA  B9 1A 00                  MOV  CX, 001Ah
90AD  E8 51 5E                  CALL EF01h
90B0  B9 4F 00                  MOV  CX, 004Fh
90B3  F7 E1                     MUL  CX
90B5  97                        XCHG AX, DI
90B6  8B 85 89 87               MOV  AX, [DI-7877h]
90BA  05 01 00                  ADD  AX, 0001h
90BD  B9 04 00                  MOV  CX, 0004h
90C0  99                        CWD
90C1  F7 F9                     IDIV  CX
90C3  92                        XCHG AX, DX
90C4  5F                        POP  DI
90C5  89 85 89 87               MOV  [DI-7877h], AX
90C9  E9 6C 00                  JMP  9138h
90CC  3D D1 00                  CMP  AX, 00D1h
90CF  74 03                     JZ   90D4h
90D1  E9 49 00                  JMP  911Dh
90D4  8B 5E FE                  MOV  BX, [BP-02h]
90D7  36                        SS:
90D8  8A 47 FB                  MOV  AL, [BX-05h]
90DB  32 E4                     XOR  AH, AH
90DD  05 0A 00                  ADD  AX, 000Ah
90E0  48                        DEC  AX
90E1  B9 1A 00                  MOV  CX, 001Ah
90E4  E8 1A 5E                  CALL EF01h
90E7  B9 4F 00                  MOV  CX, 004Fh
90EA  F7 E1                     MUL  CX
90EC  97                        XCHG AX, DI
90ED  57                        PUSH DI
90EE  8B 5E FE                  MOV  BX, [BP-02h]
90F1  36                        SS:
90F2  8A 47 FB                  MOV  AL, [BX-05h]
90F5  32 E4                     XOR  AH, AH
90F7  05 0A 00                  ADD  AX, 000Ah
90FA  48                        DEC  AX
90FB  B9 1A 00                  MOV  CX, 001Ah
90FE  E8 00 5E                  CALL EF01h
9101  B9 4F 00                  MOV  CX, 004Fh
9104  F7 E1                     MUL  CX
9106  97                        XCHG AX, DI
9107  8B 85 89 87               MOV  AX, [DI-7877h]
910B  05 03 00                  ADD  AX, 0003h
910E  B9 04 00                  MOV  CX, 0004h
9111  99                        CWD
9112  F7 F9                     IDIV  CX
9114  92                        XCHG AX, DX
9115  5F                        POP  DI
9116  89 85 89 87               MOV  [DI-7877h], AX
911A  E9 1B 00                  JMP  9138h
911D  3D 0D 00                  CMP  AX, 000Dh
9120  74 03                     JZ   9125h
9122  E9 03 00                  JMP  9128h
9125  E9 10 00                  JMP  9138h
9128  E8 75 73                  CALL 04A0h
912B  B8 07 00                  MOV  AX, 0007h
912E  50                        PUSH AX
912F  B8 00 00                  MOV  AX, 0000h
9132  E8 B0 76                  CALL 07E5h
9135  E8 32 5E                  CALL EF6Ah
9138  8B 5E FE                  MOV  BX, [BP-02h]
913B  36                        SS:
913C  8A 47 FB                  MOV  AL, [BX-05h]
913F  32 E4                     XOR  AH, AH
9141  05 0A 00                  ADD  AX, 000Ah
9144  48                        DEC  AX
9145  B9 1A 00                  MOV  CX, 001Ah
9148  E8 B6 5D                  CALL EF01h
914B  B9 4F 00                  MOV  CX, 004Fh
914E  F7 E1                     MUL  CX
9150  97                        XCHG AX, DI
9151  8B 85 85 87               MOV  AX, [DI-787Bh]
9155  E8 AB 51                  CALL E303h
9158  8B 5E FE                  MOV  BX, [BP-02h]
915B  36                        SS:
915C  8A 47 FB                  MOV  AL, [BX-05h]
915F  32 E4                     XOR  AH, AH
9161  05 0A 00                  ADD  AX, 000Ah
9164  48                        DEC  AX
9165  B9 1A 00                  MOV  CX, 001Ah
9168  E8 96 5D                  CALL EF01h
916B  B9 4F 00                  MOV  CX, 004Fh
916E  F7 E1                     MUL  CX
9170  97                        XCHG AX, DI
9171  8B 85 87 87               MOV  AX, [DI-7879h]
9175  E8 9F 51                  CALL E317h
9178  B8 07 00                  MOV  AX, 0007h
917B  50                        PUSH AX
917C  8B 5E FE                  MOV  BX, [BP-02h]
917F  36                        SS:
9180  8A 47 FB                  MOV  AL, [BX-05h]
9183  32 E4                     XOR  AH, AH
9185  05 02 00                  ADD  AX, 0002h
9188  E8 67 5B                  CALL ECF2h
918B  8B 5E FE                  MOV  BX, [BP-02h]
918E  36                        SS:
918F  8A 47 FB                  MOV  AL, [BX-05h]
9192  32 E4                     XOR  AH, AH
9194  05 0A 00                  ADD  AX, 000Ah
9197  48                        DEC  AX
9198  B9 1A 00                  MOV  CX, 001Ah
919B  E8 63 5D                  CALL EF01h
919E  B9 4F 00                  MOV  CX, 004Fh
91A1  F7 E1                     MUL  CX
91A3  97                        XCHG AX, DI
91A4  E8 F9 72                  CALL 04A0h
91A7  81 C7 3C 87               ADD  DI, 873Ch
91AB  1E                        PUSH DS
91AC  E8 65 5F                  CALL F114h
91AF  B8 00 00                  MOV  AX, 0000h
91B2  E8 B9 76                  CALL 086Eh
91B5  E8 B2 5D                  CALL EF6Ah
91B8  2E                        CS:
91B9  A1 8D 2E                  MOV  AX, [2E8Dh]
91BC  E8 44 51                  CALL E303h
91BF  2E                        CS:
91C0  A1 8F 2E                  MOV  AX, [2E8Fh]
91C3  E8 51 51                  CALL E317h
91C6  B8 26 00                  MOV  AX, 0026h
91C9  50                        PUSH AX
91CA  8B 5E FE                  MOV  BX, [BP-02h]
91CD  36                        SS:
91CE  8A 47 FB                  MOV  AL, [BX-05h]
91D1  32 E4                     XOR  AH, AH
91D3  05 02 00                  ADD  AX, 0002h
91D6  E8 19 5B                  CALL ECF2h
91D9  8B 5E FE                  MOV  BX, [BP-02h]
91DC  36                        SS:
91DD  8A 47 FB                  MOV  AL, [BX-05h]
91E0  32 E4                     XOR  AH, AH
91E2  05 0A 00                  ADD  AX, 000Ah
91E5  48                        DEC  AX
91E6  B9 1A 00                  MOV  CX, 001Ah
91E9  E8 15 5D                  CALL EF01h
91EC  B9 4F 00                  MOV  CX, 004Fh
91EF  F7 E1                     MUL  CX
91F1  97                        XCHG AX, DI
91F2  8B 85 85 87               MOV  AX, [DI-787Bh]
91F6  B9 10 00                  MOV  CX, 0010h
91F9  E8 05 5D                  CALL EF01h
91FC  B9 0D 00                  MOV  CX, 000Dh
91FF  F7 E1                     MUL  CX
9201  97                        XCHG AX, DI
9202  E8 9B 72                  CALL 04A0h
9205  81 C7 44 8F               ADD  DI, 8F44h
9209  1E                        PUSH DS
920A  E8 07 5F                  CALL F114h
920D  B8 00 00                  MOV  AX, 0000h
9210  E8 5B 76                  CALL 086Eh
9213  E8 54 5D                  CALL EF6Ah
9216  B8 33 00                  MOV  AX, 0033h
9219  50                        PUSH AX
921A  8B 5E FE                  MOV  BX, [BP-02h]
921D  36                        SS:
921E  8A 47 FB                  MOV  AL, [BX-05h]
9221  32 E4                     XOR  AH, AH
9223  05 02 00                  ADD  AX, 0002h
9226  E8 C9 5A                  CALL ECF2h
9229  8B 5E FE                  MOV  BX, [BP-02h]
922C  36                        SS:
922D  8A 47 FB                  MOV  AL, [BX-05h]
9230  32 E4                     XOR  AH, AH
9232  05 0A 00                  ADD  AX, 000Ah
9235  48                        DEC  AX
9236  B9 1A 00                  MOV  CX, 001Ah
9239  E8 C5 5C                  CALL EF01h
923C  B9 4F 00                  MOV  CX, 004Fh
923F  F7 E1                     MUL  CX
9241  97                        XCHG AX, DI
9242  8B 85 87 87               MOV  AX, [DI-7879h]
9246  B9 10 00                  MOV  CX, 0010h
9249  E8 B5 5C                  CALL EF01h
924C  B9 0D 00                  MOV  CX, 000Dh
924F  F7 E1                     MUL  CX
9251  97                        XCHG AX, DI
9252  E8 4B 72                  CALL 04A0h
9255  81 C7 44 8F               ADD  DI, 8F44h
9259  1E                        PUSH DS
925A  E8 B7 5E                  CALL F114h
925D  B8 00 00                  MOV  AX, 0000h
9260  E8 0B 76                  CALL 086Eh
9263  E8 04 5D                  CALL EF6Ah
9266  B8 3F 00                  MOV  AX, 003Fh
9269  50                        PUSH AX
926A  8B 5E FE                  MOV  BX, [BP-02h]
926D  36                        SS:
926E  8A 47 FB                  MOV  AL, [BX-05h]
9271  32 E4                     XOR  AH, AH
9273  05 02 00                  ADD  AX, 0002h
9276  E8 79 5A                  CALL ECF2h
9279  8B 5E FE                  MOV  BX, [BP-02h]
927C  36                        SS:
927D  8A 47 FB                  MOV  AL, [BX-05h]
9280  32 E4                     XOR  AH, AH
9282  05 0A 00                  ADD  AX, 000Ah
9285  48                        DEC  AX
9286  B9 1A 00                  MOV  CX, 001Ah
9289  E8 75 5C                  CALL EF01h
928C  B9 4F 00                  MOV  CX, 004Fh
928F  F7 E1                     MUL  CX
9291  97                        XCHG AX, DI
9292  8B 85 89 87               MOV  AX, [DI-7877h]
9296  B9 04 00                  MOV  CX, 0004h
9299  E8 65 5C                  CALL EF01h
929C  D1 E0                     SHL  AX, 1
929E  8B C8                     MOV  CX, AX
92A0  D1 E0                     SHL  AX, 1
92A2  03 C1                     ADD  AX, CX
92A4  97                        XCHG AX, DI
92A5  E8 F8 71                  CALL 04A0h
92A8  81 C7 14 90               ADD  DI, 9014h
92AC  1E                        PUSH DS
92AD  E8 64 5E                  CALL F114h
92B0  B8 00 00                  MOV  AX, 0000h
92B3  E8 B8 75                  CALL 086Eh
92B6  E8 B1 5C                  CALL EF6Ah
92B9  8B 5E FE                  MOV  BX, [BP-02h]
92BC  36                        SS:
92BD  8B 47 F5                  MOV  AX, [BX-0Bh]
92C0  3D 0D 00                  CMP  AX, 000Dh
92C3  74 03                     JZ   92C8h
92C5  E9 4D FC                  JMP  8F15h
92C8  B8 01 00                  MOV  AX, 0001h
92CB  50                        PUSH AX
92CC  B8 13 00                  MOV  AX, 0013h
92CF  E8 20 5A                  CALL ECF2h
92D2  E8 1D 4F                  CALL E1F2h
92D5  B8 01 00                  MOV  AX, 0001h
92D8  50                        PUSH AX
92D9  B8 14 00                  MOV  AX, 0014h
92DC  E8 13 5A                  CALL ECF2h
92DF  E8 10 4F                  CALL E1F2h
92E2  B8 01 00                  MOV  AX, 0001h
92E5  50                        PUSH AX
92E6  B8 15 00                  MOV  AX, 0015h
92E9  E8 06 5A                  CALL ECF2h
92EC  E8 03 4F                  CALL E1F2h
92EF  B8 01 00                  MOV  AX, 0001h
92F2  50                        PUSH AX
92F3  B8 16 00                  MOV  AX, 0016h
92F6  E8 F9 59                  CALL ECF2h
92F9  E8 F6 4E                  CALL E1F2h
92FC  8B 5E FE                  MOV  BX, [BP-02h]
92FF  36                        SS:
9300  8A 47 FB                  MOV  AL, [BX-05h]
9303  32 E4                     XOR  AH, AH
9305  50                        PUSH AX
9306  E8 3B 61                  CALL F444h
9309  B8 01 00                  MOV  AX, 0001h
930C  50                        PUSH AX
930D  B8 10 00                  MOV  AX, 0010h
9310  E8 4A 61                  CALL F45Dh
9313  E8 13 62                  CALL F529h
9316  34 01                     XOR  AL, 01h
9318  75 03                     JNZ  931Dh
931A  E9 F6 F7                  JMP  8B13h
931D  E8 92 8C                  CALL 1FB2h
9320  E9 00 00                  JMP  9323h
9323  8B E5                     MOV  SP, BP
9325  5D                        POP  BP
9326  C3                        RET
9327  55                        PUSH BP
9328  8B C4                     MOV  AX, SP
932A  FF 76 FE                  PUSH  [BP-02h]
932D  8B E8                     MOV  BP, AX
932F  55                        PUSH BP
9330  E9 00 00                  JMP  9333h
9333  B8 01 00                  MOV  AX, 0001h
9336  B9 00 00                  MOV  CX, 0000h
9339  BA 01 00                  MOV  DX, 0001h
933C  E8 CC 5B                  CALL EF0Bh
933F  8B 5E FE                  MOV  BX, [BP-02h]
9342  36                        SS:
9343  88 47 FA                  MOV  [BX-06h], AL
9346  A0 2D 90                  MOV  AL, [902Dh]
9349  32 E4                     XOR  AH, AH
934B  34 01                     XOR  AL, 01h
934D  B9 00 00                  MOV  CX, 0000h
9350  BA 01 00                  MOV  DX, 0001h
9353  E8 B5 5B                  CALL EF0Bh
9356  A2 2D 90                  MOV  [902Dh], AL
9359  A0 2D 90                  MOV  AL, [902Dh]
935C  32 E4                     XOR  AH, AH
935E  0B C0                     OR   AX, AX
9360  75 03                     JNZ  9365h
9362  E9 23 00                  JMP  9388h
9365  BF 29 88                  MOV  DI, 8829h
9368  1E                        PUSH DS
9369  57                        PUSH DI
936A  E8 C0 5D                  CALL F12Dh
936D  12 53 70                  ADC  DL, [BP+DI+70h]
9380  B1 48                     MOV  CL, 48h
9382  E8 BE 5D                  CALL F143h
9385  E9 21 00                  JMP  93A9h
9388  BF 29 88                  MOV  DI, 8829h
938B  1E                        PUSH DS
938C  57                        PUSH DI
938D  E8 9D 5D                  CALL F12Dh
9390  13 53 70                  ADC  DX, [BP+DI+70h]
93A4  B1 48                     MOV  CL, 48h
93A6  E8 9A 5D                  CALL F143h
93A9  B8 3B 00                  MOV  AX, 003Bh
93AC  50                        PUSH AX
93AD  B8 08 00                  MOV  AX, 0008h
93B0  E8 3F 59                  CALL ECF2h
93B3  2E                        CS:
93B4  A1 95 2E                  MOV  AX, [2E95h]
93B7  E8 49 4F                  CALL E303h
93BA  A0 2D 90                  MOV  AL, [902Dh]
93BD  32 E4                     XOR  AH, AH
93BF  0B C0                     OR   AX, AX
93C1  75 03                     JNZ  93C6h
93C3  E9 1F 00                  JMP  93E5h
93C6  E8 D7 70                  CALL 04A0h
93C9  E8 D9 74                  CALL 08A5h
93CC  0F                        ???
93CD  28 43 75 72 72 65 6E 74...  db  "(Currently ON) "
93DC  E8 DE 74                  CALL 08BDh
93DF  E8 88 5B                  CALL EF6Ah
93E2  E9 1C 00                  JMP  9401h
93E5  E8 B8 70                  CALL 04A0h
93E8  E8 BA 74                  CALL 08A5h
93EB  0F                        ???
93EC  28 43 75 72 72 65 6E 74...  db  "(Currently OFF)"
93FB  E8 BF 74                  CALL 08BDh
93FE  E8 69 5B                  CALL EF6Ah
9401  2E                        CS:
9402  A1 8D 2E                  MOV  AX, [2E8Dh]
9405  E8 FB 4E                  CALL E303h
9408  E9 00 00                  JMP  940Bh
940B  8B E5                     MOV  SP, BP
940D  5D                        POP  BP
940E  C3                        RET
940F  55                        PUSH BP
9410  8B C4                     MOV  AX, SP
9412  FF 76 FE                  PUSH  [BP-02h]
9415  8B E8                     MOV  BP, AX
9417  55                        PUSH BP
9418  E9 00 00                  JMP  941Bh
941B  B8 01 00                  MOV  AX, 0001h
941E  B9 00 00                  MOV  CX, 0000h
9421  BA 01 00                  MOV  DX, 0001h
9424  E8 E4 5A                  CALL EF0Bh
9427  8B 5E FE                  MOV  BX, [BP-02h]
942A  36                        SS:
942B  88 47 FA                  MOV  [BX-06h], AL
942E  A0 2C 90                  MOV  AL, [902Ch]
9431  32 E4                     XOR  AH, AH
9433  34 01                     XOR  AL, 01h
9435  B9 00 00                  MOV  CX, 0000h
9438  BA 01 00                  MOV  DX, 0001h
943B  E8 CD 5A                  CALL EF0Bh
943E  A2 2C 90                  MOV  [902Ch], AL
9441  A0 2C 90                  MOV  AL, [902Ch]
9444  32 E4                     XOR  AH, AH
9446  0B C0                     OR   AX, AX
9448  75 03                     JNZ  944Dh
944A  E9 20 00                  JMP  946Dh
944D  BF DA 87                  MOV  DI, 87DAh
9450  1E                        PUSH DS
9451  57                        PUSH DI
9452  E8 D8 5C                  CALL F12Dh
9455  0F                        ???
9456  4B 65 79 57 6F 72 64 20...  db  "KeyWord Scan ON"
9465  B1 48                     MOV  CL, 48h
9467  E8 D9 5C                  CALL F143h
946A  E9 2D 00                  JMP  949Ah
946D  BF DA 87                  MOV  DI, 87DAh
9470  1E                        PUSH DS
9471  57                        PUSH DI
9472  E8 B8 5C                  CALL F12Dh
9475  10 4B 65                  ADC  [BP+DI+65h], CL
9486  B1 48                     MOV  CL, 48h
9488  E8 B8 5C                  CALL F143h
948B  A0 2D 90                  MOV  AL, [902Dh]
948E  32 E4                     XOR  AH, AH
9490  0B C0                     OR   AX, AX
9492  75 03                     JNZ  9497h
9494  E9 03 00                  JMP  949Ah
9497  E8 8D FE                  CALL 9327h
949A  B8 3B 00                  MOV  AX, 003Bh
949D  50                        PUSH AX
949E  B8 0A 00                  MOV  AX, 000Ah
94A1  E8 4E 58                  CALL ECF2h
94A4  2E                        CS:
94A5  A1 95 2E                  MOV  AX, [2E95h]
94A8  E8 58 4E                  CALL E303h
94AB  A0 2C 90                  MOV  AL, [902Ch]
94AE  32 E4                     XOR  AH, AH
94B0  0B C0                     OR   AX, AX
94B2  75 03                     JNZ  94B7h
94B4  E9 1F 00                  JMP  94D6h
94B7  E8 E6 6F                  CALL 04A0h
94BA  E8 E8 73                  CALL 08A5h
94BD  0F                        ???
94BE  28 43 75 72 72 65 6E 74...  db  "(Currently ON) "
94CD  E8 ED 73                  CALL 08BDh
94D0  E8 97 5A                  CALL EF6Ah
94D3  E9 1C 00                  JMP  94F2h
94D6  E8 C7 6F                  CALL 04A0h
94D9  E8 C9 73                  CALL 08A5h
94DC  0F                        ???
94DD  28 43 75 72 72 65 6E 74...  db  "(Currently OFF)"
94EC  E8 CE 73                  CALL 08BDh
94EF  E8 78 5A                  CALL EF6Ah
94F2  2E                        CS:
94F3  A1 8D 2E                  MOV  AX, [2E8Dh]
94F6  E8 0A 4E                  CALL E303h
94F9  E9 00 00                  JMP  94FCh
94FC  8B E5                     MOV  SP, BP
94FE  5D                        POP  BP
94FF  C3                        RET
9500  83 EC 52                  SUB  SP, 52h
9503  B8 00 00                  MOV  AX, 0000h
9506  B9 00 00                  MOV  CX, 0000h
9509  BA 01 00                  MOV  DX, 0001h
950C  E8 FC 59                  CALL EF0Bh
950F  88 46 FA                  MOV  [BP-06h], AL
9512  B8 01 00                  MOV  AX, 0001h
9515  50                        PUSH AX
9516  B8 01 00                  MOV  AX, 0001h
9519  50                        PUSH AX
951A  B8 50 00                  MOV  AX, 0050h
951D  50                        PUSH AX
951E  B8 18 00                  MOV  AX, 0018h
9521  50                        PUSH AX
9522  E8 08 5C                  CALL F12Dh
9525  1E                        PUSH DS
9526  53 70 65 63 69 61 6C 20...  db  "Special Effects Configuration."
9544  B1 46                     MOV  CL, 46h
9546  E8 3C 5C                  CALL F185h
9549  E8 B3 88                  CALL 1DFFh
954C  A1 85 87                  MOV  AX, [8785h]
954F  E8 B1 4D                  CALL E303h
9552  A1 87 87                  MOV  AX, [8787h]
9555  E8 BF 4D                  CALL E317h
9558  B8 01 00                  MOV  AX, 0001h
955B  50                        PUSH AX
955C  B8 02 00                  MOV  AX, 0002h
955F  E8 90 57                  CALL ECF2h
9562  E8 3B 6F                  CALL 04A0h
9565  E8 3D 73                  CALL 08A5h
9593  E8 27 73                  CALL 08BDh
9596  E8 D1 59                  CALL EF6Ah
9599  2E                        CS:
959A  A1 8D 2E                  MOV  AX, [2E8Dh]
959D  E8 63 4D                  CALL E303h
95A0  2E                        CS:
95A1  A1 8F 2E                  MOV  AX, [2E8Fh]
95A4  E8 70 4D                  CALL E317h
95A7  A1 D4 87                  MOV  AX, [87D4h]
95AA  E8 56 4D                  CALL E303h
95AD  A1 D6 87                  MOV  AX, [87D6h]
95B0  E8 64 4D                  CALL E317h
95B3  B8 01 00                  MOV  AX, 0001h
95B6  50                        PUSH AX
95B7  B8 04 00                  MOV  AX, 0004h
95BA  E8 35 57                  CALL ECF2h
95BD  E8 E0 6E                  CALL 04A0h
95C0  E8 E2 72                  CALL 08A5h
95E6  E8 D4 72                  CALL 08BDh
95E9  E8 7E 59                  CALL EF6Ah
95EC  2E                        CS:
95ED  A1 8D 2E                  MOV  AX, [2E8Dh]
95F0  E8 10 4D                  CALL E303h
95F3  2E                        CS:
95F4  A1 8F 2E                  MOV  AX, [2E8Fh]
95F7  E8 1D 4D                  CALL E317h
95FA  E8 A3 6E                  CALL 04A0h
95FD  E8 BD 72                  CALL 08BDh
9600  E8 67 59                  CALL EF6Ah
9603  E8 9A 6E                  CALL 04A0h
9606  E8 9C 72                  CALL 08A5h
962F  E8 8B 72                  CALL 08BDh
9632  E8 35 59                  CALL EF6Ah
9635  E8 68 6E                  CALL 04A0h
9638  E8 82 72                  CALL 08BDh
963B  E8 2C 59                  CALL EF6Ah
963E  E8 5F 6E                  CALL 04A0h
9641  E8 61 72                  CALL 08A5h
967B  E8 EC 58                  CALL EF6Ah
967E  B8 3B 00                  MOV  AX, 003Bh
9681  50                        PUSH AX
9682  B8 08 00                  MOV  AX, 0008h
9685  E8 6A 56                  CALL ECF2h
9688  2E                        CS:
9689  A1 95 2E                  MOV  AX, [2E95h]
968C  E8 74 4C                  CALL E303h
968F  A0 2D 90                  MOV  AL, [902Dh]
9692  32 E4                     XOR  AH, AH
9694  0B C0                     OR   AX, AX
9696  75 03                     JNZ  969Bh
9698  E9 1E 00                  JMP  96B9h
969B  E8 02 6E                  CALL 04A0h
969E  E8 04 72                  CALL 08A5h
96A1  0E                        PUSH CS
96A2  28 43 75 72 72 65 6E 74...  db  "(Currently ON)"
96B0  E8 0A 72                  CALL 08BDh
96B3  E8 B4 58                  CALL EF6Ah
96B6  E9 1C 00                  JMP  96D5h
96B9  E8 E4 6D                  CALL 04A0h
96BC  E8 E6 71                  CALL 08A5h
96BF  0F                        ???
96C0  28 43 75 72 72 65 6E 74...  db  "(Currently OFF)"
96CF  E8 EB 71                  CALL 08BDh
96D2  E8 95 58                  CALL EF6Ah
96D5  2E                        CS:
96D6  A1 8D 2E                  MOV  AX, [2E8Dh]
96D9  E8 27 4C                  CALL E303h
96DC  E8 C1 6D                  CALL 04A0h
96DF  E8 DB 71                  CALL 08BDh
96E2  E8 85 58                  CALL EF6Ah
96E5  E8 B8 6D                  CALL 04A0h
96E8  E8 BA 71                  CALL 08A5h
9725  E8 42 58                  CALL EF6Ah
9728  B8 3B 00                  MOV  AX, 003Bh
972B  50                        PUSH AX
972C  B8 0A 00                  MOV  AX, 000Ah
972F  E8 C0 55                  CALL ECF2h
9732  2E                        CS:
9733  A1 95 2E                  MOV  AX, [2E95h]
9736  E8 CA 4B                  CALL E303h
9739  A0 2C 90                  MOV  AL, [902Ch]
973C  32 E4                     XOR  AH, AH
973E  0B C0                     OR   AX, AX
9740  75 03                     JNZ  9745h
9742  E9 1E 00                  JMP  9763h
9745  E8 58 6D                  CALL 04A0h
9748  E8 5A 71                  CALL 08A5h
974B  0E                        PUSH CS
974C  28 43 75 72 72 65 6E 74...  db  "(Currently ON)"
975A  E8 60 71                  CALL 08BDh
975D  E8 0A 58                  CALL EF6Ah
9760  E9 1C 00                  JMP  977Fh
9763  E8 3A 6D                  CALL 04A0h
9766  E8 3C 71                  CALL 08A5h
9769  0F                        ???
976A  28 43 75 72 72 65 6E 74...  db  "(Currently OFF)"
9779  E8 41 71                  CALL 08BDh
977C  E8 EB 57                  CALL EF6Ah
977F  2E                        CS:
9780  A1 8D 2E                  MOV  AX, [2E8Dh]
9783  E8 7D 4B                  CALL E303h
9786  E8 17 6D                  CALL 04A0h
9789  E8 31 71                  CALL 08BDh
978C  E8 DB 57                  CALL EF6Ah
978F  B8 01 00                  MOV  AX, 0001h
9792  50                        PUSH AX
9793  B8 14 00                  MOV  AX, 0014h
9796  E8 59 55                  CALL ECF2h
9799  E8 04 6D                  CALL 04A0h
979C  E8 06 71                  CALL 08A5h
97D5  E8 92 57                  CALL EF6Ah
97D8  B8 37 00                  MOV  AX, 0037h
97DB  50                        PUSH AX
97DC  B8 14 00                  MOV  AX, 0014h
97DF  E8 10 55                  CALL ECF2h
97E2  E8 0D 4A                  CALL E1F2h
97E5  E8 EB 6C                  CALL 04D3h
97E8  8D 7E F9                  LEA  DI, [BP-07h]
97EB  16                        PUSH SS
97EC  E8 BB 6E                  CALL 06AAh
97EF  E8 78 57                  CALL EF6Ah
97F4  8A 46 F9                  MOV  AL, [BP-07h]
97F7  32 E4                     XOR  AH, AH
97F9  50                        PUSH AX
97FA  B8 01 20                  MOV  AX, 2001h
97FD  50                        PUSH AX
97FE  E8 CA 5B                  CALL F3CBh
9801  E8 41 5A                  CALL F245h
9804  B1 FF                     MOV  CL, FFh
9806  E8 7C 59                  CALL F185h
9809  E8 4D 77                  CALL 0F59h
980C  89 46 F7                  MOV  [BP-09h], AX
980F  8B 46 F7                  MOV  AX, [BP-09h]
9812  50                        PUSH AX
9813  E8 2E 5C                  CALL F444h
9816  B8 01 00                  MOV  AX, 0001h
9819  50                        PUSH AX
981A  B8 05 00                  MOV  AX, 0005h
981D  E8 3D 5C                  CALL F45Dh
9820  E8 06 5D                  CALL F529h
9823  75 03                     JNZ  9828h
9825  E9 49 00                  JMP  9871h
9828  8B 46 F7                  MOV  AX, [BP-09h]
982B  3D 01 00                  CMP  AX, 0001h
982E  74 03                     JZ   9833h
9830  E9 06 00                  JMP  9839h
9833  E8 54 E5                  CALL 7D8Ah
9836  E9 35 00                  JMP  986Eh
9839  3D 02 00                  CMP  AX, 0002h
983C  74 03                     JZ   9841h
983E  E9 06 00                  JMP  9847h
9841  E8 7E EA                  CALL 82C2h
9844  E9 27 00                  JMP  986Eh
9847  3D 03 00                  CMP  AX, 0003h
984A  74 03                     JZ   984Fh
984C  E9 06 00                  JMP  9855h
984F  E8 7A F2                  CALL 8ACCh
9852  E9 19 00                  JMP  986Eh
9855  3D 04 00                  CMP  AX, 0004h
9858  74 03                     JZ   985Dh
985A  E9 06 00                  JMP  9863h
985D  E8 C7 FA                  CALL 9327h
9860  E9 0B 00                  JMP  986Eh
9863  3D 05 00                  CMP  AX, 0005h
9866  74 03                     JZ   986Bh
9868  E9 03 00                  JMP  986Eh
986B  E8 A1 FB                  CALL 940Fh
986E  E9 06 00                  JMP  9877h
9871  B8 00 00                  MOV  AX, 0000h
9874  89 46 F7                  MOV  [BP-09h], AX
9877  A1 85 87                  MOV  AX, [8785h]
987A  E8 86 4A                  CALL E303h
987D  A1 87 87                  MOV  AX, [8787h]
9880  E8 94 4A                  CALL E317h
9883  B8 01 00                  MOV  AX, 0001h
9886  50                        PUSH AX
9887  B8 02 00                  MOV  AX, 0002h
988A  E8 65 54                  CALL ECF2h
988D  E8 10 6C                  CALL 04A0h
9890  E8 12 70                  CALL 08A5h
98BE  E8 FC 6F                  CALL 08BDh
98C1  E8 A6 56                  CALL EF6Ah
98C4  2E                        CS:
98C5  A1 8D 2E                  MOV  AX, [2E8Dh]
98C8  E8 38 4A                  CALL E303h
98CB  2E                        CS:
98CC  A1 8F 2E                  MOV  AX, [2E8Fh]
98CF  E8 45 4A                  CALL E317h
98D2  A1 D4 87                  MOV  AX, [87D4h]
98D5  E8 2B 4A                  CALL E303h
98D8  A1 D6 87                  MOV  AX, [87D6h]
98DB  E8 39 4A                  CALL E317h
98DE  B8 01 00                  MOV  AX, 0001h
98E1  50                        PUSH AX
98E2  B8 04 00                  MOV  AX, 0004h
98E5  E8 0A 54                  CALL ECF2h
98E8  E8 B5 6B                  CALL 04A0h
98EB  E8 B7 6F                  CALL 08A5h
9911  E8 A9 6F                  CALL 08BDh
9914  E8 53 56                  CALL EF6Ah
9917  2E                        CS:
9918  A1 8D 2E                  MOV  AX, [2E8Dh]
991B  E8 E5 49                  CALL E303h
991E  2E                        CS:
991F  A1 8F 2E                  MOV  AX, [2E8Fh]
9922  E8 F2 49                  CALL E317h
9925  8B 46 F7                  MOV  AX, [BP-09h]
9928  3D 00 00                  CMP  AX, 0000h
992B  74 03                     JZ   9930h
992D  E9 A8 FE                  JMP  97D8h
9930  8A 46 FA                  MOV  AL, [BP-06h]
9933  32 E4                     XOR  AH, AH
9935  0B C0                     OR   AX, AX
9937  75 03                     JNZ  993Ch
9939  E9 18 02                  JMP  9B54h
993C  BF 70 86                  MOV  DI, 8670h
993F  1E                        PUSH DS
9940  57                        PUSH DI
9941  BF E8 57                  MOV  DI, 57E8h
9944  1E                        PUSH DS
9945  E8 CC 57                  CALL F114h
9948  E8 E2 57                  CALL F12Dh
994B  0B 50 41                  OR   DX, [BX+SI+41h]
9957  E8 EB 58                  CALL F245h
995A  E8 C0 68                  CALL 021Dh
995D  E8 0A 56                  CALL EF6Ah
9960  BF 70 86                  MOV  DI, 8670h
9963  1E                        PUSH DS
9964  B9 80 00                  MOV  CX, 0080h
9967  E8 0C 69                  CALL 0276h
996A  E8 FD 55                  CALL EF6Ah
996D  B8 01 00                  MOV  AX, 0001h
9970  50                        PUSH AX
9971  B8 0A 00                  MOV  AX, 000Ah
9974  59                        POP  CX
9975  91                        XCHG AX, CX
9976  2B C8                     SUB  CX, AX
9978  7D 03                     JGE  997Dh
997A  E9 B2 00                  JMP  9A2Fh
997D  41                        INC  CX
997E  89 46 F7                  MOV  [BP-09h], AX
9981  51                        PUSH CX
9982  BF 70 86                  MOV  DI, 8670h
9985  1E                        PUSH DS
9986  E8 29 6B                  CALL 04B2h
9989  8B 46 F7                  MOV  AX, [BP-09h]
998C  48                        DEC  AX
998D  B9 1A 00                  MOV  CX, 001Ah
9990  E8 6E 55                  CALL EF01h
9993  B9 4F 00                  MOV  CX, 004Fh
9996  F7 E1                     MUL  CX
9998  97                        XCHG AX, DI
9999  81 C7 3C 87               ADD  DI, 873Ch
999D  1E                        PUSH DS
999E  E8 73 57                  CALL F114h
99A1  B8 00 00                  MOV  AX, 0000h
99A4  E8 C7 6E                  CALL 086Eh
99A7  E8 13 6F                  CALL 08BDh
99AA  E8 BD 55                  CALL EF6Ah
99AD  BF 70 86                  MOV  DI, 8670h
99B0  1E                        PUSH DS
99B1  E8 FE 6A                  CALL 04B2h
99B4  8B 46 F7                  MOV  AX, [BP-09h]
99B7  48                        DEC  AX
99B8  B9 1A 00                  MOV  CX, 001Ah
99BB  E8 43 55                  CALL EF01h
99BE  B9 4F 00                  MOV  CX, 004Fh
99C1  F7 E1                     MUL  CX
99C3  97                        XCHG AX, DI
99C4  8B 85 85 87               MOV  AX, [DI-787Bh]
99C8  50                        PUSH AX
99C9  B8 00 00                  MOV  AX, 0000h
99CC  E8 32 6E                  CALL 0801h
99CF  E8 EB 6E                  CALL 08BDh
99D2  E8 95 55                  CALL EF6Ah
99D5  BF 70 86                  MOV  DI, 8670h
99D8  1E                        PUSH DS
99D9  E8 D6 6A                  CALL 04B2h
99DC  8B 46 F7                  MOV  AX, [BP-09h]
99DF  48                        DEC  AX
99E0  B9 1A 00                  MOV  CX, 001Ah
99E3  E8 1B 55                  CALL EF01h
99E6  B9 4F 00                  MOV  CX, 004Fh
99E9  F7 E1                     MUL  CX
99EB  97                        XCHG AX, DI
99EC  8B 85 87 87               MOV  AX, [DI-7879h]
99F0  50                        PUSH AX
99F1  B8 00 00                  MOV  AX, 0000h
99F4  E8 0A 6E                  CALL 0801h
99F7  E8 C3 6E                  CALL 08BDh
99FA  E8 6D 55                  CALL EF6Ah
99FD  BF 70 86                  MOV  DI, 8670h
9A00  1E                        PUSH DS
9A01  E8 AE 6A                  CALL 04B2h
9A04  8B 46 F7                  MOV  AX, [BP-09h]
9A07  48                        DEC  AX
9A08  B9 1A 00                  MOV  CX, 001Ah
9A0B  E8 F3 54                  CALL EF01h
9A0E  B9 4F 00                  MOV  CX, 004Fh
9A11  F7 E1                     MUL  CX
9A13  97                        XCHG AX, DI
9A14  8B 85 89 87               MOV  AX, [DI-7877h]
9A18  50                        PUSH AX
9A19  B8 00 00                  MOV  AX, 0000h
9A1C  E8 E2 6D                  CALL 0801h
9A1F  E8 9B 6E                  CALL 08BDh
9A22  E8 45 55                  CALL EF6Ah
9A28  06                        PUSH ES
9A29  FF 46 F7                  INC  [BP-09h]
9A2C  E9 52 FF                  JMP  9981h
9A2F  B8 0B 00                  MOV  AX, 000Bh
9A32  50                        PUSH AX
9A33  B8 1A 00                  MOV  AX, 001Ah
9A36  59                        POP  CX
9A37  91                        XCHG AX, CX
9A38  2B C8                     SUB  CX, AX
9A3A  7D 03                     JGE  9A3Fh
9A3C  E9 08 01                  JMP  9B47h
9A3F  41                        INC  CX
9A40  89 46 F7                  MOV  [BP-09h], AX
9A43  51                        PUSH CX
9A44  8D 7E AC                  LEA  DI, [BP-54h]
9A47  16                        PUSH SS
9A48  57                        PUSH DI
9A49  8B 46 F7                  MOV  AX, [BP-09h]
9A4C  48                        DEC  AX
9A4D  B9 1A 00                  MOV  CX, 001Ah
9A50  E8 AE 54                  CALL EF01h
9A53  B9 4F 00                  MOV  CX, 004Fh
9A56  F7 E1                     MUL  CX
9A58  97                        XCHG AX, DI
9A59  81 C7 3C 87               ADD  DI, 873Ch
9A5D  1E                        PUSH DS
9A5E  E8 B3 56                  CALL F114h
9A61  B1 48                     MOV  CL, 48h
9A63  E8 DD 56                  CALL F143h
9A66  8D 7E AC                  LEA  DI, [BP-54h]
9A69  16                        PUSH SS
9A6A  57                        PUSH DI
9A6B  E8 69 7F                  CALL 19D7h
9A6E  8D 7E AC                  LEA  DI, [BP-54h]
9A71  16                        PUSH SS
9A72  E8 9F 56                  CALL F114h
9A75  E8 B5 56                  CALL F12Dh
9A78  00 E8                     ADD  AL, CH
9A7A  52                        PUSH DX
9A7B  57                        PUSH DI
9A7C  75 03                     JNZ  9A81h
9A7E  E9 BC 00                  JMP  9B3Dh
9A81  8B 46 F7                  MOV  AX, [BP-09h]
9A84  48                        DEC  AX
9A85  B9 1A 00                  MOV  CX, 001Ah
9A88  E8 76 54                  CALL EF01h
9A8B  B9 4F 00                  MOV  CX, 004Fh
9A8E  F7 E1                     MUL  CX
9A90  97                        XCHG AX, DI
9A91  81 C7 3C 87               ADD  DI, 873Ch
9A95  1E                        PUSH DS
9A96  57                        PUSH DI
9A97  E8 D1 7E                  CALL 196Bh
9A9A  BF 70 86                  MOV  DI, 8670h
9A9D  1E                        PUSH DS
9A9E  E8 11 6A                  CALL 04B2h
9AA1  8B 46 F7                  MOV  AX, [BP-09h]
9AA4  48                        DEC  AX
9AA5  B9 1A 00                  MOV  CX, 001Ah
9AA8  E8 56 54                  CALL EF01h
9AAB  B9 4F 00                  MOV  CX, 004Fh
9AAE  F7 E1                     MUL  CX
9AB0  97                        XCHG AX, DI
9AB1  81 C7 3C 87               ADD  DI, 873Ch
9AB5  1E                        PUSH DS
9AB6  E8 5B 56                  CALL F114h
9AB9  B8 00 00                  MOV  AX, 0000h
9ABC  E8 AF 6D                  CALL 086Eh
9ABF  E8 FB 6D                  CALL 08BDh
9AC2  E8 A5 54                  CALL EF6Ah
9AC5  BF 70 86                  MOV  DI, 8670h
9AC8  1E                        PUSH DS
9AC9  E8 E6 69                  CALL 04B2h
9ACC  8B 46 F7                  MOV  AX, [BP-09h]
9ACF  48                        DEC  AX
9AD0  B9 1A 00                  MOV  CX, 001Ah
9AD3  E8 2B 54                  CALL EF01h
9AD6  B9 4F 00                  MOV  CX, 004Fh
9AD9  F7 E1                     MUL  CX
9ADB  97                        XCHG AX, DI
9ADC  8B 85 85 87               MOV  AX, [DI-787Bh]
9AE0  50                        PUSH AX
9AE1  B8 00 00                  MOV  AX, 0000h
9AE4  E8 1A 6D                  CALL 0801h
9AE7  E8 D3 6D                  CALL 08BDh
9AEA  E8 7D 54                  CALL EF6Ah
9AED  BF 70 86                  MOV  DI, 8670h
9AF0  1E                        PUSH DS
9AF1  E8 BE 69                  CALL 04B2h
9AF4  8B 46 F7                  MOV  AX, [BP-09h]
9AF7  48                        DEC  AX
9AF8  B9 1A 00                  MOV  CX, 001Ah
9AFB  E8 03 54                  CALL EF01h
9AFE  B9 4F 00                  MOV  CX, 004Fh
9B01  F7 E1                     MUL  CX
9B03  97                        XCHG AX, DI
9B04  8B 85 87 87               MOV  AX, [DI-7879h]
9B08  50                        PUSH AX
9B09  B8 00 00                  MOV  AX, 0000h
9B0C  E8 F2 6C                  CALL 0801h
9B0F  E8 AB 6D                  CALL 08BDh
9B12  E8 55 54                  CALL EF6Ah
9B15  BF 70 86                  MOV  DI, 8670h
9B18  1E                        PUSH DS
9B19  E8 96 69                  CALL 04B2h
9B1C  8B 46 F7                  MOV  AX, [BP-09h]
9B1F  48                        DEC  AX
9B20  B9 1A 00                  MOV  CX, 001Ah
9B23  E8 DB 53                  CALL EF01h
9B26  B9 4F 00                  MOV  CX, 004Fh
9B29  F7 E1                     MUL  CX
9B2B  97                        XCHG AX, DI
9B2C  8B 85 89 87               MOV  AX, [DI-7877h]
9B30  50                        PUSH AX
9B31  B8 00 00                  MOV  AX, 0000h
9B34  E8 CA 6C                  CALL 0801h
9B37  E8 83 6D                  CALL 08BDh
9B3A  E8 2D 54                  CALL EF6Ah
9B40  06                        PUSH ES
9B41  FF 46 F7                  INC  [BP-09h]
9B44  E9 FC FE                  JMP  9A43h
9B47  BF 70 86                  MOV  DI, 8670h
9B4A  1E                        PUSH DS
9B4B  E8 4D 68                  CALL 039Bh
9B4E  E8 19 54                  CALL EF6Ah
9B51  E8 3F CA                  CALL 6593h
9B54  E8 5B 84                  CALL 1FB2h
9B57  E9 00 00                  JMP  9B5Ah
9B5A  8B E5                     MOV  SP, BP
9B5C  5D                        POP  BP
9B5D  C3                        RET
9B5E  00 00                     ADD  [BX+SI], AL
9B60  00 00                     ADD  [BX+SI], AL
9B62  00 00                     ADD  [BX+SI], AL
9B64  00 00                     ADD  [BX+SI], AL
9B66  00 00                     ADD  [BX+SI], AL
9B68  00 00                     ADD  [BX+SI], AL
9B6A  00 00                     ADD  [BX+SI], AL
9B6C  00 00                     ADD  [BX+SI], AL
9B6E  00 00                     ADD  [BX+SI], AL
9B70  00 00                     ADD  [BX+SI], AL
9B72  00 00                     ADD  [BX+SI], AL
9B74  00 00                     ADD  [BX+SI], AL
9B76  00 00                     ADD  [BX+SI], AL
9B78  00 00                     ADD  [BX+SI], AL
9B7A  00 00                     ADD  [BX+SI], AL
9B7C  00 00                     ADD  [BX+SI], AL
9B7E  00 00                     ADD  [BX+SI], AL
9B80  00 00                     ADD  [BX+SI], AL
9B82  00 00                     ADD  [BX+SI], AL
9B84  00 00                     ADD  [BX+SI], AL
9B86  00 00                     ADD  [BX+SI], AL
9B88  00 00                     ADD  [BX+SI], AL
9B8A  00 00                     ADD  [BX+SI], AL
9B8C  00 00                     ADD  [BX+SI], AL
9B8E  00 00                     ADD  [BX+SI], AL
9B90  00 00                     ADD  [BX+SI], AL
9B92  00 00                     ADD  [BX+SI], AL
9B94  00 00                     ADD  [BX+SI], AL
9B96  00 00                     ADD  [BX+SI], AL
9B98  00 00                     ADD  [BX+SI], AL
9B9A  00 00                     ADD  [BX+SI], AL
9B9C  00 00                     ADD  [BX+SI], AL
9B9E  00 00                     ADD  [BX+SI], AL
9BA0  00 00                     ADD  [BX+SI], AL
9BA2  00 00                     ADD  [BX+SI], AL
9BA4  00 00                     ADD  [BX+SI], AL
9BA6  00 00                     ADD  [BX+SI], AL
9BA8  00 00                     ADD  [BX+SI], AL
9BAA  00 00                     ADD  [BX+SI], AL
9BAC  00 00                     ADD  [BX+SI], AL
9BAE  00 00                     ADD  [BX+SI], AL
9BB0  00 00                     ADD  [BX+SI], AL
9BB2  00 00                     ADD  [BX+SI], AL
9BB4  00 00                     ADD  [BX+SI], AL
9BB6  00 00                     ADD  [BX+SI], AL
9BB8  00 00                     ADD  [BX+SI], AL
9BBA  00 00                     ADD  [BX+SI], AL
9BBC  00 00                     ADD  [BX+SI], AL
9BBE  00 00                     ADD  [BX+SI], AL
9BC0  00 00                     ADD  [BX+SI], AL
9BC2  00 00                     ADD  [BX+SI], AL
9BC4  00 00                     ADD  [BX+SI], AL
9BC6  00 00                     ADD  [BX+SI], AL
9BC8  00 00                     ADD  [BX+SI], AL
9BCA  00 00                     ADD  [BX+SI], AL
9BCC  00 00                     ADD  [BX+SI], AL
9BCE  00 00                     ADD  [BX+SI], AL
9BD0  00 00                     ADD  [BX+SI], AL
9BD2  00 00                     ADD  [BX+SI], AL
9BD4  00 00                     ADD  [BX+SI], AL
9BD6  00 00                     ADD  [BX+SI], AL
9BD8  00 00                     ADD  [BX+SI], AL
9BDA  00 00                     ADD  [BX+SI], AL
9BDC  00 00                     ADD  [BX+SI], AL
9BDE  00 00                     ADD  [BX+SI], AL
9BE0  00 00                     ADD  [BX+SI], AL
9BE2  00 00                     ADD  [BX+SI], AL
9BE4  00 00                     ADD  [BX+SI], AL
9BE6  00 00                     ADD  [BX+SI], AL
9BE8  00 00                     ADD  [BX+SI], AL
9BEA  00 00                     ADD  [BX+SI], AL
9BEC  00 00                     ADD  [BX+SI], AL
9BEE  00 00                     ADD  [BX+SI], AL
9BF0  00 00                     ADD  [BX+SI], AL
9BF2  00 00                     ADD  [BX+SI], AL
9BF4  00 00                     ADD  [BX+SI], AL
9BF6  00 00                     ADD  [BX+SI], AL
9BF8  00 00                     ADD  [BX+SI], AL
9BFA  00 00                     ADD  [BX+SI], AL
9BFC  00 00                     ADD  [BX+SI], AL
9BFE  00 00                     ADD  [BX+SI], AL
9C00  E8 11 6F                  CALL 0B14h
9C03  DF                        ???
9C04  01 BF 9D 55               ADD  [BX+559Dh], DI
9C08  8B EC                     MOV  BP, SP
9C0A  55                        PUSH BP
9C0B  E9 00 00                  JMP  9C0Eh
9C0E  A0 BD 84                  MOV  AL, [84BDh]
9C11  32 E4                     XOR  AH, AH
9C13  3D 00 00                  CMP  AX, 0000h
9C16  74 03                     JZ   9C1Bh
9C18  E9 81 00                  JMP  9C9Ch
9C1B  A0 BA 81                  MOV  AL, [81BAh]
9C1E  32 E4                     XOR  AH, AH
9C20  3D 00 00                  CMP  AX, 0000h
9C23  7F 03                     JG   9C28h
9C25  E9 62 00                  JMP  9C8Ah
9C28  A0 9E 91                  MOV  AL, [919Eh]
9C2B  32 E4                     XOR  AH, AH
9C2D  3D 00 00                  CMP  AX, 0000h
9C30  75 03                     JNZ  9C35h
9C32  E9 10 00                  JMP  9C45h
9C35  B8 00 00                  MOV  AX, 0000h
9C38  B9 00 00                  MOV  CX, 0000h
9C3B  BA 01 00                  MOV  DX, 0001h
9C3E  E8 CA 71                  CALL 0E0Bh
9C41  50                        PUSH AX
9C42  E8 3C A6                  CALL 4281h
9C45  E8 B1 90                  CALL 2CF9h
9C48  E8 55 87                  CALL 23A0h
9C4B  E8 57 8B                  CALL 27A5h
9C4E  02 0D                     ADD  CL, [DI]
9C50  0A E8                     OR   CH, AL
9C52  16                        PUSH SS
9C53  72 A1                     JB   9BF6h
9C55  DD                        ???
9C56  59                        POP  CX
9C57  48                        DEC  AX
9C58  B9 28 00                  MOV  CX, 0028h
9C5B  E8 A3 71                  CALL 0E01h
9C5E  B9 FF 00                  MOV  CX, 00FFh
9C61  F7 E1                     MUL  CX
9C63  97                        XCHG AX, DI
9C64  57                        PUSH DI
9C65  A0 BA 81                  MOV  AL, [81BAh]
9C68  32 E4                     XOR  AH, AH
9C6A  05 01 00                  ADD  AX, 0001h
9C6D  5F                        POP  DI
9C6E  48                        DEC  AX
9C6F  B9 FF 00                  MOV  CX, 00FFh
9C72  E8 8C 71                  CALL 0E01h
9C75  03 F8                     ADD  DI, AX
9C77  B8 FF 00                  MOV  AX, 00FFh
9C7A  B9 00 00                  MOV  CX, 0000h
9C7D  BA FF 00                  MOV  DX, 00FFh
9C80  E8 88 71                  CALL 0E0Bh
9C83  88 85 E1 59               MOV  [DI+59E1h], AL
9C87  E8 72 90                  CALL 2CFCh
9C8A  B8 02 00                  MOV  AX, 0002h
9C8D  B9 00 00                  MOV  CX, 0000h
9C90  BA 03 00                  MOV  DX, 0003h
9C93  E8 75 71                  CALL 0E0Bh
9C96  A2 BD 84                  MOV  [84BDh], AL
9C99  E9 88 00                  JMP  9D24h
9C9C  A0 BD 84                  MOV  AL, [84BDh]
9C9F  32 E4                     XOR  AH, AH
9CA1  3D 02 00                  CMP  AX, 0002h
9CA4  74 03                     JZ   9CA9h
9CA6  E9 7B 00                  JMP  9D24h
9CA9  A0 BA 81                  MOV  AL, [81BAh]
9CAC  32 E4                     XOR  AH, AH
9CAE  3D 00 00                  CMP  AX, 0000h
9CB1  7F 03                     JG   9CB6h
9CB3  E9 5F 00                  JMP  9D15h
9CB6  A0 9E 91                  MOV  AL, [919Eh]
9CB9  32 E4                     XOR  AH, AH
9CBB  3D 00 00                  CMP  AX, 0000h
9CBE  75 03                     JNZ  9CC3h
9CC0  E9 10 00                  JMP  9CD3h
9CC3  B8 00 00                  MOV  AX, 0000h
9CC6  B9 00 00                  MOV  CX, 0000h
9CC9  BA 01 00                  MOV  DX, 0001h
9CCC  E8 3C 71                  CALL 0E0Bh
9CCF  50                        PUSH AX
9CD0  E8 AE A5                  CALL 4281h
9CD3  E8 CA 86                  CALL 23A0h
9CD6  E8 CC 8A                  CALL 27A5h
9CD9  02 0D                     ADD  CL, [DI]
9CDB  0A E8                     OR   CH, AL
9CDD  8B 71 A1                  MOV  SI, [BX+DI-5Fh]
9CE0  DD                        ???
9CE1  59                        POP  CX
9CE2  48                        DEC  AX
9CE3  B9 28 00                  MOV  CX, 0028h
9CE6  E8 18 71                  CALL 0E01h
9CE9  B9 FF 00                  MOV  CX, 00FFh
9CEC  F7 E1                     MUL  CX
9CEE  97                        XCHG AX, DI
9CEF  57                        PUSH DI
9CF0  A0 BA 81                  MOV  AL, [81BAh]
9CF3  32 E4                     XOR  AH, AH
9CF5  05 01 00                  ADD  AX, 0001h
9CF8  5F                        POP  DI
9CF9  48                        DEC  AX
9CFA  B9 FF 00                  MOV  CX, 00FFh
9CFD  E8 01 71                  CALL 0E01h
9D00  03 F8                     ADD  DI, AX
9D02  B8 FF 00                  MOV  AX, 00FFh
9D05  B9 00 00                  MOV  CX, 0000h
9D08  BA FF 00                  MOV  DX, 00FFh
9D0B  E8 FD 70                  CALL 0E0Bh
9D0E  88 85 E1 59               MOV  [DI+59E1h], AL
9D12  E8 E7 8F                  CALL 2CFCh
9D15  B8 00 00                  MOV  AX, 0000h
9D18  B9 00 00                  MOV  CX, 0000h
9D1B  BA 03 00                  MOV  DX, 0003h
9D1E  E8 EA 70                  CALL 0E0Bh
9D21  A2 BD 84                  MOV  [84BDh], AL
9D24  E8 95 A2                  CALL 3FBCh
9D27  B8 05 00                  MOV  AX, 0005h
9D2A  50                        PUSH AX
9D2B  A1 F0 52                  MOV  AX, [52F0h]
9D2E  05 01 00                  ADD  AX, 0001h
9D31  E8 BE 6E                  CALL 0BF2h
9D34  A0 BD 84                  MOV  AL, [84BDh]
9D37  32 E4                     XOR  AH, AH
9D39  3D 00 00                  CMP  AX, 0000h
9D3C  74 03                     JZ   9D41h
9D3E  E9 2C 00                  JMP  9D6Dh
9D41  E8 5C 86                  CALL 23A0h
9D44  E8 5E 8A                  CALL 27A5h
9D47  1F                        POP  DS
9D48  20 20 4B 65 79 20 42 6F...  db  "  Key Board Input (LINE MODE)  "
9D67  E8 00 71                  CALL 0E6Ah
9D6A  E9 6B 00                  JMP  9DD8h
9D6D  3D 02 00                  CMP  AX, 0002h
9D70  74 03                     JZ   9D75h
9D72  E9 3A 00                  JMP  9DAFh
9D75  2E                        CS:
9D76  A1 95 2E                  MOV  AX, [2E95h]
9D79  E8 87 64                  CALL 0203h
9D7C  E8 21 86                  CALL 23A0h
9D7F  E8 23 8A                  CALL 27A5h
9D82  1F                        POP  DS
9D83  20 20 4B 65 79 20 42 6F...  db  "  Key Board Input (CHAR MODE)  "
9DA2  E8 C5 70                  CALL 0E6Ah
9DA5  2E                        CS:
9DA6  A1 8D 2E                  MOV  AX, [2E8Dh]
9DA9  E8 57 64                  CALL 0203h
9DAC  E9 29 00                  JMP  9DD8h
9DAF  E8 EE 85                  CALL 23A0h
9DB2  E8 F0 89                  CALL 27A5h
9DB5  1F                        POP  DS
9DB6  20 20 4B 65 79 20 42 6F...  db  "  Key Board Input (LINE MODE)  "
9DD5  E8 92 70                  CALL 0E6Ah
9DD8  E8 2D A2                  CALL 4008h
9DDB  E9 00 00                  JMP  9DDEh
9DDE  8B E5                     MOV  SP, BP
9DE0  5D                        POP  BP
9DE1  C3                        RET
9DE2  00 00                     ADD  [BX+SI], AL
9DE4  00 00                     ADD  [BX+SI], AL
9DE6  00 00                     ADD  [BX+SI], AL
9DE8  00 00                     ADD  [BX+SI], AL
9DEA  00 00                     ADD  [BX+SI], AL
9DEC  00 00                     ADD  [BX+SI], AL
9DEE  00 00                     ADD  [BX+SI], AL
9DF0  00 00                     ADD  [BX+SI], AL
9DF2  00 00                     ADD  [BX+SI], AL
9DF4  00 00                     ADD  [BX+SI], AL
9DF6  00 00                     ADD  [BX+SI], AL
9DF8  00 00                     ADD  [BX+SI], AL
9DFA  00 00                     ADD  [BX+SI], AL
9DFC  00 00                     ADD  [BX+SI], AL
9DFE  00 00                     ADD  [BX+SI], AL