; ============================================================
; Disassembly of: PACKCOM.000
; Size: 11264 bytes (11 KB)
; Format: Turbo Pascal Overlay (8086 real-mode)
; Generated by disasm8086.py
; ============================================================

0000  E8 23 81                  CALL 8126h
0003  EC                        IN   AL, DX
0004  00 AD 8B 55               ADD  [DI+558Bh], CH
0008  8B EC                     MOV  BP, SP
000A  55                        PUSH BP
000B  E9 00 00                  JMP  000Eh
000E  B8 14 00                  MOV  AX, 0014h
0011  50                        PUSH AX
0012  B8 0A 00                  MOV  AX, 000Ah
0015  50                        PUSH AX
0016  B8 38 00                  MOV  AX, 0038h
0019  50                        PUSH AX
001A  B8 13 00                  MOV  AX, 0013h
001D  50                        PUSH AX
001E  E8 1E 86                  CALL 863Fh
0021  0F                        ???
0022  44 69 73 70 6C 61 79 5F...  db  "Display_Version"
0031  B1 46                     MOV  CL, 46h
0033  E8 61 86                  CALL 8697h
0036  E8 D8 B2                  CALL B311h
0039  E8 76 99                  CALL 99B2h
003C  E8 90 9D                  CALL 9DCFh
003F  E8 3A 84                  CALL 847Ch
0042  E8 6D 99                  CALL 99B2h
0045  E8 6F 9D                  CALL 9DB7h
0048  1F                        POP  DS
0049  20 50 61 63 6B 43 6F 6D...  db  " PackCom by Jim Wright (WB4ZJV)"
0068  E8 64 9D                  CALL 9DCFh
006B  E8 0E 84                  CALL 847Ch
006E  E8 41 99                  CALL 99B2h
0071  E8 5B 9D                  CALL 9DCFh
0074  E8 05 84                  CALL 847Ch
0077  E8 38 99                  CALL 99B2h
007A  E8 3A 9D                  CALL 9DB7h
007D  0C 20                     OR   AL, 20h
008A  E8 2A 9D                  CALL 9DB7h
008D  09 30                     OR   [BX+SI], SI
0097  E8 35 9D                  CALL 9DCFh
009A  E8 DF 83                  CALL 847Ch
009D  E8 12 99                  CALL 99B2h
00A0  E8 14 9D                  CALL 9DB7h
00A3  0C 20                     OR   AL, 20h
00B0  E8 04 9D                  CALL 9DB7h
00B3  0A 30                     OR   DH, [BX+SI]
00BE  E8 0E 9D                  CALL 9DCFh
00C1  E8 B8 83                  CALL 847Ch
00C4  E8 EB 98                  CALL 99B2h
00C7  E8 05 9D                  CALL 9DCFh
00CA  E8 AF 83                  CALL 847Ch
00CD  A0 C1 84                  MOV  AL, [84C1h]
00D0  32 E4                     XOR  AH, AH
00D2  0B C0                     OR   AX, AX
00D4  75 03                     JNZ  00D9h
00D6  E9 06 00                  JMP  00DFh
00D9  E8 B7 AF                  CALL B093h
00DC  E9 06 00                  JMP  00E5h
00DF  B8 D0 07                  MOV  AX, 07D0h
00E2  E8 88 75                  CALL 766Dh
00E5  E8 DC B3                  CALL B4C4h
00E8  E9 00 00                  JMP  00EBh
00EB  8B E5                     MOV  SP, BP
00ED  5D                        POP  BP
00EE  C3                        RET
00EF  00 00                     ADD  [BX+SI], AL
00F1  00 00                     ADD  [BX+SI], AL
00F3  00 00                     ADD  [BX+SI], AL
00F5  00 00                     ADD  [BX+SI], AL
00F7  00 00                     ADD  [BX+SI], AL
00F9  00 00                     ADD  [BX+SI], AL
00FB  00 00                     ADD  [BX+SI], AL
00FD  00 00                     ADD  [BX+SI], AL
00FF  00 E8                     ADD  AL, CH
0101  23 81 8F 07               AND  AX, [BX+DI+078Fh]
0105  AD                        LODSW
0106  8B 55 8B                  MOV  DX, [DI-75h]
0109  EC                        IN   AL, DX
010A  55                        PUSH BP
010B  E9 A9 04                  JMP  05B7h
010E  55                        PUSH BP
010F  8B C4                     MOV  AX, SP
0111  FF 76 FE                  PUSH  [BP-02h]
0114  8B E8                     MOV  BP, AX
0116  55                        PUSH BP
0117  E9 00 00                  JMP  011Ah
011A  8B 46 08                  MOV  AX, [BP+08h]
011D  8B 5E FE                  MOV  BX, [BP-02h]
0120  36                        SS:
0121  89 47 EC                  MOV  [BX-14h], AX
0124  B8 48 00                  MOV  AX, 0048h
0127  B9 08 00                  MOV  CX, 0008h
012A  D3 E0                     SHL  AX, CL
012C  8B 5E FE                  MOV  BX, [BP-02h]
012F  36                        SS:
0130  89 47 EA                  MOV  [BX-16h], AX
0133  8B 5E FE                  MOV  BX, [BP-02h]
0136  36                        SS:
0137  8D 7F EA                  LEA  DI, [BX-16h]
013A  16                        PUSH SS
013B  E8 83 83                  CALL 84C1h
013E  CD 21                     INT  21h
0140  E8 A6 83                  CALL 84E9h
0143  8B 5E FE                  MOV  BX, [BP-02h]
0146  36                        SS:
0147  8B 47 FC                  MOV  AX, [BX-04h]
014A  25 01 00                  AND  AX, 0001h
014D  3D 00 00                  CMP  AX, 0000h
0150  75 03                     JNZ  0155h
0152  E9 1C 00                  JMP  0171h
0155  C4 7E 04                  LES  DI, [BP+04h]
0158  8B 5E FE                  MOV  BX, [BP-02h]
015B  36                        SS:
015C  8B 47 EA                  MOV  AX, [BX-16h]
015F  26                        ES:
0160  89 05                     MOV  [DI], AX
0162  8B 5E FE                  MOV  BX, [BP-02h]
0165  36                        SS:
0166  8B 47 EA                  MOV  AX, [BX-16h]
0169  32 E4                     XOR  AH, AH
016B  89 46 0A                  MOV  [BP+0Ah], AX
016E  E9 13 00                  JMP  0184h
0171  C4 7E 04                  LES  DI, [BP+04h]
0174  8B 5E FE                  MOV  BX, [BP-02h]
0177  36                        SS:
0178  8B 47 EA                  MOV  AX, [BX-16h]
017B  26                        ES:
017C  89 05                     MOV  [DI], AX
017E  B8 00 00                  MOV  AX, 0000h
0181  89 46 0A                  MOV  [BP+0Ah], AX
0184  E9 00 00                  JMP  0187h
0187  8B 46 0A                  MOV  AX, [BP+0Ah]
018A  8B E5                     MOV  SP, BP
018C  5D                        POP  BP
018D  C2 08 00                  RET  0008h
0190  55                        PUSH BP
0191  8B C4                     MOV  AX, SP
0193  FF 76 FE                  PUSH  [BP-02h]
0196  8B E8                     MOV  BP, AX
0198  55                        PUSH BP
0199  E9 00 00                  JMP  019Ch
019C  8B 46 04                  MOV  AX, [BP+04h]
019F  8B 5E FE                  MOV  BX, [BP-02h]
01A2  36                        SS:
01A3  89 47 FA                  MOV  [BX-06h], AX
01A6  B8 49 00                  MOV  AX, 0049h
01A9  B9 08 00                  MOV  CX, 0008h
01AC  D3 E0                     SHL  AX, CL
01AE  8B 5E FE                  MOV  BX, [BP-02h]
01B1  36                        SS:
01B2  89 47 EA                  MOV  [BX-16h], AX
01B5  8B 5E FE                  MOV  BX, [BP-02h]
01B8  36                        SS:
01B9  8D 7F EA                  LEA  DI, [BX-16h]
01BC  16                        PUSH SS
01BD  E8 01 83                  CALL 84C1h
01C0  CD 21                     INT  21h
01C2  E8 24 83                  CALL 84E9h
01C5  8B 5E FE                  MOV  BX, [BP-02h]
01C8  36                        SS:
01C9  8B 47 FC                  MOV  AX, [BX-04h]
01CC  25 01 00                  AND  AX, 0001h
01CF  3D 00 00                  CMP  AX, 0000h
01D2  75 03                     JNZ  01D7h
01D4  E9 0F 00                  JMP  01E6h
01D7  8B 5E FE                  MOV  BX, [BP-02h]
01DA  36                        SS:
01DB  8B 47 EA                  MOV  AX, [BX-16h]
01DE  32 E4                     XOR  AH, AH
01E0  89 46 06                  MOV  [BP+06h], AX
01E3  E9 06 00                  JMP  01ECh
01E6  B8 00 00                  MOV  AX, 0000h
01E9  89 46 06                  MOV  [BP+06h], AX
01EC  E9 00 00                  JMP  01EFh
01EF  8B 46 06                  MOV  AX, [BP+06h]
01F2  8B E5                     MOV  SP, BP
01F4  5D                        POP  BP
01F5  C2 04 00                  RET  0004h
01F8  55                        PUSH BP
01F9  8B EC                     MOV  BP, SP
01FB  1E                        PUSH DS
01FC  8C C8                     MOV  AX, CS
01FE  8C D3                     MOV  BX, SS
0200  81 C3 00 10               ADD  BX, 1000h
0204  2B D8                     SUB  BX, AX
0206  2B 5E 04                  SUB  BX, [BP+04h]
0209  8E C0                     MOV  ES, AX
020B  B4 4A                     MOV  AH, 4Ah
020D  CD 21                     INT  21h
020F  B4 00                     MOV  AH, 00h
0211  72 1A                     JB   022Dh
0213  8C D0                     MOV  AX, SS
0215  8E D8                     MOV  DS, AX
0217  2B 46 04                  SUB  AX, [BP+04h]
021A  8E C0                     MOV  ES, AX
021C  8B DC                     MOV  BX, SP
021E  8B FB                     MOV  DI, BX
0220  8B F3                     MOV  SI, BX
0222  8B CC                     MOV  CX, SP
0224  F7 D9                     NEG  CX
0226  FC                        CLD
0227  F3                        REP
0228  A4                        MOVSB
0229  8E D0                     MOV  SS, AX
022B  33 C0                     XOR  AX, AX
022D  1F                        POP  DS
022E  5D                        POP  BP
022F  C2 04 00                  RET  0004h
0232  55                        PUSH BP
0233  8B C4                     MOV  AX, SP
0235  FF 76 FE                  PUSH  [BP-02h]
0238  8B E8                     MOV  BP, AX
023A  55                        PUSH BP
023B  E9 F4 02                  JMP  0532h
023E  17                        POP  SS
023F  69 6E 76 61 6C 69 64 20...  db  "invalid function number"
0256  00 00                     ADD  [BX+SI], AL
0258  00 00                     ADD  [BX+SI], AL
025A  00 00                     ADD  [BX+SI], AL
025C  00 00                     ADD  [BX+SI], AL
025E  00 00                     ADD  [BX+SI], AL
0260  00 00                     ADD  [BX+SI], AL
0262  00 00                     ADD  [BX+SI], AL
0264  00 00                     ADD  [BX+SI], AL
0266  00 00                     ADD  [BX+SI], AL
0268  0E                        PUSH CS
0269  66 69 6C 65 20 6E 6F 74...  db  "file not found"
0277  00 00                     ADD  [BX+SI], AL
0279  00 00                     ADD  [BX+SI], AL
027B  00 00                     ADD  [BX+SI], AL
027D  00 00                     ADD  [BX+SI], AL
027F  00 00                     ADD  [BX+SI], AL
0281  00 00                     ADD  [BX+SI], AL
0283  00 00                     ADD  [BX+SI], AL
0285  00 00                     ADD  [BX+SI], AL
0287  00 00                     ADD  [BX+SI], AL
0289  00 00                     ADD  [BX+SI], AL
028B  00 00                     ADD  [BX+SI], AL
028D  00 00                     ADD  [BX+SI], AL
028F  00 00                     ADD  [BX+SI], AL
0291  00 0E 70 61               ADD  [6170h], CL
02A1  00 00                     ADD  [BX+SI], AL
02A3  00 00                     ADD  [BX+SI], AL
02A5  00 00                     ADD  [BX+SI], AL
02A7  00 00                     ADD  [BX+SI], AL
02A9  00 00                     ADD  [BX+SI], AL
02AB  00 00                     ADD  [BX+SI], AL
02AD  00 00                     ADD  [BX+SI], AL
02AF  00 00                     ADD  [BX+SI], AL
02B1  00 00                     ADD  [BX+SI], AL
02B3  00 00                     ADD  [BX+SI], AL
02B5  00 00                     ADD  [BX+SI], AL
02B7  00 00                     ADD  [BX+SI], AL
02B9  00 00                     ADD  [BX+SI], AL
02BB  00 25                     ADD  [DI], AH
02E2  00 00                     ADD  [BX+SI], AL
02E4  00 00                     ADD  [BX+SI], AL
02E6  0D 61 63                  OR   AX, 6361h
02F4  00 00                     ADD  [BX+SI], AL
02F6  00 00                     ADD  [BX+SI], AL
02F8  00 00                     ADD  [BX+SI], AL
02FA  00 00                     ADD  [BX+SI], AL
02FC  00 00                     ADD  [BX+SI], AL
02FE  00 00                     ADD  [BX+SI], AL
0300  00 00                     ADD  [BX+SI], AL
0302  00 00                     ADD  [BX+SI], AL
0304  00 00                     ADD  [BX+SI], AL
0306  00 00                     ADD  [BX+SI], AL
0308  00 00                     ADD  [BX+SI], AL
030A  00 00                     ADD  [BX+SI], AL
030C  00 00                     ADD  [BX+SI], AL
030E  00 00                     ADD  [BX+SI], AL
0310  13 69 6E                  ADC  BP, [BX+DI+6Eh]
0324  00 00                     ADD  [BX+SI], AL
0326  00 00                     ADD  [BX+SI], AL
0328  00 00                     ADD  [BX+SI], AL
032A  00 00                     ADD  [BX+SI], AL
032C  00 00                     ADD  [BX+SI], AL
032E  00 00                     ADD  [BX+SI], AL
0330  00 00                     ADD  [BX+SI], AL
0332  00 00                     ADD  [BX+SI], AL
0334  00 00                     ADD  [BX+SI], AL
0336  00 00                     ADD  [BX+SI], AL
0338  00 00                     ADD  [BX+SI], AL
033A  1F                        POP  DS
033B  6D 65 6D 6F 72 79 20 63...  db  "memory control blocks destroyed"
035A  00 00                     ADD  [BX+SI], AL
035C  00 00                     ADD  [BX+SI], AL
035E  00 00                     ADD  [BX+SI], AL
0360  00 00                     ADD  [BX+SI], AL
0362  00 00                     ADD  [BX+SI], AL
0364  13 69 6E                  ADC  BP, [BX+DI+6Eh]
0378  00 00                     ADD  [BX+SI], AL
037A  00 00                     ADD  [BX+SI], AL
037C  00 00                     ADD  [BX+SI], AL
037E  00 00                     ADD  [BX+SI], AL
0380  00 00                     ADD  [BX+SI], AL
0382  00 00                     ADD  [BX+SI], AL
0384  00 00                     ADD  [BX+SI], AL
0386  00 00                     ADD  [BX+SI], AL
0388  00 00                     ADD  [BX+SI], AL
038A  00 00                     ADD  [BX+SI], AL
038C  00 00                     ADD  [BX+SI], AL
038E  1C 69                     SBB  AL, 69h
03AB  00 00                     ADD  [BX+SI], AL
03AD  00 00                     ADD  [BX+SI], AL
03AF  00 00                     ADD  [BX+SI], AL
03B1  00 00                     ADD  [BX+SI], AL
03B3  00 00                     ADD  [BX+SI], AL
03B5  00 00                     ADD  [BX+SI], AL
03B7  00 13                     ADD  [BP+DI], DL
03B9  69 6E 76 61 6C 69 64 20...  db  "invalid environment"
03CC  00 00                     ADD  [BX+SI], AL
03CE  00 00                     ADD  [BX+SI], AL
03D0  00 00                     ADD  [BX+SI], AL
03D2  00 00                     ADD  [BX+SI], AL
03D4  00 00                     ADD  [BX+SI], AL
03D6  00 00                     ADD  [BX+SI], AL
03D8  00 00                     ADD  [BX+SI], AL
03DA  00 00                     ADD  [BX+SI], AL
03DC  00 00                     ADD  [BX+SI], AL
03DE  00 00                     ADD  [BX+SI], AL
03E0  00 00                     ADD  [BX+SI], AL
03E2  0E                        PUSH CS
03E3  69 6E 76 61 6C 69 64 20...  db  "invalid format"
03F1  00 00                     ADD  [BX+SI], AL
03F3  00 00                     ADD  [BX+SI], AL
03F5  00 00                     ADD  [BX+SI], AL
03F7  00 00                     ADD  [BX+SI], AL
03F9  00 00                     ADD  [BX+SI], AL
03FB  00 00                     ADD  [BX+SI], AL
03FD  00 00                     ADD  [BX+SI], AL
03FF  00 00                     ADD  [BX+SI], AL
0401  00 00                     ADD  [BX+SI], AL
0403  00 00                     ADD  [BX+SI], AL
0405  00 00                     ADD  [BX+SI], AL
0407  00 00                     ADD  [BX+SI], AL
0409  00 00                     ADD  [BX+SI], AL
040B  00 13                     ADD  [BP+DI], DL
040D  69 6E 76 61 69 6C 64 20...  db  "invaild access code"
0420  00 00                     ADD  [BX+SI], AL
0422  00 00                     ADD  [BX+SI], AL
0424  00 00                     ADD  [BX+SI], AL
0426  00 00                     ADD  [BX+SI], AL
0428  00 00                     ADD  [BX+SI], AL
042A  00 00                     ADD  [BX+SI], AL
042C  00 00                     ADD  [BX+SI], AL
042E  00 00                     ADD  [BX+SI], AL
0430  00 00                     ADD  [BX+SI], AL
0432  00 00                     ADD  [BX+SI], AL
0434  00 00                     ADD  [BX+SI], AL
0436  0C 69                     OR   AL, 69h
0443  00 00                     ADD  [BX+SI], AL
0445  00 00                     ADD  [BX+SI], AL
0447  00 00                     ADD  [BX+SI], AL
0449  00 00                     ADD  [BX+SI], AL
044B  00 00                     ADD  [BX+SI], AL
044D  00 00                     ADD  [BX+SI], AL
044F  00 00                     ADD  [BX+SI], AL
0451  00 00                     ADD  [BX+SI], AL
0453  00 00                     ADD  [BX+SI], AL
0455  00 00                     ADD  [BX+SI], AL
0457  00 00                     ADD  [BX+SI], AL
0459  00 00                     ADD  [BX+SI], AL
045B  00 00                     ADD  [BX+SI], AL
045D  00 00                     ADD  [BX+SI], AL
045F  00 12                     ADD  [BP+SI], DL
0461  75 6E 72 65 63 6F 67 6E...  db  "unrecognized error"
0473  00 00                     ADD  [BX+SI], AL
0475  00 00                     ADD  [BX+SI], AL
0477  00 00                     ADD  [BX+SI], AL
0479  00 00                     ADD  [BX+SI], AL
047B  00 00                     ADD  [BX+SI], AL
047D  00 00                     ADD  [BX+SI], AL
047F  00 00                     ADD  [BX+SI], AL
0481  00 00                     ADD  [BX+SI], AL
0483  00 00                     ADD  [BX+SI], AL
0485  00 00                     ADD  [BX+SI], AL
0487  00 00                     ADD  [BX+SI], AL
0489  00 1B                     ADD  [BP+DI], BL
048B  69 6E 76 61 6C 69 64 20...  db  "invalid drive was specified"
04A6  00 00                     ADD  [BX+SI], AL
04A8  00 00                     ADD  [BX+SI], AL
04AA  00 00                     ADD  [BX+SI], AL
04AC  00 00                     ADD  [BX+SI], AL
04AE  00 00                     ADD  [BX+SI], AL
04B0  00 00                     ADD  [BX+SI], AL
04B2  00 00                     ADD  [BX+SI], AL
04B4  29 61 74 74 65 6D 70 74...  db  ")attempted to remove the current directory"
04DE  0F                        ???
04DF  6E 6F 74 20 73 61 6D 65...  db  "not same device"
04EE  00 00                     ADD  [BX+SI], AL
04F0  00 00                     ADD  [BX+SI], AL
04F2  00 00                     ADD  [BX+SI], AL
04F4  00 00                     ADD  [BX+SI], AL
04F6  00 00                     ADD  [BX+SI], AL
04F8  00 00                     ADD  [BX+SI], AL
04FA  00 00                     ADD  [BX+SI], AL
04FC  00 00                     ADD  [BX+SI], AL
04FE  00 00                     ADD  [BX+SI], AL
0500  00 00                     ADD  [BX+SI], AL
0502  00 00                     ADD  [BX+SI], AL
0504  00 00                     ADD  [BX+SI], AL
0506  00 00                     ADD  [BX+SI], AL
0508  0D 6E 6F                  OR   AX, 6F6Eh
0516  00 00                     ADD  [BX+SI], AL
0518  00 00                     ADD  [BX+SI], AL
051A  00 00                     ADD  [BX+SI], AL
051C  00 00                     ADD  [BX+SI], AL
051E  00 00                     ADD  [BX+SI], AL
0520  00 00                     ADD  [BX+SI], AL
0522  00 00                     ADD  [BX+SI], AL
0524  00 00                     ADD  [BX+SI], AL
0526  00 00                     ADD  [BX+SI], AL
0528  00 00                     ADD  [BX+SI], AL
052A  00 00                     ADD  [BX+SI], AL
052C  00 00                     ADD  [BX+SI], AL
052E  00 00                     ADD  [BX+SI], AL
0530  00 00                     ADD  [BX+SI], AL
0532  B8 01 00                  MOV  AX, 0001h
0535  B9 00 00                  MOV  CX, 0000h
0538  BA 01 00                  MOV  DX, 0001h
053B  E8 DF 7F                  CALL 851Dh
053E  88 46 06                  MOV  [BP+06h], AL
0541  8B 46 04                  MOV  AX, [BP+04h]
0544  3D 00 00                  CMP  AX, 0000h
0547  74 03                     JZ   054Ch
0549  E9 12 00                  JMP  055Eh
054C  B8 00 00                  MOV  AX, 0000h
054F  B9 00 00                  MOV  CX, 0000h
0552  BA 01 00                  MOV  DX, 0001h
0555  E8 C5 7F                  CALL 851Dh
0558  88 46 06                  MOV  [BP+06h], AL
055B  E9 49 00                  JMP  05A7h
055E  E8 51 95                  CALL 9AB2h
0561  E8 53 99                  CALL 9EB7h
0564  0E                        PUSH CS
0565  2A 2A 2A 20 44 4F 53 20...  db  "*** DOS error "
0573  8B 46 04                  MOV  AX, [BP+04h]
0576  50                        PUSH AX
0577  B8 00 00                  MOV  AX, 0000h
057A  E8 96 98                  CALL 9E13h
057D  E8 37 99                  CALL 9EB7h
0580  02 3A                     ADD  BH, [BP+SI]
0582  20 8B 46 04               AND  [BP+DI+0446h], CL
0586  48                        DEC  AX
0587  B9 12 00                  MOV  CX, 0012h
058A  E8 86 7F                  CALL 8513h
058D  B9 2A 00                  MOV  CX, 002Ah
0590  F7 E1                     MUL  CX
0592  97                        XCHG AX, DI
0593  81 C7 E4 8C               ADD  DI, 8CE4h
0597  0E                        PUSH CS
0598  E8 8B 81                  CALL 8726h
059B  B8 00 00                  MOV  AX, 0000h
059E  E8 DF 98                  CALL 9E80h
05A1  E8 2B 99                  CALL 9ECFh
05A4  E8 D5 7F                  CALL 857Ch
05A7  E9 00 00                  JMP  05AAh
05AA  8A 46 06                  MOV  AL, [BP+06h]
05AD  32 E4                     XOR  AH, AH
05AF  0B C0                     OR   AX, AX
05B1  8B E5                     MOV  SP, BP
05B3  5D                        POP  BP
05B4  C2 03 00                  RET  0003h
05B7  83 EC 1C                  SUB  SP, 1Ch
05BA  B8 00 00                  MOV  AX, 0000h
05BD  B9 00 00                  MOV  CX, 0000h
05C0  BA 01 00                  MOV  DX, 0001h
05C3  E8 57 7F                  CALL 851Dh
05C6  A2 CB 84                  MOV  [84CBh], AL
05C9  8D 7E E2                  LEA  DI, [BP-1Eh]
05CC  16                        PUSH SS
05CD  57                        PUSH DI
05CE  8B 46 04                  MOV  AX, [BP+04h]
05D1  50                        PUSH AX
05D2  E8 07 89                  CALL 8EDCh
05D5  8B 00                     MOV  AX, [BX+SI]
05D7  00 00                     ADD  [BX+SI], AL
05D9  00 00                     ADD  [BX+SI], AL
05DB  E8 B4 8A                  CALL 9092h
05DE  E8 49 89                  CALL 8F2Ah
05E1  E8 F8 88                  CALL 8EDCh
05E4  85 00                     TEST [BX+SI], AX
05E6  00 00                     ADD  [BX+SI], AL
05E8  00 00                     ADD  [BX+SI], AL
05EA  E8 4C 89                  CALL 8F39h
05ED  E8 FD 88                  CALL 8EEDh
05F0  8D 7E E2                  LEA  DI, [BP-1Eh]
05F3  16                        PUSH SS
05F4  E8 D6 88                  CALL 8ECDh
05F7  E8 5A 8A                  CALL 9054h
05FA  89 46 04                  MOV  [BP+04h], AX
05FD  8B 46 04                  MOV  AX, [BP+04h]
0600  3D 00 00                  CMP  AX, 0000h
0603  7F 03                     JG   0608h
0605  E9 81 02                  JMP  0889h
0608  E8 67 77                  CALL 7D72h
060B  3D 00 00                  CMP  AX, 0000h
060E  7C 03                     JL   0613h
0610  E9 1D 00                  JMP  0630h
0613  BF C3 84                  MOV  DI, 84C3h
0616  1E                        PUSH DS
0617  57                        PUSH DI
0618  E8 C1 88                  CALL 8EDCh
061B  91                        XCHG AX, CX
061C  00 00                     ADD  [BX+SI], AL
061E  00 00                     ADD  [BX+SI], AL
0620  00 E8                     ADD  AL, CH
0622  4E                        DEC  SI
0623  77 E8                     JA   060Dh
0625  62                        ???
0626  8A E8                     MOV  CH, AL
0628  D6                        ???
0629  88 E8                     MOV  AL, CH
062B  C0                        ???
062C  88 E9                     MOV  CL, CH
062E  0E                        PUSH CS
062F  00 BF C3 84               ADD  [BX-7B3Dh], BH
0633  1E                        PUSH DS
0634  57                        PUSH DI
0635  E8 3A 77                  CALL 7D72h
0638  E8 4E 8A                  CALL 9089h
063B  E8 AF 88                  CALL 8EEDh
063E  BF C3 84                  MOV  DI, 84C3h
0641  1E                        PUSH DS
0642  E8 88 88                  CALL 8ECDh
0645  B8 80 02                  MOV  AX, 0280h
0648  E8 3E 8A                  CALL 9089h
064B  E8 82 89                  CALL 8FD0h
064E  75 03                     JNZ  0653h
0650  E9 E2 01                  JMP  0835h
0653  8B 46 04                  MOV  AX, [BP+04h]
0656  50                        PUSH AX
0657  BF C3 84                  MOV  DI, 84C3h
065A  1E                        PUSH DS
065B  E8 6F 88                  CALL 8ECDh
065E  E8 31 8A                  CALL 9092h
0661  E8 6C 89                  CALL 8FD0h
0664  75 03                     JNZ  0669h
0666  E9 CC 01                  JMP  0835h
0669  E8 46 94                  CALL 9AB2h
066C  E8 60 98                  CALL 9ECFh
066F  E8 0A 7F                  CALL 857Ch
0672  E8 3D 94                  CALL 9AB2h
0675  E8 3F 98                  CALL 9EB7h
0678  0D 2A 2A                  OR   AX, 2A2Ah
0686  E8 46 98                  CALL 9ECFh
0689  E8 F0 7E                  CALL 857Ch
068C  E8 23 94                  CALL 9AB2h
068F  E8 25 98                  CALL 9EB7h
0692  47 20 54 68 65 20 63 6F...  db  "G The combination of Program Size and Memory Allocation for DOS Programs"
06DA  E8 F2 97                  CALL 9ECFh
06DD  E8 9C 7E                  CALL 857Ch
06E0  E8 CF 93                  CALL 9AB2h
06E3  E8 D1 97                  CALL 9EB7h
06E6  24 20 68 61 73 20 63 61...  db  "$ has cause you to run OUT OF MEMORY!"
070B  E8 C1 97                  CALL 9ECFh
070E  E8 6B 7E                  CALL 857Ch
0711  E8 9E 93                  CALL 9AB2h
0714  E8 B8 97                  CALL 9ECFh
0717  E8 62 7E                  CALL 857Ch
071A  E8 95 93                  CALL 9AB2h
071D  E8 97 97                  CALL 9EB7h
0720  37 20 43 75 72 72 65 6E...  db  "7 Current Memory Allocation for DOS Programs is set to: ."
0759  A1 DA 2D                  MOV  AX, [2DDAh]
075C  50                        PUSH AX
075D  B8 00 00                  MOV  AX, 0000h
0760  E8 B0 96                  CALL 9E13h
0763  B8 4B 00                  MOV  AX, 004Bh
0766  50                        PUSH AX
0767  B8 00 00                  MOV  AX, 0000h
076A  E8 8A 96                  CALL 9DF7h
076D  E8 5F 97                  CALL 9ECFh
0770  E8 09 7E                  CALL 857Ch
0773  E8 3C 93                  CALL 9AB2h
0776  E8 56 97                  CALL 9ECFh
0779  E8 00 7E                  CALL 857Ch
077C  E8 33 93                  CALL 9AB2h
077F  E8 35 97                  CALL 9EB7h
0782  4D 20 59 6F 75 20 72 61...  db  "M You ran out of memory while the Memory for DOS Programs was being allocated."
07D0  E8 FC 96                  CALL 9ECFh
07D3  E8 A6 7D                  CALL 857Ch
07D6  E8 D9 92                  CALL 9AB2h
07D9  E8 F3 96                  CALL 9ECFh
07DC  E8 9D 7D                  CALL 857Ch
07DF  E8 D0 92                  CALL 9AB2h
07E2  E8 D2 96                  CALL 9EB7h
07E5  44 20 55 73 65 20 74 68...  db  "D Use the Command "PackCom /I" to reintialize the Configuration Parms"
082A  E8 A2 96                  CALL 9ECFh
082D  E8 4C 7D                  CALL 857Ch
0830  33 C0                     XOR  AX, AX
0832  E9 AE 79                  JMP  81E3h
0835  4C                        DEC  SP
0836  4C                        DEC  SP
0837  8B 46 04                  MOV  AX, [BP+04h]
083A  50                        PUSH AX
083B  8D 7E E8                  LEA  DI, [BP-18h]
083E  16                        PUSH SS
083F  57                        PUSH DI
0840  E8 CB F8                  CALL 010Eh
0843  3D 00 00                  CMP  AX, 0000h
0846  74 03                     JZ   084Bh
0848  E9 19 00                  JMP  0864h
084B  4C                        DEC  SP
084C  4C                        DEC  SP
084D  4C                        DEC  SP
084E  8B 46 E8                  MOV  AX, [BP-18h]
0851  50                        PUSH AX
0852  E8 3B F9                  CALL 0190h
0855  50                        PUSH AX
0856  E8 D9 F9                  CALL 0232h
0859  75 03                     JNZ  085Eh
085B  E9 03 00                  JMP  0861h
085E  E9 28 00                  JMP  0889h
0861  E9 16 00                  JMP  087Ah
0864  4C                        DEC  SP
0865  4C                        DEC  SP
0866  4C                        DEC  SP
0867  8B 46 04                  MOV  AX, [BP+04h]
086A  50                        PUSH AX
086B  E8 8A F9                  CALL 01F8h
086E  50                        PUSH AX
086F  E8 C0 F9                  CALL 0232h
0872  75 03                     JNZ  0877h
0874  E9 03 00                  JMP  087Ah
0877  E9 0F 00                  JMP  0889h
087A  B8 01 00                  MOV  AX, 0001h
087D  B9 00 00                  MOV  CX, 0000h
0880  BA 01 00                  MOV  DX, 0001h
0883  E8 97 7C                  CALL 851Dh
0886  A2 CB 84                  MOV  [84CBh], AL
0889  E9 00 00                  JMP  088Ch
088C  8B E5                     MOV  SP, BP
088E  5D                        POP  BP
088F  C2 02 00                  RET  0002h
0892  00 00                     ADD  [BX+SI], AL
0894  00 00                     ADD  [BX+SI], AL
0896  00 00                     ADD  [BX+SI], AL
0898  00 00                     ADD  [BX+SI], AL
089A  00 00                     ADD  [BX+SI], AL
089C  00 00                     ADD  [BX+SI], AL
089E  00 00                     ADD  [BX+SI], AL
08A0  00 00                     ADD  [BX+SI], AL
08A2  00 00                     ADD  [BX+SI], AL
08A4  00 00                     ADD  [BX+SI], AL
08A6  00 00                     ADD  [BX+SI], AL
08A8  00 00                     ADD  [BX+SI], AL
08AA  00 00                     ADD  [BX+SI], AL
08AC  00 00                     ADD  [BX+SI], AL
08AE  00 00                     ADD  [BX+SI], AL
08B0  00 00                     ADD  [BX+SI], AL
08B2  00 00                     ADD  [BX+SI], AL
08B4  00 00                     ADD  [BX+SI], AL
08B6  00 00                     ADD  [BX+SI], AL
08B8  00 00                     ADD  [BX+SI], AL
08BA  00 00                     ADD  [BX+SI], AL
08BC  00 00                     ADD  [BX+SI], AL
08BE  00 00                     ADD  [BX+SI], AL
08C0  00 00                     ADD  [BX+SI], AL
08C2  00 00                     ADD  [BX+SI], AL
08C4  00 00                     ADD  [BX+SI], AL
08C6  00 00                     ADD  [BX+SI], AL
08C8  00 00                     ADD  [BX+SI], AL
08CA  00 00                     ADD  [BX+SI], AL
08CC  00 00                     ADD  [BX+SI], AL
08CE  00 00                     ADD  [BX+SI], AL
08D0  00 00                     ADD  [BX+SI], AL
08D2  00 00                     ADD  [BX+SI], AL
08D4  00 00                     ADD  [BX+SI], AL
08D6  00 00                     ADD  [BX+SI], AL
08D8  00 00                     ADD  [BX+SI], AL
08DA  00 00                     ADD  [BX+SI], AL
08DC  00 00                     ADD  [BX+SI], AL
08DE  00 00                     ADD  [BX+SI], AL
08E0  00 00                     ADD  [BX+SI], AL
08E2  00 00                     ADD  [BX+SI], AL
08E4  00 00                     ADD  [BX+SI], AL
08E6  00 00                     ADD  [BX+SI], AL
08E8  00 00                     ADD  [BX+SI], AL
08EA  00 00                     ADD  [BX+SI], AL
08EC  00 00                     ADD  [BX+SI], AL
08EE  00 00                     ADD  [BX+SI], AL
08F0  00 00                     ADD  [BX+SI], AL
08F2  00 00                     ADD  [BX+SI], AL
08F4  00 00                     ADD  [BX+SI], AL
08F6  00 00                     ADD  [BX+SI], AL
08F8  00 00                     ADD  [BX+SI], AL
08FA  00 00                     ADD  [BX+SI], AL
08FC  00 00                     ADD  [BX+SI], AL
08FE  00 00                     ADD  [BX+SI], AL
0900  E8 23 81                  CALL 8A26h
0903  81 01 AD 8B               ADD  [BX+DI], 8BADh
0907  55                        PUSH BP
0908  8B EC                     MOV  BP, SP
090A  55                        PUSH BP
090B  E9 00 00                  JMP  090Eh
090E  4C                        DEC  SP
090F  B8 01 00                  MOV  AX, 0001h
0912  50                        PUSH AX
0913  B8 28 00                  MOV  AX, 0028h
0916  59                        POP  CX
0917  91                        XCHG AX, CX
0918  2B C8                     SUB  CX, AX
091A  7D 03                     JGE  091Fh
091C  E9 35 00                  JMP  0954h
091F  41                        INC  CX
0920  88 46 FD                  MOV  [BP-03h], AL
0923  51                        PUSH CX
0924  C4 3E BA 04               LES  DI, [04BAh]
0928  06                        PUSH ES
0929  57                        PUSH DI
092A  8A 46 FD                  MOV  AL, [BP-03h]
092D  32 E4                     XOR  AH, AH
092F  5F                        POP  DI
0930  07                        POP  ES
0931  48                        DEC  AX
0932  B9 28 00                  MOV  CX, 0028h
0935  E8 DB 83                  CALL 8D13h
0938  B9 51 00                  MOV  CX, 0051h
093B  F7 E1                     MUL  CX
093D  03 F8                     ADD  DI, AX
093F  06                        PUSH ES
0940  57                        PUSH DI
0941  E8 FB 85                  CALL 8F3Fh
0944  00 B1 50 E8               ADD  [BX+DI-17B0h], DH
0948  0B 86 59 49               OR   AX, [BP+4959h]
094C  74 06                     JZ   0954h
094E  FE 46 FD                  INC  [BP-03h]
0951  E9 CF FF                  JMP  0923h
0954  BF F7 52                  MOV  DI, 52F7h
0957  1E                        PUSH DS
0958  57                        PUSH DI
0959  E8 E3 85                  CALL 8F3Fh
095C  0B 50 41                  OR   DX, [BX+SI+41h]
0968  E8 C4 96                  CALL A02Fh
096B  E8 0E 84                  CALL 8D7Ch
096E  BF F7 52                  MOV  DI, 52F7h
0971  1E                        PUSH DS
0972  B9 80 00                  MOV  CX, 0080h
0975  E8 0C 97                  CALL A084h
0978  E8 FA 83                  CALL 8D75h
097B  3D 00 00                  CMP  AX, 0000h
097E  B8 01 00                  MOV  AX, 0001h
0981  74 01                     JZ   0984h
0983  48                        DEC  AX
0984  B9 00 00                  MOV  CX, 0000h
0987  BA 01 00                  MOV  DX, 0001h
098A  E8 90 83                  CALL 8D1Dh
098D  A2 8F 59                  MOV  [598Fh], AL
0990  A0 8F 59                  MOV  AL, [598Fh]
0993  32 E4                     XOR  AH, AH
0995  34 01                     XOR  AL, 01h
0997  75 03                     JNZ  099Ch
0999  E9 61 00                  JMP  09FDh
099C  BF F7 52                  MOV  DI, 52F7h
099F  1E                        PUSH DS
09A0  B9 80 00                  MOV  CX, 0080h
09A3  E8 E2 96                  CALL A088h
09A6  E8 D3 83                  CALL 8D7Ch
09A9  B8 01 00                  MOV  AX, 0001h
09AC  50                        PUSH AX
09AD  B8 28 00                  MOV  AX, 0028h
09B0  59                        POP  CX
09B1  91                        XCHG AX, CX
09B2  2B C8                     SUB  CX, AX
09B4  7D 03                     JGE  09B9h
09B6  E9 41 00                  JMP  09FAh
09B9  41                        INC  CX
09BA  88 46 FD                  MOV  [BP-03h], AL
09BD  51                        PUSH CX
09BE  BF F7 52                  MOV  DI, 52F7h
09C1  1E                        PUSH DS
09C2  E8 FF 98                  CALL A2C4h
09C5  C4 3E BA 04               LES  DI, [04BAh]
09C9  06                        PUSH ES
09CA  57                        PUSH DI
09CB  8A 46 FD                  MOV  AL, [BP-03h]
09CE  32 E4                     XOR  AH, AH
09D0  5F                        POP  DI
09D1  07                        POP  ES
09D2  48                        DEC  AX
09D3  B9 28 00                  MOV  CX, 0028h
09D6  E8 3A 83                  CALL 8D13h
09D9  B9 51 00                  MOV  CX, 0051h
09DC  F7 E1                     MUL  CX
09DE  03 F8                     ADD  DI, AX
09E0  06                        PUSH ES
09E1  E8 42 85                  CALL 8F26h
09E4  B8 00 00                  MOV  AX, 0000h
09E7  E8 96 9C                  CALL A680h
09EA  E8 E2 9C                  CALL A6CFh
09ED  E8 8C 83                  CALL 8D7Ch
09F0  59                        POP  CX
09F1  49                        DEC  CX
09F2  74 06                     JZ   09FAh
09F4  FE 46 FD                  INC  [BP-03h]
09F7  E9 C3 FF                  JMP  09BDh
09FA  E9 76 00                  JMP  0A73h
09FD  B8 00 00                  MOV  AX, 0000h
0A00  B9 00 00                  MOV  CX, 0000h
0A03  BA FF 00                  MOV  DX, 00FFh
0A06  E8 14 83                  CALL 8D1Dh
0A09  88 46 FD                  MOV  [BP-03h], AL
0A0C  BF F7 52                  MOV  DI, 52F7h
0A0F  1E                        PUSH DS
0A10  E8 D5 9C                  CALL A6E8h
0A13  34 01                     XOR  AL, 01h
0A15  50                        PUSH AX
0A16  8A 46 FD                  MOV  AL, [BP-03h]
0A19  32 E4                     XOR  AH, AH
0A1B  3D 28 00                  CMP  AX, 0028h
0A1E  B8 01 00                  MOV  AX, 0001h
0A21  7C 01                     JL   0A24h
0A23  48                        DEC  AX
0A24  59                        POP  CX
0A25  23 C1                     AND  AX, CX
0A27  0B C0                     OR   AX, AX
0A29  75 03                     JNZ  0A2Eh
0A2B  E9 45 00                  JMP  0A73h
0A2E  8A 46 FD                  MOV  AL, [BP-03h]
0A31  32 E4                     XOR  AH, AH
0A33  05 01 00                  ADD  AX, 0001h
0A36  B9 00 00                  MOV  CX, 0000h
0A39  BA FF 00                  MOV  DX, 00FFh
0A3C  E8 DE 82                  CALL 8D1Dh
0A3F  88 46 FD                  MOV  [BP-03h], AL
0A42  BF F7 52                  MOV  DI, 52F7h
0A45  1E                        PUSH DS
0A46  E8 4C 98                  CALL A295h
0A49  C4 3E BA 04               LES  DI, [04BAh]
0A4D  06                        PUSH ES
0A4E  57                        PUSH DI
0A4F  8A 46 FD                  MOV  AL, [BP-03h]
0A52  32 E4                     XOR  AH, AH
0A54  5F                        POP  DI
0A55  07                        POP  ES
0A56  48                        DEC  AX
0A57  B9 28 00                  MOV  CX, 0028h
0A5A  E8 B6 82                  CALL 8D13h
0A5D  B9 51 00                  MOV  CX, 0051h
0A60  F7 E1                     MUL  CX
0A62  03 F8                     ADD  DI, AX
0A64  06                        PUSH ES
0A65  B1 50                     MOV  CL, 50h
0A67  E8 A3 9A                  CALL A50Dh
0A6A  E8 F4 9A                  CALL A561h
0A6D  E8 0C 83                  CALL 8D7Ch
0A70  E9 99 FF                  JMP  0A0Ch
0A73  BF F7 52                  MOV  DI, 52F7h
0A76  1E                        PUSH DS
0A77  E8 33 97                  CALL A1ADh
0A7A  E8 FF 82                  CALL 8D7Ch
0A7D  E9 00 00                  JMP  0A80h
0A80  8B E5                     MOV  SP, BP
0A82  5D                        POP  BP
0A83  C3                        RET
0A84  00 00                     ADD  [BX+SI], AL
0A86  00 00                     ADD  [BX+SI], AL
0A88  00 00                     ADD  [BX+SI], AL
0A8A  00 00                     ADD  [BX+SI], AL
0A8C  00 00                     ADD  [BX+SI], AL
0A8E  00 00                     ADD  [BX+SI], AL
0A90  00 00                     ADD  [BX+SI], AL
0A92  00 00                     ADD  [BX+SI], AL
0A94  00 00                     ADD  [BX+SI], AL
0A96  00 00                     ADD  [BX+SI], AL
0A98  00 00                     ADD  [BX+SI], AL
0A9A  00 00                     ADD  [BX+SI], AL
0A9C  00 00                     ADD  [BX+SI], AL
0A9E  00 00                     ADD  [BX+SI], AL
0AA0  00 00                     ADD  [BX+SI], AL
0AA2  00 00                     ADD  [BX+SI], AL
0AA4  00 00                     ADD  [BX+SI], AL
0AA6  00 00                     ADD  [BX+SI], AL
0AA8  00 00                     ADD  [BX+SI], AL
0AAA  00 00                     ADD  [BX+SI], AL
0AAC  00 00                     ADD  [BX+SI], AL
0AAE  00 00                     ADD  [BX+SI], AL
0AB0  00 00                     ADD  [BX+SI], AL
0AB2  00 00                     ADD  [BX+SI], AL
0AB4  00 00                     ADD  [BX+SI], AL
0AB6  00 00                     ADD  [BX+SI], AL
0AB8  00 00                     ADD  [BX+SI], AL
0ABA  00 00                     ADD  [BX+SI], AL
0ABC  00 00                     ADD  [BX+SI], AL
0ABE  00 00                     ADD  [BX+SI], AL
0AC0  00 00                     ADD  [BX+SI], AL
0AC2  00 00                     ADD  [BX+SI], AL
0AC4  00 00                     ADD  [BX+SI], AL
0AC6  00 00                     ADD  [BX+SI], AL
0AC8  00 00                     ADD  [BX+SI], AL
0ACA  00 00                     ADD  [BX+SI], AL
0ACC  00 00                     ADD  [BX+SI], AL
0ACE  00 00                     ADD  [BX+SI], AL
0AD0  00 00                     ADD  [BX+SI], AL
0AD2  00 00                     ADD  [BX+SI], AL
0AD4  00 00                     ADD  [BX+SI], AL
0AD6  00 00                     ADD  [BX+SI], AL
0AD8  00 00                     ADD  [BX+SI], AL
0ADA  00 00                     ADD  [BX+SI], AL
0ADC  00 00                     ADD  [BX+SI], AL
0ADE  00 00                     ADD  [BX+SI], AL
0AE0  00 00                     ADD  [BX+SI], AL
0AE2  00 00                     ADD  [BX+SI], AL
0AE4  00 00                     ADD  [BX+SI], AL
0AE6  00 00                     ADD  [BX+SI], AL
0AE8  00 00                     ADD  [BX+SI], AL
0AEA  00 00                     ADD  [BX+SI], AL
0AEC  00 00                     ADD  [BX+SI], AL
0AEE  00 00                     ADD  [BX+SI], AL
0AF0  00 00                     ADD  [BX+SI], AL
0AF2  00 00                     ADD  [BX+SI], AL
0AF4  00 00                     ADD  [BX+SI], AL
0AF6  00 00                     ADD  [BX+SI], AL
0AF8  00 00                     ADD  [BX+SI], AL
0AFA  00 00                     ADD  [BX+SI], AL
0AFC  00 00                     ADD  [BX+SI], AL
0AFE  00 00                     ADD  [BX+SI], AL
0B00  E8 23 81                  CALL 8C26h
0B03  03 11                     ADD  DX, [BX+DI]
0B05  AD                        LODSW
0B06  8B 55 8B                  MOV  DX, [DI-75h]
0B09  EC                        IN   AL, DX
0B0A  55                        PUSH BP
0B0B  E9 02 07                  JMP  1210h
0B0E  55                        PUSH BP
0B0F  8B C4                     MOV  AX, SP
0B11  FF 76 FE                  PUSH  [BP-02h]
0B14  8B E8                     MOV  BP, AX
0B16  55                        PUSH BP
0B17  E9 58 03                  JMP  0E72h
0B1A  55                        PUSH BP
0B1B  8B C4                     MOV  AX, SP
0B1D  FF 76 FE                  PUSH  [BP-02h]
0B20  FF 76 FC                  PUSH  [BP-04h]
0B23  8B E8                     MOV  BP, AX
0B25  55                        PUSH BP
0B26  E9 00 00                  JMP  0B29h
0B29  8B 46 08                  MOV  AX, [BP+08h]
0B2C  E8 E6 77                  CALL 8315h
0B2F  8B 46 06                  MOV  AX, [BP+06h]
0B32  E8 F4 77                  CALL 8329h
0B35  E9 00 00                  JMP  0B38h
0B38  8B E5                     MOV  SP, BP
0B3A  5D                        POP  BP
0B3B  C2 06 00                  RET  0006h
0B3E  55                        PUSH BP
0B3F  8B C4                     MOV  AX, SP
0B41  FF 76 FE                  PUSH  [BP-02h]
0B44  FF 76 FC                  PUSH  [BP-04h]
0B47  8B E8                     MOV  BP, AX
0B49  55                        PUSH BP
0B4A  E9 00 00                  JMP  0B4Dh
0B4D  2E                        CS:
0B4E  A1 8D 2E                  MOV  AX, [2E8Dh]
0B51  50                        PUSH AX
0B52  2E                        CS:
0B53  A1 8F 2E                  MOV  AX, [2E8Fh]
0B56  50                        PUSH AX
0B57  2E                        CS:
0B58  A1 97 2E                  MOV  AX, [2E97h]
0B5B  50                        PUSH AX
0B5C  E8 BB FF                  CALL 0B1Ah
0B5F  E8 1E 76                  CALL 8180h
0B62  E8 4D 99                  CALL A4B2h
0B65  E8 67 9D                  CALL A8CFh
0B68  E8 11 84                  CALL 8F7Ch
0B6B  E8 44 99                  CALL A4B2h
0B6E  E8 46 9D                  CALL A8B7h
0B71  1F                        POP  DS
0B72  20 20 20 20 20 20 20 20...  db  "            COLOR CONFIGURATION"
0B91  E8 3B 9D                  CALL A8CFh
0B94  E8 E5 83                  CALL 8F7Ch
0B97  E8 18 99                  CALL A4B2h
0B9A  E8 32 9D                  CALL A8CFh
0B9D  E8 DC 83                  CALL 8F7Ch
0BA0  E8 0F 99                  CALL A4B2h
0BA3  E8 11 9D                  CALL A8B7h
0BA6  32 20 50 72 65 73 73 20...  db  "2 Press <Number Key> to Change Corresponding Color,"
0BD9  E8 F3 9C                  CALL A8CFh
0BDC  E8 9D 83                  CALL 8F7Ch
0BDF  E8 D0 98                  CALL A4B2h
0BE2  E8 D2 9C                  CALL A8B7h
0BE5  17                        POP  SS
0BE6  20 50 72 65 73 73 20 3C...  db  " Press <ENTER> to Exit."
0BFD  E8 CF 9C                  CALL A8CFh
0C00  E8 79 83                  CALL 8F7Ch
0C03  E8 AC 98                  CALL A4B2h
0C06  E8 C6 9C                  CALL A8CFh
0C09  E8 70 83                  CALL 8F7Ch
0C0C  E8 A3 98                  CALL A4B2h
0C0F  E8 A5 9C                  CALL A8B7h
0C12  1B 20                     SBB  SP, [BX+SI]
0C2F  A1 8D 2E                  MOV  AX, [2E8Dh]
0C32  B9 10 00                  MOV  CX, 0010h
0C35  E8 DB 82                  CALL 8F13h
0C38  B9 0D 00                  MOV  CX, 000Dh
0C3B  F7 E1                     MUL  CX
0C3D  97                        XCHG AX, DI
0C3E  81 C7 44 8F               ADD  DI, 8F44h
0C42  1E                        PUSH DS
0C43  E8 E0 84                  CALL 9126h
0C46  B8 00 00                  MOV  AX, 0000h
0C49  E8 34 9C                  CALL A880h
0C4C  E8 80 9C                  CALL A8CFh
0C4F  E8 2A 83                  CALL 8F7Ch
0C52  E8 5D 98                  CALL A4B2h
0C55  E8 5F 9C                  CALL A8B7h
0C58  1B 20                     SBB  SP, [BX+SI]
0C75  A1 8F 2E                  MOV  AX, [2E8Fh]
0C78  B9 10 00                  MOV  CX, 0010h
0C7B  E8 95 82                  CALL 8F13h
0C7E  B9 0D 00                  MOV  CX, 000Dh
0C81  F7 E1                     MUL  CX
0C83  97                        XCHG AX, DI
0C84  81 C7 44 8F               ADD  DI, 8F44h
0C88  1E                        PUSH DS
0C89  E8 9A 84                  CALL 9126h
0C8C  B8 00 00                  MOV  AX, 0000h
0C8F  E8 EE 9B                  CALL A880h
0C92  E8 3A 9C                  CALL A8CFh
0C95  E8 E4 82                  CALL 8F7Ch
0C98  E8 17 98                  CALL A4B2h
0C9B  E8 31 9C                  CALL A8CFh
0C9E  E8 DB 82                  CALL 8F7Ch
0CA1  2E                        CS:
0CA2  A1 91 2E                  MOV  AX, [2E91h]
0CA5  50                        PUSH AX
0CA6  2E                        CS:
0CA7  A1 93 2E                  MOV  AX, [2E93h]
0CAA  50                        PUSH AX
0CAB  2E                        CS:
0CAC  A1 97 2E                  MOV  AX, [2E97h]
0CAF  50                        PUSH AX
0CB0  E8 67 FE                  CALL 0B1Ah
0CB3  E8 4E 75                  CALL 8204h
0CB6  E8 F9 97                  CALL A4B2h
0CB9  E8 FB 9B                  CALL A8B7h
0CBC  29 20 20 20 33 29 20 20...  db  ")   3)  Reverse Image Foreground Color is ."
0CE7  A1 91 2E                  MOV  AX, [2E91h]
0CEA  B9 10 00                  MOV  CX, 0010h
0CED  E8 23 82                  CALL 8F13h
0CF0  B9 0D 00                  MOV  CX, 000Dh
0CF3  F7 E1                     MUL  CX
0CF5  97                        XCHG AX, DI
0CF6  81 C7 44 8F               ADD  DI, 8F44h
0CFA  1E                        PUSH DS
0CFB  E8 28 84                  CALL 9126h
0CFE  B8 00 00                  MOV  AX, 0000h
0D01  E8 7C 9B                  CALL A880h
0D04  E8 C8 9B                  CALL A8CFh
0D07  E8 72 82                  CALL 8F7Ch
0D0A  E8 F7 74                  CALL 8204h
0D0D  E8 A2 97                  CALL A4B2h
0D10  E8 A4 9B                  CALL A8B7h
0D13  29 20 20 20 34 29 20 20...  db  ")   4)  Reverse Image Background Color is ."
0D3E  A1 93 2E                  MOV  AX, [2E93h]
0D41  B9 10 00                  MOV  CX, 0010h
0D44  E8 CC 81                  CALL 8F13h
0D47  B9 0D 00                  MOV  CX, 000Dh
0D4A  F7 E1                     MUL  CX
0D4C  97                        XCHG AX, DI
0D4D  81 C7 44 8F               ADD  DI, 8F44h
0D51  1E                        PUSH DS
0D52  E8 D1 83                  CALL 9126h
0D55  B8 00 00                  MOV  AX, 0000h
0D58  E8 25 9B                  CALL A880h
0D5B  E8 71 9B                  CALL A8CFh
0D5E  E8 1B 82                  CALL 8F7Ch
0D61  E8 4E 97                  CALL A4B2h
0D64  E8 68 9B                  CALL A8CFh
0D67  E8 12 82                  CALL 8F7Ch
0D6A  2E                        CS:
0D6B  A1 95 2E                  MOV  AX, [2E95h]
0D6E  50                        PUSH AX
0D6F  2E                        CS:
0D70  A1 8F 2E                  MOV  AX, [2E8Fh]
0D73  50                        PUSH AX
0D74  2E                        CS:
0D75  A1 97 2E                  MOV  AX, [2E97h]
0D78  50                        PUSH AX
0D79  E8 9E FD                  CALL 0B1Ah
0D7C  E8 33 97                  CALL A4B2h
0D7F  E8 35 9B                  CALL A8B7h
0D82  29 20 20 20 35 29 20 20...  db  ")   5)  High Intesity Foreground Color is ."
0DAD  A1 95 2E                  MOV  AX, [2E95h]
0DB0  B9 10 00                  MOV  CX, 0010h
0DB3  E8 5D 81                  CALL 8F13h
0DB6  B9 0D 00                  MOV  CX, 000Dh
0DB9  F7 E1                     MUL  CX
0DBB  97                        XCHG AX, DI
0DBC  81 C7 44 8F               ADD  DI, 8F44h
0DC0  1E                        PUSH DS
0DC1  E8 62 83                  CALL 9126h
0DC4  B8 00 00                  MOV  AX, 0000h
0DC7  E8 B6 9A                  CALL A880h
0DCA  E8 02 9B                  CALL A8CFh
0DCD  E8 AC 81                  CALL 8F7Ch
0DD0  2E                        CS:
0DD1  A1 8D 2E                  MOV  AX, [2E8Dh]
0DD4  50                        PUSH AX
0DD5  2E                        CS:
0DD6  A1 8F 2E                  MOV  AX, [2E8Fh]
0DD9  50                        PUSH AX
0DDA  2E                        CS:
0DDB  A1 97 2E                  MOV  AX, [2E97h]
0DDE  50                        PUSH AX
0DDF  E8 38 FD                  CALL 0B1Ah
0DE2  E8 CD 96                  CALL A4B2h
0DE5  E8 E7 9A                  CALL A8CFh
0DE8  E8 91 81                  CALL 8F7Ch
0DEB  E8 C4 96                  CALL A4B2h
0DEE  E8 C6 9A                  CALL A8B7h
0DF1  17                        POP  SS
0DF2  20 20 20 36 29 20 20 42...  db  "   6)  Border Color is ."
0E0A  A1 97 2E                  MOV  AX, [2E97h]
0E0D  B9 10 00                  MOV  CX, 0010h
0E10  E8 00 81                  CALL 8F13h
0E13  B9 0D 00                  MOV  CX, 000Dh
0E16  F7 E1                     MUL  CX
0E18  97                        XCHG AX, DI
0E19  81 C7 44 8F               ADD  DI, 8F44h
0E1D  1E                        PUSH DS
0E1E  E8 05 83                  CALL 9126h
0E21  B8 00 00                  MOV  AX, 0000h
0E24  E8 59 9A                  CALL A880h
0E27  E8 8D 9A                  CALL A8B7h
0E2A  02 20                     ADD  AH, [BX+SI]
0E2C  20 E8                     AND  AL, CH
0E2E  4C                        DEC  SP
0E2F  81 2E A1 8D 2E 50         SUB  [8DA1h], 502Eh
0E35  2E                        CS:
0E36  A1 97 2E                  MOV  AX, [2E97h]
0E39  50                        PUSH AX
0E3A  2E                        CS:
0E3B  A1 97 2E                  MOV  AX, [2E97h]
0E3E  50                        PUSH AX
0E3F  E8 D8 FC                  CALL 0B1Ah
0E42  E8 6D 96                  CALL A4B2h
0E45  E8 6F 9A                  CALL A8B7h
0E48  0A 20                     OR   AH, [BX+SI]
0E53  E8 79 9A                  CALL A8CFh
0E56  E8 23 81                  CALL 8F7Ch
0E59  2E                        CS:
0E5A  A1 8D 2E                  MOV  AX, [2E8Dh]
0E5D  50                        PUSH AX
0E5E  2E                        CS:
0E5F  A1 8F 2E                  MOV  AX, [2E8Fh]
0E62  50                        PUSH AX
0E63  2E                        CS:
0E64  A1 97 2E                  MOV  AX, [2E97h]
0E67  50                        PUSH AX
0E68  E8 AF FC                  CALL 0B1Ah
0E6B  E9 00 00                  JMP  0E6Eh
0E6E  8B E5                     MOV  SP, BP
0E70  5D                        POP  BP
0E71  C3                        RET
0E72  83 EC 0A                  SUB  SP, 0Ah
0E75  B8 09 00                  MOV  AX, 0009h
0E78  50                        PUSH AX
0E79  B8 04 00                  MOV  AX, 0004h
0E7C  50                        PUSH AX
0E7D  B8 42 00                  MOV  AX, 0042h
0E80  50                        PUSH AX
0E81  B8 15 00                  MOV  AX, 0015h
0E84  50                        PUSH AX
0E85  E8 B7 82                  CALL 913Fh
0E88  14 53                     ADC  AL, 53h
0E9D  B1 46                     MOV  CL, 46h
0E9F  E8 F5 82                  CALL 9197h
0EA2  E8 6C AF                  CALL BE11h
0EA5  E8 96 FC                  CALL 0B3Eh
0EA8  8D 7E F2                  LEA  DI, [BP-0Eh]
0EAB  16                        PUSH SS
0EAC  57                        PUSH DI
0EAD  83 EC 03                  SUB  SP, 03h
0EB0  E8 61 9F                  CALL AE14h
0EB3  B1 01                     MOV  CL, 01h
0EB5  E8 9D 82                  CALL 9155h
0EB8  8D 7E F2                  LEA  DI, [BP-0Eh]
0EBB  16                        PUSH SS
0EBC  E8 67 82                  CALL 9126h
0EBF  E8 7D 82                  CALL 913Fh
0EC2  00 E8                     ADD  AL, CH
0EC4  1A 83 75 03               SBB  AL, [BP+DI+0375h]
0EC8  E9 DD FF                  JMP  0EA8h
0ECB  8D 7E F2                  LEA  DI, [BP-0Eh]
0ECE  16                        PUSH SS
0ECF  E8 54 82                  CALL 9126h
0ED2  E8 F5 84                  CALL 93CAh
0ED5  3D 31 00                  CMP  AX, 0031h
0ED8  74 03                     JZ   0EDDh
0EDA  E9 15 00                  JMP  0EF2h
0EDD  2E                        CS:
0EDE  A1 8D 2E                  MOV  AX, [2E8Dh]
0EE1  05 01 00                  ADD  AX, 0001h
0EE4  B9 10 00                  MOV  CX, 0010h
0EE7  99                        CWD
0EE8  F7 F9                     IDIV  CX
0EEA  92                        XCHG AX, DX
0EEB  2E                        CS:
0EEC  A3 8D 2E                  MOV  [2E8Dh], AX
0EEF  E9 AC 00                  JMP  0F9Eh
0EF2  3D 32 00                  CMP  AX, 0032h
0EF5  74 03                     JZ   0EFAh
0EF7  E9 15 00                  JMP  0F0Fh
0EFA  2E                        CS:
0EFB  A1 8F 2E                  MOV  AX, [2E8Fh]
0EFE  05 01 00                  ADD  AX, 0001h
0F01  B9 08 00                  MOV  CX, 0008h
0F04  99                        CWD
0F05  F7 F9                     IDIV  CX
0F07  92                        XCHG AX, DX
0F08  2E                        CS:
0F09  A3 8F 2E                  MOV  [2E8Fh], AX
0F0C  E9 8F 00                  JMP  0F9Eh
0F0F  3D 33 00                  CMP  AX, 0033h
0F12  74 03                     JZ   0F17h
0F14  E9 15 00                  JMP  0F2Ch
0F17  2E                        CS:
0F18  A1 91 2E                  MOV  AX, [2E91h]
0F1B  05 01 00                  ADD  AX, 0001h
0F1E  B9 10 00                  MOV  CX, 0010h
0F21  99                        CWD
0F22  F7 F9                     IDIV  CX
0F24  92                        XCHG AX, DX
0F25  2E                        CS:
0F26  A3 91 2E                  MOV  [2E91h], AX
0F29  E9 72 00                  JMP  0F9Eh
0F2C  3D 34 00                  CMP  AX, 0034h
0F2F  74 03                     JZ   0F34h
0F31  E9 15 00                  JMP  0F49h
0F34  2E                        CS:
0F35  A1 93 2E                  MOV  AX, [2E93h]
0F38  05 01 00                  ADD  AX, 0001h
0F3B  B9 08 00                  MOV  CX, 0008h
0F3E  99                        CWD
0F3F  F7 F9                     IDIV  CX
0F41  92                        XCHG AX, DX
0F42  2E                        CS:
0F43  A3 93 2E                  MOV  [2E93h], AX
0F46  E9 55 00                  JMP  0F9Eh
0F49  3D 35 00                  CMP  AX, 0035h
0F4C  74 03                     JZ   0F51h
0F4E  E9 15 00                  JMP  0F66h
0F51  2E                        CS:
0F52  A1 95 2E                  MOV  AX, [2E95h]
0F55  05 01 00                  ADD  AX, 0001h
0F58  B9 10 00                  MOV  CX, 0010h
0F5B  99                        CWD
0F5C  F7 F9                     IDIV  CX
0F5E  92                        XCHG AX, DX
0F5F  2E                        CS:
0F60  A3 95 2E                  MOV  [2E95h], AX
0F63  E9 38 00                  JMP  0F9Eh
0F66  3D 36 00                  CMP  AX, 0036h
0F69  74 03                     JZ   0F6Eh
0F6B  E9 15 00                  JMP  0F83h
0F6E  2E                        CS:
0F6F  A1 97 2E                  MOV  AX, [2E97h]
0F72  05 01 00                  ADD  AX, 0001h
0F75  B9 10 00                  MOV  CX, 0010h
0F78  99                        CWD
0F79  F7 F9                     IDIV  CX
0F7B  92                        XCHG AX, DX
0F7C  2E                        CS:
0F7D  A3 97 2E                  MOV  [2E97h], AX
0F80  E9 1B 00                  JMP  0F9Eh
0F83  3D 0D 00                  CMP  AX, 000Dh
0F86  74 03                     JZ   0F8Bh
0F88  E9 03 00                  JMP  0F8Eh
0F8B  E9 10 00                  JMP  0F9Eh
0F8E  E8 21 95                  CALL A4B2h
0F91  B8 07 00                  MOV  AX, 0007h
0F94  50                        PUSH AX
0F95  B8 00 00                  MOV  AX, 0000h
0F98  E8 5C 98                  CALL A7F7h
0F9B  E8 DE 7F                  CALL 8F7Ch
0F9E  8D 7E F2                  LEA  DI, [BP-0Eh]
0FA1  16                        PUSH SS
0FA2  E8 81 81                  CALL 9126h
0FA5  B8 01 0D                  MOV  AX, 0D01h
0FA8  50                        PUSH AX
0FA9  E8 28 82                  CALL 91D4h
0FAC  75 03                     JNZ  0FB1h
0FAE  E9 F4 FE                  JMP  0EA5h
0FB1  E8 10 B0                  CALL BFC4h
0FB4  E9 00 00                  JMP  0FB7h
0FB7  8B E5                     MOV  SP, BP
0FB9  5D                        POP  BP
0FBA  C3                        RET
0FBB  55                        PUSH BP
0FBC  8B C4                     MOV  AX, SP
0FBE  FF 76 FE                  PUSH  [BP-02h]
0FC1  8B E8                     MOV  BP, AX
0FC3  55                        PUSH BP
0FC4  E9 00 00                  JMP  0FC7h
0FC7  B8 28 00                  MOV  AX, 0028h
0FCA  50                        PUSH AX
0FCB  8B 46 04                  MOV  AX, [BP+04h]
0FCE  B9 0D 00                  MOV  CX, 000Dh
0FD1  99                        CWD
0FD2  F7 F9                     IDIV  CX
0FD4  92                        XCHG AX, DX
0FD5  05 05 00                  ADD  AX, 0005h
0FD8  E8 29 7D                  CALL 8D04h
0FDB  8B 46 04                  MOV  AX, [BP+04h]
0FDE  3D 01 00                  CMP  AX, 0001h
0FE1  74 03                     JZ   0FE6h
0FE3  E9 0B 00                  JMP  0FF1h
0FE6  BF 9F 2D                  MOV  DI, 2D9Fh
0FE9  0E                        PUSH CS
0FEA  57                        PUSH DI
0FEB  E8 45 A9                  CALL B933h
0FEE  E9 16 02                  JMP  1207h
0FF1  3D 02 00                  CMP  AX, 0002h
0FF4  74 03                     JZ   0FF9h
0FF6  E9 0B 00                  JMP  1004h
0FF9  BF A1 2D                  MOV  DI, 2DA1h
0FFC  0E                        PUSH CS
0FFD  57                        PUSH DI
0FFE  E8 32 A9                  CALL B933h
1001  E9 03 02                  JMP  1207h
1004  3D 03 00                  CMP  AX, 0003h
1007  74 03                     JZ   100Ch
1009  E9 5F 00                  JMP  106Bh
100C  BF 90 59                  MOV  DI, 5990h
100F  1E                        PUSH DS
1010  57                        PUSH DI
1011  E8 08 A1                  CALL B11Ch
1014  BF 90 59                  MOV  DI, 5990h
1017  1E                        PUSH DS
1018  57                        PUSH DI
1019  A0 91 59                  MOV  AL, [5991h]
101C  32 E4                     XOR  AH, AH
101E  E8 A7 72                  CALL 82C8h
1021  8A E0                     MOV  AH, AL
1023  B0 01                     MOV  AL, 01h
1025  50                        PUSH AX
1026  B1 0A                     MOV  CL, 0Ah
1028  E8 2A 81                  CALL 9155h
102B  BF 90 59                  MOV  DI, 5990h
102E  1E                        PUSH DS
102F  E8 F4 80                  CALL 9126h
1032  E8 95 83                  CALL 93CAh
1035  3D 4E 00                  CMP  AX, 004Eh
1038  74 03                     JZ   103Dh
103A  E9 0A 00                  JMP  1047h
103D  B8 00 00                  MOV  AX, 0000h
1040  2E                        CS:
1041  A3 A3 2D                  MOV  [2DA3h], AX
1044  E9 21 00                  JMP  1068h
1047  3D 45 00                  CMP  AX, 0045h
104A  74 03                     JZ   104Fh
104C  E9 0A 00                  JMP  1059h
104F  B8 01 00                  MOV  AX, 0001h
1052  2E                        CS:
1053  A3 A3 2D                  MOV  [2DA3h], AX
1056  E9 0F 00                  JMP  1068h
1059  3D 4F 00                  CMP  AX, 004Fh
105C  74 03                     JZ   1061h
105E  E9 07 00                  JMP  1068h
1061  B8 02 00                  MOV  AX, 0002h
1064  2E                        CS:
1065  A3 A3 2D                  MOV  [2DA3h], AX
1068  E9 9C 01                  JMP  1207h
106B  3D 04 00                  CMP  AX, 0004h
106E  74 03                     JZ   1073h
1070  E9 0B 00                  JMP  107Eh
1073  BF A5 2D                  MOV  DI, 2DA5h
1076  0E                        PUSH CS
1077  57                        PUSH DI
1078  E8 B8 A8                  CALL B933h
107B  E9 89 01                  JMP  1207h
107E  3D 05 00                  CMP  AX, 0005h
1081  74 03                     JZ   1086h
1083  E9 0B 00                  JMP  1091h
1086  BF C1 2D                  MOV  DI, 2DC1h
1089  0E                        PUSH CS
108A  57                        PUSH DI
108B  E8 8E A0                  CALL B11Ch
108E  E9 76 01                  JMP  1207h
1091  3D 06 00                  CMP  AX, 0006h
1094  74 03                     JZ   1099h
1096  E9 03 00                  JMP  109Ch
1099  E9 6B 01                  JMP  1207h
109C  3D 07 00                  CMP  AX, 0007h
109F  74 03                     JZ   10A4h
10A1  E9 29 00                  JMP  10CDh
10A4  BF C6 2D                  MOV  DI, 2DC6h
10A7  0E                        PUSH CS
10A8  57                        PUSH DI
10A9  E8 87 A8                  CALL B933h
10AC  2E                        CS:
10AD  A1 C6 2D                  MOV  AX, [2DC6h]
10B0  50                        PUSH AX
10B1  B8 89 13                  MOV  AX, 1389h
10B4  2D 01 00                  SUB  AX, 0001h
10B7  59                        POP  CX
10B8  91                        XCHG AX, CX
10B9  3B C1                     CMP  AX, CX
10BB  7F 03                     JG   10C0h
10BD  E9 0A 00                  JMP  10CAh
10C0  B8 89 13                  MOV  AX, 1389h
10C3  2D 01 00                  SUB  AX, 0001h
10C6  2E                        CS:
10C7  A3 C6 2D                  MOV  [2DC6h], AX
10CA  E9 3A 01                  JMP  1207h
10CD  3D 08 00                  CMP  AX, 0008h
10D0  74 03                     JZ   10D5h
10D2  E9 0B 00                  JMP  10E0h
10D5  BF D2 2D                  MOV  DI, 2DD2h
10D8  0E                        PUSH CS
10D9  57                        PUSH DI
10DA  E8 3F A0                  CALL B11Ch
10DD  E9 27 01                  JMP  1207h
10E0  3D 09 00                  CMP  AX, 0009h
10E3  74 03                     JZ   10E8h
10E5  E9 0B 00                  JMP  10F3h
10E8  BF D6 2D                  MOV  DI, 2DD6h
10EB  0E                        PUSH CS
10EC  57                        PUSH DI
10ED  E8 2C A0                  CALL B11Ch
10F0  E9 14 01                  JMP  1207h
10F3  3D 0A 00                  CMP  AX, 000Ah
10F6  74 03                     JZ   10FBh
10F8  E9 0B 00                  JMP  1106h
10FB  BF C8 2D                  MOV  DI, 2DC8h
10FE  0E                        PUSH CS
10FF  57                        PUSH DI
1100  E8 30 A8                  CALL B933h
1103  E9 01 01                  JMP  1207h
1106  3D 0B 00                  CMP  AX, 000Bh
1109  74 03                     JZ   110Eh
110B  E9 0B 00                  JMP  1119h
110E  BF CA 2D                  MOV  DI, 2DCAh
1111  0E                        PUSH CS
1112  57                        PUSH DI
1113  E8 06 A0                  CALL B11Ch
1116  E9 EE 00                  JMP  1207h
1119  3D 0C 00                  CMP  AX, 000Ch
111C  74 03                     JZ   1121h
111E  E9 06 00                  JMP  1127h
1121  E8 EA F9                  CALL 0B0Eh
1124  E9 E0 00                  JMP  1207h
1127  3D 0E 00                  CMP  AX, 000Eh
112A  74 03                     JZ   112Fh
112C  E9 0B 00                  JMP  113Ah
112F  BF CE 2D                  MOV  DI, 2DCEh
1132  0E                        PUSH CS
1133  57                        PUSH DI
1134  E8 FC A7                  CALL B933h
1137  E9 CD 00                  JMP  1207h
113A  3D 0F 00                  CMP  AX, 000Fh
113D  74 03                     JZ   1142h
113F  E9 0B 00                  JMP  114Dh
1142  BF D0 2D                  MOV  DI, 2DD0h
1145  0E                        PUSH CS
1146  57                        PUSH DI
1147  E8 E9 A7                  CALL B933h
114A  E9 BA 00                  JMP  1207h
114D  3D 10 00                  CMP  AX, 0010h
1150  74 03                     JZ   1155h
1152  E9 0B 00                  JMP  1160h
1155  BF DA 2D                  MOV  DI, 2DDAh
1158  0E                        PUSH CS
1159  57                        PUSH DI
115A  E8 D6 A7                  CALL B933h
115D  E9 A7 00                  JMP  1207h
1160  3D 11 00                  CMP  AX, 0011h
1163  74 03                     JZ   1168h
1165  E9 0B 00                  JMP  1173h
1168  BF DC 2D                  MOV  DI, 2DDCh
116B  0E                        PUSH CS
116C  57                        PUSH DI
116D  E8 AC 9F                  CALL B11Ch
1170  E9 94 00                  JMP  1207h
1173  3D 12 00                  CMP  AX, 0012h
1176  74 03                     JZ   117Bh
1178  E9 0B 00                  JMP  1186h
117B  BF 2D 2E                  MOV  DI, 2E2Dh
117E  0E                        PUSH CS
117F  57                        PUSH DI
1180  E8 99 9F                  CALL B11Ch
1183  E9 81 00                  JMP  1207h
1186  3D 13 00                  CMP  AX, 0013h
1189  74 03                     JZ   118Eh
118B  E9 43 00                  JMP  11D1h
118E  BF 31 2E                  MOV  DI, 2E31h
1191  0E                        PUSH CS
1192  57                        PUSH DI
1193  E8 86 9F                  CALL B11Ch
1196  BF 31 2E                  MOV  DI, 2E31h
1199  0E                        PUSH CS
119A  E8 89 7F                  CALL 9126h
119D  E8 38 81                  CALL 92D8h
11A0  B9 51 00                  MOV  CX, 0051h
11A3  E8 6D 7D                  CALL 8F13h
11A6  97                        XCHG AX, DI
11A7  2E                        CS:
11A8  8A 85 31 2E               MOV  AL, [DI+2E31h]
11AC  32 E4                     XOR  AH, AH
11AE  3D 5C 00                  CMP  AX, 005Ch
11B1  75 03                     JNZ  11B6h
11B3  E9 18 00                  JMP  11CEh
11B6  BF 31 2E                  MOV  DI, 2E31h
11B9  0E                        PUSH CS
11BA  57                        PUSH DI
11BB  BF 31 2E                  MOV  DI, 2E31h
11BE  0E                        PUSH CS
11BF  E8 64 7F                  CALL 9126h
11C2  B8 01 5C                  MOV  AX, 5C01h
11C5  50                        PUSH AX
11C6  E8 8E 80                  CALL 9257h
11C9  B1 50                     MOV  CL, 50h
11CB  E8 87 7F                  CALL 9155h
11CE  E9 36 00                  JMP  1207h
11D1  3D 14 00                  CMP  AX, 0014h
11D4  74 03                     JZ   11D9h
11D6  E9 0B 00                  JMP  11E4h
11D9  BF 82 2E                  MOV  DI, 2E82h
11DC  0E                        PUSH CS
11DD  57                        PUSH DI
11DE  E8 3B 9F                  CALL B11Ch
11E1  E9 23 00                  JMP  1207h
11E4  3D 15 00                  CMP  AX, 0015h
11E7  74 03                     JZ   11ECh
11E9  E9 0B 00                  JMP  11F7h
11EC  BF 84 2E                  MOV  DI, 2E84h
11EF  0E                        PUSH CS
11F0  57                        PUSH DI
11F1  E8 28 9F                  CALL B11Ch
11F4  E9 10 00                  JMP  1207h
11F7  3D 16 00                  CMP  AX, 0016h
11FA  74 03                     JZ   11FFh
11FC  E9 08 00                  JMP  1207h
11FF  BF 88 2E                  MOV  DI, 2E88h
1202  0E                        PUSH CS
1203  57                        PUSH DI
1204  E8 15 9F                  CALL B11Ch
1207  E9 00 00                  JMP  120Ah
120A  8B E5                     MOV  SP, BP
120C  5D                        POP  BP
120D  C2 02 00                  RET  0002h
1210  83 EC 0E                  SUB  SP, 0Eh
1213  B8 00 00                  MOV  AX, 0000h
1216  B9 00 00                  MOV  CX, 0000h
1219  BA 01 00                  MOV  DX, 0001h
121C  E8 FE 7C                  CALL 8F1Dh
121F  88 46 F0                  MOV  [BP-10h], AL
1222  B8 04 00                  MOV  AX, 0004h
1225  50                        PUSH AX
1226  B8 02 00                  MOV  AX, 0002h
1229  50                        PUSH AX
122A  B8 4E 00                  MOV  AX, 004Eh
122D  50                        PUSH AX
122E  B8 16 00                  MOV  AX, 0016h
1231  50                        PUSH AX
1232  E8 0A 7F                  CALL 913Fh
1235  14 52                     ADC  AL, 52h
124A  B1 46                     MOV  CL, 46h
124C  E8 48 7F                  CALL 9197h
124F  E8 BF AB                  CALL BE11h
1252  E8 5D 92                  CALL A4B2h
1255  E8 77 96                  CALL A8CFh
1258  E8 21 7D                  CALL 8F7Ch
125B  E8 54 92                  CALL A4B2h
125E  E8 56 96                  CALL A8B7h
1261  3F 20 4F 70 74 69 6F 6E...  db  "? Options with "X" do NOT take effect until PackCom is restarted"
12A1  E8 2B 96                  CALL A8CFh
12A4  E8 D5 7C                  CALL 8F7Ch
12A7  E8 08 92                  CALL A4B2h
12AA  E8 0A 96                  CALL A8B7h
12AD  41 20 4F 70 74 69 6F 6E...  db  "A Options with "P" do NOT take effect until after an ALT-P Command"
12EF  E8 DD 95                  CALL A8CFh
12F2  E8 87 7C                  CALL 8F7Ch
12F5  E8 BA 91                  CALL A4B2h
12F8  E8 BC 95                  CALL A8B7h
12FB  2A 20 41 6C 6C 20 6F 74...  db  "* All other options take effect immediately"
1326  E8 A6 95                  CALL A8CFh
1329  E8 50 7C                  CALL 8F7Ch
132C  E8 83 91                  CALL A4B2h
132F  E8 9D 95                  CALL A8CFh
1332  E8 47 7C                  CALL 8F7Ch
1335  E8 7A 91                  CALL A4B2h
1338  E8 7C 95                  CALL A8B7h
133B  27 50 20 31 2E 20 4E 75...  db  "'P 1. Number of Stopbits .............. ."
1364  A1 9F 2D                  MOV  AX, [2D9Fh]
1367  50                        PUSH AX
1368  B8 00 00                  MOV  AX, 0000h
136B  E8 A5 94                  CALL A813h
136E  E8 0B 7C                  CALL 8F7Ch
1371  E8 3E 91                  CALL A4B2h
1374  E8 40 95                  CALL A8B7h
1377  18 20                     SBB  [BX+SI], AH
1392  E8 F1 C5                  CALL D986h
1395  50                        PUSH AX
1396  B8 00 00                  MOV  AX, 0000h
1399  E8 77 94                  CALL A813h
139C  B8 4B 00                  MOV  AX, 004Bh
139F  50                        PUSH AX
13A0  B8 00 00                  MOV  AX, 0000h
13A3  E8 51 94                  CALL A7F7h
13A6  E8 26 95                  CALL A8CFh
13A9  E8 D0 7B                  CALL 8F7Ch
13AC  E8 03 91                  CALL A4B2h
13AF  E8 05 95                  CALL A8B7h
13B2  27 50 20 32 2E 20 4E 75...  db  "'P 2. Number of Databits .............. ."
13DB  A1 A1 2D                  MOV  AX, [2DA1h]
13DE  50                        PUSH AX
13DF  B8 00 00                  MOV  AX, 0000h
13E2  E8 2E 94                  CALL A813h
13E5  E8 E7 94                  CALL A8CFh
13E8  E8 91 7B                  CALL 8F7Ch
13EB  E8 C4 90                  CALL A4B2h
13EE  E8 C6 94                  CALL A8B7h
13F1  27 50 20 33 2E 20 50 61...  db  "'P 3. Parity Type ..................... "
1419  E8 60 7B                  CALL 8F7Ch
141C  2E                        CS:
141D  A1 A3 2D                  MOV  AX, [2DA3h]
1420  3D 00 00                  CMP  AX, 0000h
1423  74 03                     JZ   1428h
1425  E9 15 00                  JMP  143Dh
1428  BF 90 59                  MOV  DI, 5990h
142B  1E                        PUSH DS
142C  57                        PUSH DI
142D  B8 4E 00                  MOV  AX, 004Eh
1430  8A E0                     MOV  AH, AL
1432  B0 01                     MOV  AL, 01h
1434  50                        PUSH AX
1435  B1 0A                     MOV  CL, 0Ah
1437  E8 1B 7D                  CALL 9155h
143A  E9 37 00                  JMP  1474h
143D  3D 01 00                  CMP  AX, 0001h
1440  74 03                     JZ   1445h
1442  E9 15 00                  JMP  145Ah
1445  BF 90 59                  MOV  DI, 5990h
1448  1E                        PUSH DS
1449  57                        PUSH DI
144A  B8 45 00                  MOV  AX, 0045h
144D  8A E0                     MOV  AH, AL
144F  B0 01                     MOV  AL, 01h
1451  50                        PUSH AX
1452  B1 0A                     MOV  CL, 0Ah
1454  E8 FE 7C                  CALL 9155h
1457  E9 1A 00                  JMP  1474h
145A  3D 02 00                  CMP  AX, 0002h
145D  74 03                     JZ   1462h
145F  E9 12 00                  JMP  1474h
1462  BF 90 59                  MOV  DI, 5990h
1465  1E                        PUSH DS
1466  57                        PUSH DI
1467  B8 4F 00                  MOV  AX, 004Fh
146A  8A E0                     MOV  AH, AL
146C  B0 01                     MOV  AL, 01h
146E  50                        PUSH AX
146F  B1 0A                     MOV  CL, 0Ah
1471  E8 E1 7C                  CALL 9155h
1474  E8 3B 90                  CALL A4B2h
1477  BF 90 59                  MOV  DI, 5990h
147A  1E                        PUSH DS
147B  E8 A8 7C                  CALL 9126h
147E  B8 00 00                  MOV  AX, 0000h
1481  E8 FC 93                  CALL A880h
1484  E8 48 94                  CALL A8CFh
1487  E8 F2 7A                  CALL 8F7Ch
148A  E8 25 90                  CALL A4B2h
148D  E8 27 94                  CALL A8B7h
1490  27 50 20 34 2E 20 42 61...  db  "'P 4. Baud Rate ....................... ."
14B9  A1 A5 2D                  MOV  AX, [2DA5h]
14BC  50                        PUSH AX
14BD  B8 00 00                  MOV  AX, 0000h
14C0  E8 50 93                  CALL A813h
14C3  E8 09 94                  CALL A8CFh
14C6  E8 B3 7A                  CALL 8F7Ch
14C9  E8 E6 8F                  CALL A4B2h
14CC  E8 E8 93                  CALL A8B7h
14CF  27 50 20 35 2E 20 43 6F...  db  "'P 5. Communication Port .............. "
14F7  BF C1 2D                  MOV  DI, 2DC1h
14FA  0E                        PUSH CS
14FB  E8 28 7C                  CALL 9126h
14FE  B8 00 00                  MOV  AX, 0000h
1501  E8 7C 93                  CALL A880h
1504  E8 C8 93                  CALL A8CFh
1507  E8 72 7A                  CALL 8F7Ch
150A  E8 A5 8F                  CALL A4B2h
150D  E8 A7 93                  CALL A8B7h
1510  27 20 20 36 2E 20 2E 2E...  db  "'  6. ...........DUMMY PARM............ "
1538  E8 94 93                  CALL A8CFh
153B  E8 3E 7A                  CALL 8F7Ch
153E  E8 71 8F                  CALL A4B2h
1541  E8 73 93                  CALL A8B7h
1544  27 58 20 37 2E 20 53 63...  db  "'X 7. Scroll Back Buffer Size.......... ."
156D  A1 C6 2D                  MOV  AX, [2DC6h]
1570  50                        PUSH AX
1571  B8 00 00                  MOV  AX, 0000h
1574  E8 9C 92                  CALL A813h
1577  E8 55 93                  CALL A8CFh
157A  E8 FF 79                  CALL 8F7Ch
157D  E8 32 8F                  CALL A4B2h
1580  E8 34 93                  CALL A8B7h
1583  27 20 20 38 2E 20 49 6E...  db  "'  8. Incomming BELL (cntl-G) ......... "
15AB  BF D2 2D                  MOV  DI, 2DD2h
15AE  0E                        PUSH CS
15AF  E8 74 7B                  CALL 9126h
15B2  B8 00 00                  MOV  AX, 0000h
15B5  E8 C8 92                  CALL A880h
15B8  E8 14 93                  CALL A8CFh
15BB  E8 BE 79                  CALL 8F7Ch
15BE  E8 F1 8E                  CALL A4B2h
15C1  E8 F3 92                  CALL A8B7h
15C4  27 20 20 39 2E 20 45 6C...  db  "'  9. Eliminate Blank Lines . ......... "
15EC  BF D6 2D                  MOV  DI, 2DD6h
15EF  0E                        PUSH CS
15F0  E8 33 7B                  CALL 9126h
15F3  B8 00 00                  MOV  AX, 0000h
15F6  E8 87 92                  CALL A880h
15F9  E8 D3 92                  CALL A8CFh
15FC  E8 7D 79                  CALL 8F7Ch
15FF  E8 B0 8E                  CALL A4B2h
1602  E8 B2 92                  CALL A8B7h
1605  27 20 31 30 2E 20 54 69...  db  "' 10. Time Management Every ? Minutes . ."
162E  A1 C8 2D                  MOV  AX, [2DC8h]
1631  50                        PUSH AX
1632  B8 00 00                  MOV  AX, 0000h
1635  E8 DB 91                  CALL A813h
1638  E8 94 92                  CALL A8CFh
163B  E8 3E 79                  CALL 8F7Ch
163E  E8 71 8E                  CALL A4B2h
1641  E8 73 92                  CALL A8B7h
1644  27 20 31 31 2E 20 44 69...  db  "' 11. Display Time .................... "
166C  BF CA 2D                  MOV  DI, 2DCAh
166F  0E                        PUSH CS
1670  E8 B3 7A                  CALL 9126h
1673  B8 00 00                  MOV  AX, 0000h
1676  E8 07 92                  CALL A880h
1679  E8 53 92                  CALL A8CFh
167C  E8 FD 78                  CALL 8F7Ch
167F  E8 30 8E                  CALL A4B2h
1682  E8 32 92                  CALL A8B7h
1685  37 20 31 32 2E 20 43 68...  db  "7 12. Change Color (takes effect as screen is rewritten)"
16BD  E8 0F 92                  CALL A8CFh
16C0  E8 B9 78                  CALL 8F7Ch
16C3  B8 01 00                  MOV  AX, 0001h
16C6  50                        PUSH AX
16C7  B8 13 00                  MOV  AX, 0013h
16CA  E8 37 76                  CALL 8D04h
16CD  E8 E2 8D                  CALL A4B2h
16D0  E8 E4 91                  CALL A8B7h
16D3  30 20 45 6E 74 65 72 20...  db  "0 Enter the number to change or RETURN for more: "
1704  E8 75 78                  CALL 8F7Ch
1707  B8 31 00                  MOV  AX, 0031h
170A  50                        PUSH AX
170B  B8 13 00                  MOV  AX, 0013h
170E  E8 F3 75                  CALL 8D04h
1711  E8 F0 6A                  CALL 8204h
1714  E8 CE 8D                  CALL A4E5h
1717  8D 7E F1                  LEA  DI, [BP-0Fh]
171A  16                        PUSH SS
171B  B1 0A                     MOV  CL, 0Ah
171D  E8 ED 8F                  CALL A70Dh
1720  E8 59 78                  CALL 8F7Ch
1725  8D 7E F1                  LEA  DI, [BP-0Fh]
1728  16                        PUSH SS
1729  E8 FA 79                  CALL 9126h
172C  B8 01 20                  MOV  AX, 2001h
172F  50                        PUSH AX
1730  E8 24 7B                  CALL 9257h
1733  B1 FF                     MOV  CL, FFh
1735  E8 5F 7A                  CALL 9197h
1738  E8 30 98                  CALL AF6Bh
173B  89 46 FC                  MOV  [BP-04h], AX
173E  8B 46 FC                  MOV  AX, [BP-04h]
1741  50                        PUSH AX
1742  E8 11 7D                  CALL 9456h
1745  B8 01 00                  MOV  AX, 0001h
1748  50                        PUSH AX
1749  B8 0C 00                  MOV  AX, 000Ch
174C  E8 20 7D                  CALL 946Fh
174F  E8 E9 7D                  CALL 953Bh
1752  75 03                     JNZ  1757h
1754  E9 19 00                  JMP  1770h
1757  B8 01 00                  MOV  AX, 0001h
175A  B9 00 00                  MOV  CX, 0000h
175D  BA 01 00                  MOV  DX, 0001h
1760  E8 BA 77                  CALL 8F1Dh
1763  88 46 F0                  MOV  [BP-10h], AL
1766  8B 46 FC                  MOV  AX, [BP-04h]
1769  50                        PUSH AX
176A  E8 4E F8                  CALL 0FBBh
176D  E9 E6 03                  JMP  1B56h
1770  E8 0D 6A                  CALL 8180h
1773  E8 3C 8D                  CALL A4B2h
1776  E8 56 91                  CALL A8CFh
1779  E8 00 78                  CALL 8F7Ch
177C  E8 33 8D                  CALL A4B2h
177F  E8 35 91                  CALL A8B7h
1782  3F 20 4F 70 74 69 6F 6E...  db  "? Options with "X" do NOT take effect until PackCom is restarted"
17C2  E8 0A 91                  CALL A8CFh
17C5  E8 B4 77                  CALL 8F7Ch
17C8  E8 E7 8C                  CALL A4B2h
17CB  E8 E9 90                  CALL A8B7h
17CE  41 20 4F 70 74 69 6F 6E...  db  "A Options with "P" do NOT take effect until after an ALT-P Command"
1810  E8 BC 90                  CALL A8CFh
1813  E8 66 77                  CALL 8F7Ch
1816  E8 99 8C                  CALL A4B2h
1819  E8 9B 90                  CALL A8B7h
181C  2A 20 41 6C 6C 20 6F 74...  db  "* All other options take effect immediately"
1847  E8 85 90                  CALL A8CFh
184A  E8 2F 77                  CALL 8F7Ch
184D  E8 62 8C                  CALL A4B2h
1850  E8 7C 90                  CALL A8CFh
1853  E8 26 77                  CALL 8F7Ch
1856  E8 59 8C                  CALL A4B2h
1859  E8 5B 90                  CALL A8B7h
185C  27 20 31 34 2E 20 31 2F...  db  "' 14. 1/1000 Sec. after sending a Byte  ."
1885  A1 CE 2D                  MOV  AX, [2DCEh]
1888  50                        PUSH AX
1889  B8 00 00                  MOV  AX, 0000h
188C  E8 84 8F                  CALL A813h
188F  E8 3D 90                  CALL A8CFh
1892  E8 E7 76                  CALL 8F7Ch
1895  E8 1A 8C                  CALL A4B2h
1898  E8 1C 90                  CALL A8B7h
189B  27 20 31 35 2E 20 31 2F...  db  "' 15. 1/1000 Sec. after sending a CRLF  ."
18C4  A1 D0 2D                  MOV  AX, [2DD0h]
18C7  50                        PUSH AX
18C8  B8 00 00                  MOV  AX, 0000h
18CB  E8 45 8F                  CALL A813h
18CE  E8 FE 8F                  CALL A8CFh
18D1  E8 A8 76                  CALL 8F7Ch
18D4  E8 DB 8B                  CALL A4B2h
18D7  E8 DD 8F                  CALL A8B7h
18DA  27 58 31 36 2E 20 4D 65...  db  "'X16. Memory for DOS Programs (KBytes)  ."
1903  A1 DA 2D                  MOV  AX, [2DDAh]
1906  50                        PUSH AX
1907  B8 00 00                  MOV  AX, 0000h
190A  E8 06 8F                  CALL A813h
190D  E8 BF 8F                  CALL A8CFh
1910  E8 69 76                  CALL 8F7Ch
1913  E8 9C 8B                  CALL A4B2h
1916  E8 9E 8F                  CALL A8B7h
1919  27 20 31 37 2E 20 44 65...  db  "' 17. Default DOS Program to Execute .  "
1941  BF DC 2D                  MOV  DI, 2DDCh
1944  0E                        PUSH CS
1945  E8 DE 77                  CALL 9126h
1948  B8 00 00                  MOV  AX, 0000h
194B  E8 32 8F                  CALL A880h
194E  E8 7E 8F                  CALL A8CFh
1951  E8 28 76                  CALL 8F7Ch
1954  E8 5B 8B                  CALL A4B2h
1957  E8 5D 8F                  CALL A8B7h
195A  27 58 31 38 2E 20 53 65...  db  "'X18. Set TNC's Date and Time ........  "
1982  BF 2D 2E                  MOV  DI, 2E2Dh
1985  0E                        PUSH CS
1986  E8 9D 77                  CALL 9126h
1989  B8 00 00                  MOV  AX, 0000h
198C  E8 F1 8E                  CALL A880h
198F  E8 3D 8F                  CALL A8CFh
1992  E8 E7 75                  CALL 8F7Ch
1995  E8 1A 8B                  CALL A4B2h
1998  E8 1C 8F                  CALL A8B7h
199B  27 58 31 39 2E 20 44 72...  db  "'X19. Drive/Path to PackCom's Overlays  "
19C3  BF 31 2E                  MOV  DI, 2E31h
19C6  0E                        PUSH CS
19C7  E8 5C 77                  CALL 9126h
19CA  B8 00 00                  MOV  AX, 0000h
19CD  E8 B0 8E                  CALL A880h
19D0  E8 FC 8E                  CALL A8CFh
19D3  E8 A6 75                  CALL 8F7Ch
19D6  E8 D9 8A                  CALL A4B2h
19D9  E8 DB 8E                  CALL A8B7h
19DC  27 20 32 30 2E 20 53 77...  db  "' 20. Switch Stream Char used ........  "
1A04  BF 82 2E                  MOV  DI, 2E82h
1A07  0E                        PUSH CS
1A08  E8 1B 77                  CALL 9126h
1A0B  B8 00 00                  MOV  AX, 0000h
1A0E  E8 6F 8E                  CALL A880h
1A11  E8 BB 8E                  CALL A8CFh
1A14  E8 65 75                  CALL 8F7Ch
1A17  E8 98 8A                  CALL A4B2h
1A1A  E8 9A 8E                  CALL A8B7h
1A1D  27 20 32 31 2E 20 43 61...  db  "' 21. Carrier Detect TRUE if Connected? "
1A45  BF 84 2E                  MOV  DI, 2E84h
1A48  0E                        PUSH CS
1A49  E8 DA 76                  CALL 9126h
1A4C  B8 00 00                  MOV  AX, 0000h
1A4F  E8 2E 8E                  CALL A880h
1A52  E8 7A 8E                  CALL A8CFh
1A55  E8 24 75                  CALL 8F7Ch
1A58  E8 57 8A                  CALL A4B2h
1A5B  E8 59 8E                  CALL A8B7h
1A5E  27 20 32 32 2E 20 42 52...  db  "' 22. BREAK puts TNC into CMD mode? ... "
1A86  BF 88 2E                  MOV  DI, 2E88h
1A89  0E                        PUSH CS
1A8A  E8 99 76                  CALL 9126h
1A8D  B8 00 00                  MOV  AX, 0000h
1A90  E8 ED 8D                  CALL A880h
1A93  E8 39 8E                  CALL A8CFh
1A96  E8 E3 74                  CALL 8F7Ch
1A99  B8 01 00                  MOV  AX, 0001h
1A9C  50                        PUSH AX
1A9D  B8 14 00                  MOV  AX, 0014h
1AA0  E8 61 72                  CALL 8D04h
1AA3  E8 0C 8A                  CALL A4B2h
1AA6  E8 0E 8E                  CALL A8B7h
1AA9  2F 20 45 6E 74 65 72 20...  db  "/ Enter the number to change or RETURN to exit: "
1AD9  E8 A0 74                  CALL 8F7Ch
1ADC  B8 30 00                  MOV  AX, 0030h
1ADF  50                        PUSH AX
1AE0  B8 13 00                  MOV  AX, 0013h
1AE3  E8 1E 72                  CALL 8D04h
1AE6  E8 1B 67                  CALL 8204h
1AE9  E8 F9 89                  CALL A4E5h
1AEC  8D 7E F1                  LEA  DI, [BP-0Fh]
1AEF  16                        PUSH SS
1AF0  B1 0A                     MOV  CL, 0Ah
1AF2  E8 18 8C                  CALL A70Dh
1AF5  E8 84 74                  CALL 8F7Ch
1AF8  4C                        DEC  SP
1AF9  4C                        DEC  SP
1AFA  8D 7E F1                  LEA  DI, [BP-0Fh]
1AFD  16                        PUSH SS
1AFE  E8 25 76                  CALL 9126h
1B01  B8 01 20                  MOV  AX, 2001h
1B04  50                        PUSH AX
1B05  E8 4F 77                  CALL 9257h
1B08  B1 FF                     MOV  CL, FFh
1B0A  E8 8A 76                  CALL 9197h
1B0D  E8 5B 94                  CALL AF6Bh
1B10  89 46 FC                  MOV  [BP-04h], AX
1B13  8B 46 FC                  MOV  AX, [BP-04h]
1B16  50                        PUSH AX
1B17  E8 3C 79                  CALL 9456h
1B1A  B8 0E 00                  MOV  AX, 000Eh
1B1D  50                        PUSH AX
1B1E  B8 16 00                  MOV  AX, 0016h
1B21  E8 4B 79                  CALL 946Fh
1B24  E8 14 7A                  CALL 953Bh
1B27  75 03                     JNZ  1B2Ch
1B29  E9 19 00                  JMP  1B45h
1B2C  B8 01 00                  MOV  AX, 0001h
1B2F  B9 00 00                  MOV  CX, 0000h
1B32  BA 01 00                  MOV  DX, 0001h
1B35  E8 E5 73                  CALL 8F1Dh
1B38  88 46 F0                  MOV  [BP-10h], AL
1B3B  8B 46 FC                  MOV  AX, [BP-04h]
1B3E  50                        PUSH AX
1B3F  E8 79 F4                  CALL 0FBBh
1B42  E9 06 00                  JMP  1B4Bh
1B45  B8 00 00                  MOV  AX, 0000h
1B48  89 46 FC                  MOV  [BP-04h], AX
1B4B  8B 46 FC                  MOV  AX, [BP-04h]
1B4E  3D 00 00                  CMP  AX, 0000h
1B51  74 03                     JZ   1B56h
1B53  E9 86 FF                  JMP  1ADCh
1B56  8B 46 FC                  MOV  AX, [BP-04h]
1B59  3D 00 00                  CMP  AX, 0000h
1B5C  74 03                     JZ   1B61h
1B5E  E9 A6 FB                  JMP  1707h
1B61  8A 46 F0                  MOV  AL, [BP-10h]
1B64  32 E4                     XOR  AH, AH
1B66  0B C0                     OR   AX, AX
1B68  75 03                     JNZ  1B6Dh
1B6A  E9 8F 00                  JMP  1BFCh
1B6D  BF C1 2D                  MOV  DI, 2DC1h
1B70  0E                        PUSH CS
1B71  57                        PUSH DI
1B72  E8 74 9E                  CALL B9E9h
1B75  BF D2 2D                  MOV  DI, 2DD2h
1B78  0E                        PUSH CS
1B79  57                        PUSH DI
1B7A  E8 6C 9E                  CALL B9E9h
1B7D  BF D6 2D                  MOV  DI, 2DD6h
1B80  0E                        PUSH CS
1B81  57                        PUSH DI
1B82  E8 64 9E                  CALL B9E9h
1B85  BF CA 2D                  MOV  DI, 2DCAh
1B88  0E                        PUSH CS
1B89  57                        PUSH DI
1B8A  E8 5C 9E                  CALL B9E9h
1B8D  BF DC 2D                  MOV  DI, 2DDCh
1B90  0E                        PUSH CS
1B91  57                        PUSH DI
1B92  E8 54 9E                  CALL B9E9h
1B95  BF 2D 2E                  MOV  DI, 2E2Dh
1B98  0E                        PUSH CS
1B99  57                        PUSH DI
1B9A  E8 4C 9E                  CALL B9E9h
1B9D  BF 31 2E                  MOV  DI, 2E31h
1BA0  0E                        PUSH CS
1BA1  57                        PUSH DI
1BA2  E8 44 9E                  CALL B9E9h
1BA5  BF 84 2E                  MOV  DI, 2E84h
1BA8  0E                        PUSH CS
1BA9  57                        PUSH DI
1BAA  E8 3C 9E                  CALL B9E9h
1BAD  BF 88 2E                  MOV  DI, 2E88h
1BB0  0E                        PUSH CS
1BB1  57                        PUSH DI
1BB2  E8 34 9E                  CALL B9E9h
1BB5  BF 50 55                  MOV  DI, 5550h
1BB8  1E                        PUSH DS
1BB9  57                        PUSH DI
1BBA  BF E8 57                  MOV  DI, 57E8h
1BBD  1E                        PUSH DS
1BBE  E8 65 75                  CALL 9126h
1BC1  E8 7B 75                  CALL 913Fh
1BC4  0B 50 41                  OR   DX, [BX+SI+41h]
1BD0  E8 84 76                  CALL 9257h
1BD3  E8 59 86                  CALL A22Fh
1BD6  E8 A3 73                  CALL 8F7Ch
1BD9  E8 7A E6                  CALL 0256h
1BDC  BF 50 55                  MOV  DI, 5550h
1BDF  1E                        PUSH DS
1BE0  E8 CA 87                  CALL A3ADh
1BE3  E8 96 73                  CALL 8F7Ch
1BE6  2E                        CS:
1BE7  A1 8D 2E                  MOV  AX, [2E8Dh]
1BEA  E8 28 67                  CALL 8315h
1BED  2E                        CS:
1BEE  A1 8F 2E                  MOV  AX, [2E8Fh]
1BF1  E8 35 67                  CALL 8329h
1BF4  2E                        CS:
1BF5  A1 97 2E                  MOV  AX, [2E97h]
1BF8  50                        PUSH AX
1BF9  E8 AF 9E                  CALL BAABh
1BFC  E8 C5 A3                  CALL BFC4h
1BFF  E9 00 00                  JMP  1C02h
1C02  8B E5                     MOV  SP, BP
1C04  5D                        POP  BP
1C05  C3                        RET
1C06  00 00                     ADD  [BX+SI], AL
1C08  00 00                     ADD  [BX+SI], AL
1C0A  00 00                     ADD  [BX+SI], AL
1C0C  00 00                     ADD  [BX+SI], AL
1C0E  00 00                     ADD  [BX+SI], AL
1C10  00 00                     ADD  [BX+SI], AL
1C12  00 00                     ADD  [BX+SI], AL
1C14  00 00                     ADD  [BX+SI], AL
1C16  00 00                     ADD  [BX+SI], AL
1C18  00 00                     ADD  [BX+SI], AL
1C1A  00 00                     ADD  [BX+SI], AL
1C1C  00 00                     ADD  [BX+SI], AL
1C1E  00 00                     ADD  [BX+SI], AL
1C20  00 00                     ADD  [BX+SI], AL
1C22  00 00                     ADD  [BX+SI], AL
1C24  00 00                     ADD  [BX+SI], AL
1C26  00 00                     ADD  [BX+SI], AL
1C28  00 00                     ADD  [BX+SI], AL
1C2A  00 00                     ADD  [BX+SI], AL
1C2C  00 00                     ADD  [BX+SI], AL
1C2E  00 00                     ADD  [BX+SI], AL
1C30  00 00                     ADD  [BX+SI], AL
1C32  00 00                     ADD  [BX+SI], AL
1C34  00 00                     ADD  [BX+SI], AL
1C36  00 00                     ADD  [BX+SI], AL
1C38  00 00                     ADD  [BX+SI], AL
1C3A  00 00                     ADD  [BX+SI], AL
1C3C  00 00                     ADD  [BX+SI], AL
1C3E  00 00                     ADD  [BX+SI], AL
1C40  00 00                     ADD  [BX+SI], AL
1C42  00 00                     ADD  [BX+SI], AL
1C44  00 00                     ADD  [BX+SI], AL
1C46  00 00                     ADD  [BX+SI], AL
1C48  00 00                     ADD  [BX+SI], AL
1C4A  00 00                     ADD  [BX+SI], AL
1C4C  00 00                     ADD  [BX+SI], AL
1C4E  00 00                     ADD  [BX+SI], AL
1C50  00 00                     ADD  [BX+SI], AL
1C52  00 00                     ADD  [BX+SI], AL
1C54  00 00                     ADD  [BX+SI], AL
1C56  00 00                     ADD  [BX+SI], AL
1C58  00 00                     ADD  [BX+SI], AL
1C5A  00 00                     ADD  [BX+SI], AL
1C5C  00 00                     ADD  [BX+SI], AL
1C5E  00 00                     ADD  [BX+SI], AL
1C60  00 00                     ADD  [BX+SI], AL
1C62  00 00                     ADD  [BX+SI], AL
1C64  00 00                     ADD  [BX+SI], AL
1C66  00 00                     ADD  [BX+SI], AL
1C68  00 00                     ADD  [BX+SI], AL
1C6A  00 00                     ADD  [BX+SI], AL
1C6C  00 00                     ADD  [BX+SI], AL
1C6E  00 00                     ADD  [BX+SI], AL
1C70  00 00                     ADD  [BX+SI], AL
1C72  00 00                     ADD  [BX+SI], AL
1C74  00 00                     ADD  [BX+SI], AL
1C76  00 00                     ADD  [BX+SI], AL
1C78  00 00                     ADD  [BX+SI], AL
1C7A  00 00                     ADD  [BX+SI], AL
1C7C  00 00                     ADD  [BX+SI], AL
1C7E  00 00                     ADD  [BX+SI], AL
1C80  00 00                     ADD  [BX+SI], AL
1C82  00 00                     ADD  [BX+SI], AL
1C84  00 00                     ADD  [BX+SI], AL
1C86  00 00                     ADD  [BX+SI], AL
1C88  00 00                     ADD  [BX+SI], AL
1C8A  00 00                     ADD  [BX+SI], AL
1C8C  00 00                     ADD  [BX+SI], AL
1C8E  00 00                     ADD  [BX+SI], AL
1C90  00 00                     ADD  [BX+SI], AL
1C92  00 00                     ADD  [BX+SI], AL
1C94  00 00                     ADD  [BX+SI], AL
1C96  00 00                     ADD  [BX+SI], AL
1C98  00 00                     ADD  [BX+SI], AL
1C9A  00 00                     ADD  [BX+SI], AL
1C9C  00 00                     ADD  [BX+SI], AL
1C9E  00 00                     ADD  [BX+SI], AL
1CA0  00 00                     ADD  [BX+SI], AL
1CA2  00 00                     ADD  [BX+SI], AL
1CA4  00 00                     ADD  [BX+SI], AL
1CA6  00 00                     ADD  [BX+SI], AL
1CA8  00 00                     ADD  [BX+SI], AL
1CAA  00 00                     ADD  [BX+SI], AL
1CAC  00 00                     ADD  [BX+SI], AL
1CAE  00 00                     ADD  [BX+SI], AL
1CB0  00 00                     ADD  [BX+SI], AL
1CB2  00 00                     ADD  [BX+SI], AL
1CB4  00 00                     ADD  [BX+SI], AL
1CB6  00 00                     ADD  [BX+SI], AL
1CB8  00 00                     ADD  [BX+SI], AL
1CBA  00 00                     ADD  [BX+SI], AL
1CBC  00 00                     ADD  [BX+SI], AL
1CBE  00 00                     ADD  [BX+SI], AL
1CC0  00 00                     ADD  [BX+SI], AL
1CC2  00 00                     ADD  [BX+SI], AL
1CC4  00 00                     ADD  [BX+SI], AL
1CC6  00 00                     ADD  [BX+SI], AL
1CC8  00 00                     ADD  [BX+SI], AL
1CCA  00 00                     ADD  [BX+SI], AL
1CCC  00 00                     ADD  [BX+SI], AL
1CCE  00 00                     ADD  [BX+SI], AL
1CD0  00 00                     ADD  [BX+SI], AL
1CD2  00 00                     ADD  [BX+SI], AL
1CD4  00 00                     ADD  [BX+SI], AL
1CD6  00 00                     ADD  [BX+SI], AL
1CD8  00 00                     ADD  [BX+SI], AL
1CDA  00 00                     ADD  [BX+SI], AL
1CDC  00 00                     ADD  [BX+SI], AL
1CDE  00 00                     ADD  [BX+SI], AL
1CE0  00 00                     ADD  [BX+SI], AL
1CE2  00 00                     ADD  [BX+SI], AL
1CE4  00 00                     ADD  [BX+SI], AL
1CE6  00 00                     ADD  [BX+SI], AL
1CE8  00 00                     ADD  [BX+SI], AL
1CEA  00 00                     ADD  [BX+SI], AL
1CEC  00 00                     ADD  [BX+SI], AL
1CEE  00 00                     ADD  [BX+SI], AL
1CF0  00 00                     ADD  [BX+SI], AL
1CF2  00 00                     ADD  [BX+SI], AL
1CF4  00 00                     ADD  [BX+SI], AL
1CF6  00 00                     ADD  [BX+SI], AL
1CF8  00 00                     ADD  [BX+SI], AL
1CFA  00 00                     ADD  [BX+SI], AL
1CFC  00 00                     ADD  [BX+SI], AL
1CFE  00 00                     ADD  [BX+SI], AL
1D00  E8 23 81                  CALL 9E26h
1D03  1E                        PUSH DS
1D04  02 AD 8B 55               ADD  CH, [DI+558Bh]
1D08  8B EC                     MOV  BP, SP
1D0A  55                        PUSH BP
1D0B  E9 00 00                  JMP  1D0Eh
1D0E  4C                        DEC  SP
1D0F  BF C1 2D                  MOV  DI, 2DC1h
1D12  0E                        PUSH CS
1D13  E8 10 86                  CALL A326h
1D16  E8 26 86                  CALL A33Fh
1D19  04 43                     ADD  AL, 43h
1D1E  E8 B3 86                  CALL A3D4h
1D21  75 03                     JNZ  1D26h
1D23  E9 39 00                  JMP  1D5Fh
1D26  B8 F8 02                  MOV  AX, 02F8h
1D29  A3 8A 02                  MOV  [028Ah], AX
1D2C  B8 F7 00                  MOV  AX, 00F7h
1D2F  B9 00 00                  MOV  CX, 0000h
1D32  BA FF 00                  MOV  DX, 00FFh
1D35  E8 E5 83                  CALL A11Dh
1D38  A2 80 02                  MOV  [0280h], AL
1D3B  B8 08 00                  MOV  AX, 0008h
1D3E  B9 00 00                  MOV  CX, 0000h
1D41  BA FF 00                  MOV  DX, 00FFh
1D44  E8 D6 83                  CALL A11Dh
1D47  A2 81 02                  MOV  [0281h], AL
1D4A  B8 2C 00                  MOV  AX, 002Ch
1D4D  A3 82 02                  MOV  [0282h], AX
1D50  B8 2E 00                  MOV  AX, 002Eh
1D53  A3 84 02                  MOV  [0284h], AX
1D56  B8 0B 25                  MOV  AX, 250Bh
1D59  A3 45 58                  MOV  [5845h], AX
1D5C  E9 36 00                  JMP  1D95h
1D5F  B8 F8 03                  MOV  AX, 03F8h
1D62  A3 8A 02                  MOV  [028Ah], AX
1D65  B8 EF 00                  MOV  AX, 00EFh
1D68  B9 00 00                  MOV  CX, 0000h
1D6B  BA FF 00                  MOV  DX, 00FFh
1D6E  E8 AC 83                  CALL A11Dh
1D71  A2 80 02                  MOV  [0280h], AL
1D74  B8 10 00                  MOV  AX, 0010h
1D77  B9 00 00                  MOV  CX, 0000h
1D7A  BA FF 00                  MOV  DX, 00FFh
1D7D  E8 9D 83                  CALL A11Dh
1D80  A2 81 02                  MOV  [0281h], AL
1D83  B8 30 00                  MOV  AX, 0030h
1D86  A3 82 02                  MOV  [0282h], AX
1D89  B8 32 00                  MOV  AX, 0032h
1D8C  A3 84 02                  MOV  [0284h], AX
1D8F  B8 0C 25                  MOV  AX, 250Ch
1D92  A3 45 58                  MOV  [5845h], AX
1D95  8C C8                     MOV  AX, CS
1D97  A3 53 58                  MOV  [5853h], AX
1D9A  B8 8C 55                  MOV  AX, 558Ch
1D9D  A3 4B 58                  MOV  [584Bh], AX
1DA0  BF 45 58                  MOV  DI, 5845h
1DA3  1E                        PUSH DS
1DA4  E8 1A 83                  CALL A0C1h
1DA7  CD 21                     INT  21h
1DA9  E8 3D 83                  CALL A0E9h
1DAC  A1 8A 02                  MOV  AX, [028Ah]
1DAF  05 01 00                  ADD  AX, 0001h
1DB2  A3 8C 02                  MOV  [028Ch], AX
1DB5  A1 8A 02                  MOV  AX, [028Ah]
1DB8  05 02 00                  ADD  AX, 0002h
1DBB  A3 8E 02                  MOV  [028Eh], AX
1DBE  A1 8A 02                  MOV  AX, [028Ah]
1DC1  05 03 00                  ADD  AX, 0003h
1DC4  A3 97 02                  MOV  [0297h], AX
1DC7  A1 8A 02                  MOV  AX, [028Ah]
1DCA  05 04 00                  ADD  AX, 0004h
1DCD  A3 99 02                  MOV  [0299h], AX
1DD0  A1 8A 02                  MOV  AX, [028Ah]
1DD3  05 05 00                  ADD  AX, 0005h
1DD6  A3 9C 02                  MOV  [029Ch], AX
1DD9  A1 8A 02                  MOV  AX, [028Ah]
1DDC  05 06 00                  ADD  AX, 0006h
1DDF  A3 9F 02                  MOV  [029Fh], AX
1DE2  B8 00 00                  MOV  AX, 0000h
1DE5  B9 00 00                  MOV  CX, 0000h
1DE8  BA 01 00                  MOV  DX, 0001h
1DEB  E8 2F 83                  CALL A11Dh
1DEE  A2 7C 02                  MOV  [027Ch], AL
1DF1  B8 21 00                  MOV  AX, 0021h
1DF4  50                        PUSH AX
1DF5  B8 21 00                  MOV  AX, 0021h
1DF8  92                        XCHG AX, DX
1DF9  EC                        IN   AL, DX
1DFA  32 E4                     XOR  AH, AH
1DFC  50                        PUSH AX
1DFD  A0 80 02                  MOV  AL, [0280h]
1E00  32 E4                     XOR  AH, AH
1E02  59                        POP  CX
1E03  23 C1                     AND  AX, CX
1E05  5A                        POP  DX
1E06  EE                        OUT  DX, AL
1E07  B8 C8 00                  MOV  AX, 00C8h
1E0A  E8 60 75                  CALL 936Dh
1E0D  A1 97 02                  MOV  AX, [0297h]
1E10  50                        PUSH AX
1E11  A1 97 02                  MOV  AX, [0297h]
1E14  92                        XCHG AX, DX
1E15  EC                        IN   AL, DX
1E16  32 E4                     XOR  AH, AH
1E18  25 7F 00                  AND  AX, 007Fh
1E1B  5A                        POP  DX
1E1C  EE                        OUT  DX, AL
1E1D  B8 C8 00                  MOV  AX, 00C8h
1E20  E8 4A 75                  CALL 936Dh
1E23  A1 99 02                  MOV  AX, [0299h]
1E26  50                        PUSH AX
1E27  2E                        CS:
1E28  A1 B3 2D                  MOV  AX, [2DB3h]
1E2B  5A                        POP  DX
1E2C  EE                        OUT  DX, AL
1E2D  B8 01 00                  MOV  AX, 0001h
1E30  B9 00 00                  MOV  CX, 0000h
1E33  BA 01 00                  MOV  DX, 0001h
1E36  E8 E4 82                  CALL A11Dh
1E39  A2 7D 02                  MOV  [027Dh], AL
1E3C  B8 C8 00                  MOV  AX, 00C8h
1E3F  E8 2B 75                  CALL 936Dh
1E42  A1 8C 02                  MOV  AX, [028Ch]
1E45  50                        PUSH AX
1E46  2E                        CS:
1E47  A1 AF 2D                  MOV  AX, [2DAFh]
1E4A  5A                        POP  DX
1E4B  EE                        OUT  DX, AL
1E4C  B8 C8 00                  MOV  AX, 00C8h
1E4F  E8 1B 75                  CALL 936Dh
1E52  A1 9F 02                  MOV  AX, [029Fh]
1E55  92                        XCHG AX, DX
1E56  EC                        IN   AL, DX
1E57  32 E4                     XOR  AH, AH
1E59  B9 00 00                  MOV  CX, 0000h
1E5C  BA FF 00                  MOV  DX, 00FFh
1E5F  E8 BB 82                  CALL A11Dh
1E62  A2 9E 02                  MOV  [029Eh], AL
1E65  A0 9E 02                  MOV  AL, [029Eh]
1E68  32 E4                     XOR  AH, AH
1E6A  25 10 00                  AND  AX, 0010h
1E6D  3D 00 00                  CMP  AX, 0000h
1E70  74 03                     JZ   1E75h
1E72  E9 12 00                  JMP  1E87h
1E75  B8 00 00                  MOV  AX, 0000h
1E78  B9 00 00                  MOV  CX, 0000h
1E7B  BA 01 00                  MOV  DX, 0001h
1E7E  E8 9C 82                  CALL A11Dh
1E81  A2 7E 02                  MOV  [027Eh], AL
1E84  E9 0F 00                  JMP  1E96h
1E87  B8 01 00                  MOV  AX, 0001h
1E8A  B9 00 00                  MOV  CX, 0000h
1E8D  BA 01 00                  MOV  DX, 0001h
1E90  E8 8A 82                  CALL A11Dh
1E93  A2 7E 02                  MOV  [027Eh], AL
1E96  A0 9E 02                  MOV  AL, [029Eh]
1E99  32 E4                     XOR  AH, AH
1E9B  25 80 00                  AND  AX, 0080h
1E9E  3D 00 00                  CMP  AX, 0000h
1EA1  74 03                     JZ   1EA6h
1EA3  E9 39 00                  JMP  1EDFh
1EA6  BF 84 2E                  MOV  DI, 2E84h
1EA9  0E                        PUSH CS
1EAA  E8 79 84                  CALL A326h
1EAD  E8 8F 84                  CALL A33Fh
1EB0  02 4E 4F                  ADD  CL, [BP+4Fh]
1EB3  E8 1E 85                  CALL A3D4h
1EB6  75 03                     JNZ  1EBBh
1EB8  E9 12 00                  JMP  1ECDh
1EBB  B8 01 00                  MOV  AX, 0001h
1EBE  B9 00 00                  MOV  CX, 0000h
1EC1  BA 01 00                  MOV  DX, 0001h
1EC4  E8 56 82                  CALL A11Dh
1EC7  A2 7F 02                  MOV  [027Fh], AL
1ECA  E9 0F 00                  JMP  1EDCh
1ECD  B8 00 00                  MOV  AX, 0000h
1ED0  B9 00 00                  MOV  CX, 0000h
1ED3  BA 01 00                  MOV  DX, 0001h
1ED6  E8 44 82                  CALL A11Dh
1ED9  A2 7F 02                  MOV  [027Fh], AL
1EDC  E9 0F 00                  JMP  1EEEh
1EDF  B8 01 00                  MOV  AX, 0001h
1EE2  B9 00 00                  MOV  CX, 0000h
1EE5  BA 01 00                  MOV  DX, 0001h
1EE8  E8 32 82                  CALL A11Dh
1EEB  A2 7F 02                  MOV  [027Fh], AL
1EEE  B8 C8 00                  MOV  AX, 00C8h
1EF1  E8 79 74                  CALL 936Dh
1EF4  A1 8A 02                  MOV  AX, [028Ah]
1EF7  92                        XCHG AX, DX
1EF8  EC                        IN   AL, DX
1EF9  32 E4                     XOR  AH, AH
1EFB  B9 00 00                  MOV  CX, 0000h
1EFE  BA FF 00                  MOV  DX, 00FFh
1F01  E8 19 82                  CALL A11Dh
1F04  88 46 FD                  MOV  [BP-03h], AL
1F07  A1 9C 02                  MOV  AX, [029Ch]
1F0A  92                        XCHG AX, DX
1F0B  EC                        IN   AL, DX
1F0C  32 E4                     XOR  AH, AH
1F0E  B9 00 00                  MOV  CX, 0000h
1F11  BA FF 00                  MOV  DX, 00FFh
1F14  E8 06 82                  CALL A11Dh
1F17  88 46 FD                  MOV  [BP-03h], AL
1F1A  E9 00 00                  JMP  1F1Dh
1F1D  8B E5                     MOV  SP, BP
1F1F  5D                        POP  BP
1F20  C3                        RET
1F21  00 00                     ADD  [BX+SI], AL
1F23  00 00                     ADD  [BX+SI], AL
1F25  00 00                     ADD  [BX+SI], AL
1F27  00 00                     ADD  [BX+SI], AL
1F29  00 00                     ADD  [BX+SI], AL
1F2B  00 00                     ADD  [BX+SI], AL
1F2D  00 00                     ADD  [BX+SI], AL
1F2F  00 00                     ADD  [BX+SI], AL
1F31  00 00                     ADD  [BX+SI], AL
1F33  00 00                     ADD  [BX+SI], AL
1F35  00 00                     ADD  [BX+SI], AL
1F37  00 00                     ADD  [BX+SI], AL
1F39  00 00                     ADD  [BX+SI], AL
1F3B  00 00                     ADD  [BX+SI], AL
1F3D  00 00                     ADD  [BX+SI], AL
1F3F  00 00                     ADD  [BX+SI], AL
1F41  00 00                     ADD  [BX+SI], AL
1F43  00 00                     ADD  [BX+SI], AL
1F45  00 00                     ADD  [BX+SI], AL
1F47  00 00                     ADD  [BX+SI], AL
1F49  00 00                     ADD  [BX+SI], AL
1F4B  00 00                     ADD  [BX+SI], AL
1F4D  00 00                     ADD  [BX+SI], AL
1F4F  00 00                     ADD  [BX+SI], AL
1F51  00 00                     ADD  [BX+SI], AL
1F53  00 00                     ADD  [BX+SI], AL
1F55  00 00                     ADD  [BX+SI], AL
1F57  00 00                     ADD  [BX+SI], AL
1F59  00 00                     ADD  [BX+SI], AL
1F5B  00 00                     ADD  [BX+SI], AL
1F5D  00 00                     ADD  [BX+SI], AL
1F5F  00 00                     ADD  [BX+SI], AL
1F61  00 00                     ADD  [BX+SI], AL
1F63  00 00                     ADD  [BX+SI], AL
1F65  00 00                     ADD  [BX+SI], AL
1F67  00 00                     ADD  [BX+SI], AL
1F69  00 00                     ADD  [BX+SI], AL
1F6B  00 00                     ADD  [BX+SI], AL
1F6D  00 00                     ADD  [BX+SI], AL
1F6F  00 00                     ADD  [BX+SI], AL
1F71  00 00                     ADD  [BX+SI], AL
1F73  00 00                     ADD  [BX+SI], AL
1F75  00 00                     ADD  [BX+SI], AL
1F77  00 00                     ADD  [BX+SI], AL
1F79  00 00                     ADD  [BX+SI], AL
1F7B  00 00                     ADD  [BX+SI], AL
1F7D  00 00                     ADD  [BX+SI], AL
1F7F  00 00                     ADD  [BX+SI], AL
1F81  00 00                     ADD  [BX+SI], AL
1F83  00 00                     ADD  [BX+SI], AL
1F85  00 00                     ADD  [BX+SI], AL
1F87  00 00                     ADD  [BX+SI], AL
1F89  00 00                     ADD  [BX+SI], AL
1F8B  00 00                     ADD  [BX+SI], AL
1F8D  00 00                     ADD  [BX+SI], AL
1F8F  00 00                     ADD  [BX+SI], AL
1F91  00 00                     ADD  [BX+SI], AL
1F93  00 00                     ADD  [BX+SI], AL
1F95  00 00                     ADD  [BX+SI], AL
1F97  00 00                     ADD  [BX+SI], AL
1F99  00 00                     ADD  [BX+SI], AL
1F9B  00 00                     ADD  [BX+SI], AL
1F9D  00 00                     ADD  [BX+SI], AL
1F9F  00 00                     ADD  [BX+SI], AL
1FA1  00 00                     ADD  [BX+SI], AL
1FA3  00 00                     ADD  [BX+SI], AL
1FA5  00 00                     ADD  [BX+SI], AL
1FA7  00 00                     ADD  [BX+SI], AL
1FA9  00 00                     ADD  [BX+SI], AL
1FAB  00 00                     ADD  [BX+SI], AL
1FAD  00 00                     ADD  [BX+SI], AL
1FAF  00 00                     ADD  [BX+SI], AL
1FB1  00 00                     ADD  [BX+SI], AL
1FB3  00 00                     ADD  [BX+SI], AL
1FB5  00 00                     ADD  [BX+SI], AL
1FB7  00 00                     ADD  [BX+SI], AL
1FB9  00 00                     ADD  [BX+SI], AL
1FBB  00 00                     ADD  [BX+SI], AL
1FBD  00 00                     ADD  [BX+SI], AL
1FBF  00 00                     ADD  [BX+SI], AL
1FC1  00 00                     ADD  [BX+SI], AL
1FC3  00 00                     ADD  [BX+SI], AL
1FC5  00 00                     ADD  [BX+SI], AL
1FC7  00 00                     ADD  [BX+SI], AL
1FC9  00 00                     ADD  [BX+SI], AL
1FCB  00 00                     ADD  [BX+SI], AL
1FCD  00 00                     ADD  [BX+SI], AL
1FCF  00 00                     ADD  [BX+SI], AL
1FD1  00 00                     ADD  [BX+SI], AL
1FD3  00 00                     ADD  [BX+SI], AL
1FD5  00 00                     ADD  [BX+SI], AL
1FD7  00 00                     ADD  [BX+SI], AL
1FD9  00 00                     ADD  [BX+SI], AL
1FDB  00 00                     ADD  [BX+SI], AL
1FDD  00 00                     ADD  [BX+SI], AL
1FDF  00 00                     ADD  [BX+SI], AL
1FE1  00 00                     ADD  [BX+SI], AL
1FE3  00 00                     ADD  [BX+SI], AL
1FE5  00 00                     ADD  [BX+SI], AL
1FE7  00 00                     ADD  [BX+SI], AL
1FE9  00 00                     ADD  [BX+SI], AL
1FEB  00 00                     ADD  [BX+SI], AL
1FED  00 00                     ADD  [BX+SI], AL
1FEF  00 00                     ADD  [BX+SI], AL
1FF1  00 00                     ADD  [BX+SI], AL
1FF3  00 00                     ADD  [BX+SI], AL
1FF5  00 00                     ADD  [BX+SI], AL
1FF7  00 00                     ADD  [BX+SI], AL
1FF9  00 00                     ADD  [BX+SI], AL
1FFB  00 00                     ADD  [BX+SI], AL
1FFD  00 00                     ADD  [BX+SI], AL
1FFF  00 E8                     ADD  AL, CH
2001  23 81 9D 01               AND  AX, [BX+DI+019Dh]
2005  AD                        LODSW
2006  8B 55 8B                  MOV  DX, [DI-75h]
2009  EC                        IN   AL, DX
200A  55                        PUSH BP
200B  E9 00 00                  JMP  200Eh
200E  83 EC 03                  SUB  SP, 03h
2011  8B 46 0A                  MOV  AX, [BP+0Ah]
2014  3D 2C 01                  CMP  AX, 012Ch
2017  74 03                     JZ   201Ch
2019  E9 16 00                  JMP  2032h
201C  B8 02 00                  MOV  AX, 0002h
201F  89 46 0A                  MOV  [BP+0Ah], AX
2022  2E                        CS:
2023  A1 A7 2D                  MOV  AX, [2DA7h]
2026  B9 04 00                  MOV  CX, 0004h
2029  99                        CWD
202A  F7 F9                     IDIV  CX
202C  A3 A1 02                  MOV  [02A1h], AX
202F  E9 91 00                  JMP  20C3h
2032  3D B0 04                  CMP  AX, 04B0h
2035  74 03                     JZ   203Ah
2037  E9 16 00                  JMP  2050h
203A  B8 04 00                  MOV  AX, 0004h
203D  89 46 0A                  MOV  [BP+0Ah], AX
2040  2E                        CS:
2041  A1 A7 2D                  MOV  AX, [2DA7h]
2044  B9 0B 00                  MOV  CX, 000Bh
2047  99                        CWD
2048  F7 F9                     IDIV  CX
204A  A3 A1 02                  MOV  [02A1h], AX
204D  E9 73 00                  JMP  20C3h
2050  3D 60 09                  CMP  AX, 0960h
2053  74 03                     JZ   2058h
2055  E9 16 00                  JMP  206Eh
2058  B8 05 00                  MOV  AX, 0005h
205B  89 46 0A                  MOV  [BP+0Ah], AX
205E  2E                        CS:
205F  A1 A7 2D                  MOV  AX, [2DA7h]
2062  B9 16 00                  MOV  CX, 0016h
2065  99                        CWD
2066  F7 F9                     IDIV  CX
2068  A3 A1 02                  MOV  [02A1h], AX
206B  E9 55 00                  JMP  20C3h
206E  3D C0 12                  CMP  AX, 12C0h
2071  74 03                     JZ   2076h
2073  E9 19 00                  JMP  208Fh
2076  B8 06 00                  MOV  AX, 0006h
2079  89 46 0A                  MOV  [BP+0Ah], AX
207C  2E                        CS:
207D  A1 A7 2D                  MOV  AX, [2DA7h]
2080  B9 2C 00                  MOV  CX, 002Ch
2083  99                        CWD
2084  F7 F9                     IDIV  CX
2086  05 01 00                  ADD  AX, 0001h
2089  A3 A1 02                  MOV  [02A1h], AX
208C  E9 34 00                  JMP  20C3h
208F  3D 80 25                  CMP  AX, 2580h
2092  74 03                     JZ   2097h
2094  E9 19 00                  JMP  20B0h
2097  B8 07 00                  MOV  AX, 0007h
209A  89 46 0A                  MOV  [BP+0Ah], AX
209D  2E                        CS:
209E  A1 A7 2D                  MOV  AX, [2DA7h]
20A1  B9 58 00                  MOV  CX, 0058h
20A4  99                        CWD
20A5  F7 F9                     IDIV  CX
20A7  05 01 00                  ADD  AX, 0001h
20AA  A3 A1 02                  MOV  [02A1h], AX
20AD  E9 13 00                  JMP  20C3h
20B0  B8 04 00                  MOV  AX, 0004h
20B3  89 46 0A                  MOV  [BP+0Ah], AX
20B6  2E                        CS:
20B7  A1 A7 2D                  MOV  AX, [2DA7h]
20BA  B9 0B 00                  MOV  CX, 000Bh
20BD  99                        CWD
20BE  F7 F9                     IDIV  CX
20C0  A3 A1 02                  MOV  [02A1h], AX
20C3  8B 46 08                  MOV  AX, [BP+08h]
20C6  3D 02 00                  CMP  AX, 0002h
20C9  74 03                     JZ   20CEh
20CB  E9 09 00                  JMP  20D7h
20CE  B8 01 00                  MOV  AX, 0001h
20D1  89 46 08                  MOV  [BP+08h], AX
20D4  E9 06 00                  JMP  20DDh
20D7  B8 00 00                  MOV  AX, 0000h
20DA  89 46 08                  MOV  [BP+08h], AX
20DD  8B 46 04                  MOV  AX, [BP+04h]
20E0  B9 00 00                  MOV  CX, 0000h
20E3  BA FF 00                  MOV  DX, 00FFh
20E6  E8 34 83                  CALL A41Dh
20E9  88 46 FB                  MOV  [BP-05h], AL
20EC  8B 46 06                  MOV  AX, [BP+06h]
20EF  3D 07 00                  CMP  AX, 0007h
20F2  74 03                     JZ   20F7h
20F4  E9 09 00                  JMP  2100h
20F7  B8 02 00                  MOV  AX, 0002h
20FA  89 46 06                  MOV  [BP+06h], AX
20FD  E9 15 00                  JMP  2115h
2100  B8 03 00                  MOV  AX, 0003h
2103  89 46 06                  MOV  [BP+06h], AX
2106  B8 00 00                  MOV  AX, 0000h
2109  B9 00 00                  MOV  CX, 0000h
210C  BA FF 00                  MOV  DX, 00FFh
210F  E8 0B 83                  CALL A41Dh
2112  88 46 FB                  MOV  [BP-05h], AL
2115  8B 46 0A                  MOV  AX, [BP+0Ah]
2118  B9 05 00                  MOV  CX, 0005h
211B  D3 E0                     SHL  AX, CL
211D  50                        PUSH AX
211E  8B 46 08                  MOV  AX, [BP+08h]
2121  B9 02 00                  MOV  CX, 0002h
2124  D3 E0                     SHL  AX, CL
2126  59                        POP  CX
2127  03 C1                     ADD  AX, CX
2129  03 46 06                  ADD  AX, [BP+06h]
212C  89 46 FC                  MOV  [BP-04h], AX
212F  8A 46 FB                  MOV  AL, [BP-05h]
2132  32 E4                     XOR  AH, AH
2134  3D 01 00                  CMP  AX, 0001h
2137  74 03                     JZ   213Ch
2139  E9 0C 00                  JMP  2148h
213C  8B 46 FC                  MOV  AX, [BP-04h]
213F  05 18 00                  ADD  AX, 0018h
2142  89 46 FC                  MOV  [BP-04h], AX
2145  E9 11 00                  JMP  2159h
2148  3D 02 00                  CMP  AX, 0002h
214B  74 03                     JZ   2150h
214D  E9 09 00                  JMP  2159h
2150  8B 46 FC                  MOV  AX, [BP-04h]
2153  05 08 00                  ADD  AX, 0008h
2156  89 46 FC                  MOV  [BP-04h], AX
2159  BF C1 2D                  MOV  DI, 2DC1h
215C  0E                        PUSH CS
215D  E8 C6 84                  CALL A626h
2160  E8 DC 84                  CALL A63Fh
2163  04 43                     ADD  AL, 43h
2168  E8 69 85                  CALL A6D4h
216B  75 03                     JNZ  2170h
216D  E9 09 00                  JMP  2179h
2170  B8 01 00                  MOV  AX, 0001h
2173  A3 4B 58                  MOV  [584Bh], AX
2176  E9 06 00                  JMP  217Fh
2179  B8 00 00                  MOV  AX, 0000h
217C  A3 4B 58                  MOV  [584Bh], AX
217F  8B 46 FC                  MOV  AX, [BP-04h]
2182  A3 45 58                  MOV  [5845h], AX
2185  B8 00 00                  MOV  AX, 0000h
2188  A3 57 58                  MOV  [5857h], AX
218B  BF 45 58                  MOV  DI, 5845h
218E  1E                        PUSH DS
218F  E8 2F 82                  CALL A3C1h
2192  CD 14                     INT  14h
2194  E8 52 82                  CALL A3E9h
2197  E9 00 00                  JMP  219Ah
219A  8B E5                     MOV  SP, BP
219C  5D                        POP  BP
219D  C2 08 00                  RET  0008h
21A0  00 00                     ADD  [BX+SI], AL
21A2  00 00                     ADD  [BX+SI], AL
21A4  00 00                     ADD  [BX+SI], AL
21A6  00 00                     ADD  [BX+SI], AL
21A8  00 00                     ADD  [BX+SI], AL
21AA  00 00                     ADD  [BX+SI], AL
21AC  00 00                     ADD  [BX+SI], AL
21AE  00 00                     ADD  [BX+SI], AL
21B0  00 00                     ADD  [BX+SI], AL
21B2  00 00                     ADD  [BX+SI], AL
21B4  00 00                     ADD  [BX+SI], AL
21B6  00 00                     ADD  [BX+SI], AL
21B8  00 00                     ADD  [BX+SI], AL
21BA  00 00                     ADD  [BX+SI], AL
21BC  00 00                     ADD  [BX+SI], AL
21BE  00 00                     ADD  [BX+SI], AL
21C0  00 00                     ADD  [BX+SI], AL
21C2  00 00                     ADD  [BX+SI], AL
21C4  00 00                     ADD  [BX+SI], AL
21C6  00 00                     ADD  [BX+SI], AL
21C8  00 00                     ADD  [BX+SI], AL
21CA  00 00                     ADD  [BX+SI], AL
21CC  00 00                     ADD  [BX+SI], AL
21CE  00 00                     ADD  [BX+SI], AL
21D0  00 00                     ADD  [BX+SI], AL
21D2  00 00                     ADD  [BX+SI], AL
21D4  00 00                     ADD  [BX+SI], AL
21D6  00 00                     ADD  [BX+SI], AL
21D8  00 00                     ADD  [BX+SI], AL
21DA  00 00                     ADD  [BX+SI], AL
21DC  00 00                     ADD  [BX+SI], AL
21DE  00 00                     ADD  [BX+SI], AL
21E0  00 00                     ADD  [BX+SI], AL
21E2  00 00                     ADD  [BX+SI], AL
21E4  00 00                     ADD  [BX+SI], AL
21E6  00 00                     ADD  [BX+SI], AL
21E8  00 00                     ADD  [BX+SI], AL
21EA  00 00                     ADD  [BX+SI], AL
21EC  00 00                     ADD  [BX+SI], AL
21EE  00 00                     ADD  [BX+SI], AL
21F0  00 00                     ADD  [BX+SI], AL
21F2  00 00                     ADD  [BX+SI], AL
21F4  00 00                     ADD  [BX+SI], AL
21F6  00 00                     ADD  [BX+SI], AL
21F8  00 00                     ADD  [BX+SI], AL
21FA  00 00                     ADD  [BX+SI], AL
21FC  00 00                     ADD  [BX+SI], AL
21FE  00 00                     ADD  [BX+SI], AL
2200  E8 23 81                  CALL A326h
2203  3A 00                     CMP  AL, [BX+SI]
2205  AD                        LODSW
2206  8B 55 8B                  MOV  DX, [DI-75h]
2209  EC                        IN   AL, DX
220A  55                        PUSH BP
220B  E9 00 00                  JMP  220Eh
220E  B8 21 00                  MOV  AX, 0021h
2211  50                        PUSH AX
2212  B8 21 00                  MOV  AX, 0021h
2215  92                        XCHG AX, DX
2216  EC                        IN   AL, DX
2217  32 E4                     XOR  AH, AH
2219  50                        PUSH AX
221A  A0 81 02                  MOV  AL, [0281h]
221D  32 E4                     XOR  AH, AH
221F  59                        POP  CX
2220  0B C1                     OR   AX, CX
2222  5A                        POP  DX
2223  EE                        OUT  DX, AL
2224  A1 8C 02                  MOV  AX, [028Ch]
2227  50                        PUSH AX
2228  B8 00 00                  MOV  AX, 0000h
222B  5A                        POP  DX
222C  EE                        OUT  DX, AL
222D  A1 99 02                  MOV  AX, [0299h]
2230  50                        PUSH AX
2231  B8 00 00                  MOV  AX, 0000h
2234  5A                        POP  DX
2235  EE                        OUT  DX, AL
2236  E9 00 00                  JMP  2239h
2239  8B E5                     MOV  SP, BP
223B  5D                        POP  BP
223C  C3                        RET
223D  00 00                     ADD  [BX+SI], AL
223F  00 00                     ADD  [BX+SI], AL
2241  00 00                     ADD  [BX+SI], AL
2243  00 00                     ADD  [BX+SI], AL
2245  00 00                     ADD  [BX+SI], AL
2247  00 00                     ADD  [BX+SI], AL
2249  00 00                     ADD  [BX+SI], AL
224B  00 00                     ADD  [BX+SI], AL
224D  00 00                     ADD  [BX+SI], AL
224F  00 00                     ADD  [BX+SI], AL
2251  00 00                     ADD  [BX+SI], AL
2253  00 00                     ADD  [BX+SI], AL
2255  00 00                     ADD  [BX+SI], AL
2257  00 00                     ADD  [BX+SI], AL
2259  00 00                     ADD  [BX+SI], AL
225B  00 00                     ADD  [BX+SI], AL
225D  00 00                     ADD  [BX+SI], AL
225F  00 00                     ADD  [BX+SI], AL
2261  00 00                     ADD  [BX+SI], AL
2263  00 00                     ADD  [BX+SI], AL
2265  00 00                     ADD  [BX+SI], AL
2267  00 00                     ADD  [BX+SI], AL
2269  00 00                     ADD  [BX+SI], AL
226B  00 00                     ADD  [BX+SI], AL
226D  00 00                     ADD  [BX+SI], AL
226F  00 00                     ADD  [BX+SI], AL
2271  00 00                     ADD  [BX+SI], AL
2273  00 00                     ADD  [BX+SI], AL
2275  00 00                     ADD  [BX+SI], AL
2277  00 00                     ADD  [BX+SI], AL
2279  00 00                     ADD  [BX+SI], AL
227B  00 00                     ADD  [BX+SI], AL
227D  00 00                     ADD  [BX+SI], AL
227F  00 00                     ADD  [BX+SI], AL
2281  00 00                     ADD  [BX+SI], AL
2283  00 00                     ADD  [BX+SI], AL
2285  00 00                     ADD  [BX+SI], AL
2287  00 00                     ADD  [BX+SI], AL
2289  00 00                     ADD  [BX+SI], AL
228B  00 00                     ADD  [BX+SI], AL
228D  00 00                     ADD  [BX+SI], AL
228F  00 00                     ADD  [BX+SI], AL
2291  00 00                     ADD  [BX+SI], AL
2293  00 00                     ADD  [BX+SI], AL
2295  00 00                     ADD  [BX+SI], AL
2297  00 00                     ADD  [BX+SI], AL
2299  00 00                     ADD  [BX+SI], AL
229B  00 00                     ADD  [BX+SI], AL
229D  00 00                     ADD  [BX+SI], AL
229F  00 00                     ADD  [BX+SI], AL
22A1  00 00                     ADD  [BX+SI], AL
22A3  00 00                     ADD  [BX+SI], AL
22A5  00 00                     ADD  [BX+SI], AL
22A7  00 00                     ADD  [BX+SI], AL
22A9  00 00                     ADD  [BX+SI], AL
22AB  00 00                     ADD  [BX+SI], AL
22AD  00 00                     ADD  [BX+SI], AL
22AF  00 00                     ADD  [BX+SI], AL
22B1  00 00                     ADD  [BX+SI], AL
22B3  00 00                     ADD  [BX+SI], AL
22B5  00 00                     ADD  [BX+SI], AL
22B7  00 00                     ADD  [BX+SI], AL
22B9  00 00                     ADD  [BX+SI], AL
22BB  00 00                     ADD  [BX+SI], AL
22BD  00 00                     ADD  [BX+SI], AL
22BF  00 00                     ADD  [BX+SI], AL
22C1  00 00                     ADD  [BX+SI], AL
22C3  00 00                     ADD  [BX+SI], AL
22C5  00 00                     ADD  [BX+SI], AL
22C7  00 00                     ADD  [BX+SI], AL
22C9  00 00                     ADD  [BX+SI], AL
22CB  00 00                     ADD  [BX+SI], AL
22CD  00 00                     ADD  [BX+SI], AL
22CF  00 00                     ADD  [BX+SI], AL
22D1  00 00                     ADD  [BX+SI], AL
22D3  00 00                     ADD  [BX+SI], AL
22D5  00 00                     ADD  [BX+SI], AL
22D7  00 00                     ADD  [BX+SI], AL
22D9  00 00                     ADD  [BX+SI], AL
22DB  00 00                     ADD  [BX+SI], AL
22DD  00 00                     ADD  [BX+SI], AL
22DF  00 00                     ADD  [BX+SI], AL
22E1  00 00                     ADD  [BX+SI], AL
22E3  00 00                     ADD  [BX+SI], AL
22E5  00 00                     ADD  [BX+SI], AL
22E7  00 00                     ADD  [BX+SI], AL
22E9  00 00                     ADD  [BX+SI], AL
22EB  00 00                     ADD  [BX+SI], AL
22ED  00 00                     ADD  [BX+SI], AL
22EF  00 00                     ADD  [BX+SI], AL
22F1  00 00                     ADD  [BX+SI], AL
22F3  00 00                     ADD  [BX+SI], AL
22F5  00 00                     ADD  [BX+SI], AL
22F7  00 00                     ADD  [BX+SI], AL
22F9  00 00                     ADD  [BX+SI], AL
22FB  00 00                     ADD  [BX+SI], AL
22FD  00 00                     ADD  [BX+SI], AL
22FF  00 E8                     ADD  AL, CH
2301  23 81 37 02               AND  AX, [BX+DI+0237h]
2305  AD                        LODSW
2306  8B 55 8B                  MOV  DX, [DI-75h]
2309  EC                        IN   AL, DX
230A  55                        PUSH BP
230B  E9 00 00                  JMP  230Eh
230E  B8 01 00                  MOV  AX, 0001h
2311  50                        PUSH AX
2312  B8 15 00                  MOV  AX, 0015h
2315  59                        POP  CX
2316  91                        XCHG AX, CX
2317  2B C8                     SUB  CX, AX
2319  7D 03                     JGE  231Eh
231B  E9 2B 00                  JMP  2349h
231E  41                        INC  CX
231F  A3 71 85                  MOV  [8571h], AX
2322  51                        PUSH CX
2323  A1 71 85                  MOV  AX, [8571h]
2326  48                        DEC  AX
2327  B9 2B 00                  MOV  CX, 002Bh
232A  E8 E6 83                  CALL A713h
232D  97                        XCHG AX, DI
232E  B8 00 00                  MOV  AX, 0000h
2331  B9 00 00                  MOV  CX, 0000h
2334  BA FF 00                  MOV  DX, 00FFh
2337  E8 E3 83                  CALL A71Dh
233A  88 85 CE 84               MOV  [DI-7B32h], AL
233E  59                        POP  CX
233F  49                        DEC  CX
2340  74 07                     JZ   2349h
2342  FF 06 71 85               INC  [8571h]
2346  E9 D9 FF                  JMP  2322h
2349  B8 01 00                  MOV  AX, 0001h
234C  50                        PUSH AX
234D  B8 50 00                  MOV  AX, 0050h
2350  59                        POP  CX
2351  91                        XCHG AX, CX
2352  2B C8                     SUB  CX, AX
2354  7D 03                     JGE  2359h
2356  E9 49 00                  JMP  23A2h
2359  41                        INC  CX
235A  A3 71 85                  MOV  [8571h], AX
235D  51                        PUSH CX
235E  A1 71 85                  MOV  AX, [8571h]
2361  48                        DEC  AX
2362  B9 50 00                  MOV  CX, 0050h
2365  E8 AB 83                  CALL A713h
2368  97                        XCHG AX, DI
2369  57                        PUSH DI
236A  B8 00 00                  MOV  AX, 0000h
236D  5F                        POP  DI
236E  B9 00 00                  MOV  CX, 0000h
2371  BA FF 00                  MOV  DX, 00FFh
2374  E8 A6 83                  CALL A71Dh
2377  88 85 1F 86               MOV  [DI-79E1h], AL
237B  A1 71 85                  MOV  AX, [8571h]
237E  B9 51 00                  MOV  CX, 0051h
2381  E8 8F 83                  CALL A713h
2384  97                        XCHG AX, DI
2385  57                        PUSH DI
2386  B8 00 00                  MOV  AX, 0000h
2389  5F                        POP  DI
238A  B9 00 00                  MOV  CX, 0000h
238D  BA FF 00                  MOV  DX, 00FFh
2390  E8 8A 83                  CALL A71Dh
2393  88 85 C8 85               MOV  [DI-7A38h], AL
2397  59                        POP  CX
2398  49                        DEC  CX
2399  74 07                     JZ   23A2h
239B  FF 06 71 85               INC  [8571h]
239F  E9 BB FF                  JMP  235Dh
23A2  B8 00 00                  MOV  AX, 0000h
23A5  B9 00 00                  MOV  CX, 0000h
23A8  BA FF 00                  MOV  DX, 00FFh
23AB  E8 6F 83                  CALL A71Dh
23AE  A2 C8 85                  MOV  [85C8h], AL
23B1  BF 67 85                  MOV  DI, 8567h
23B4  1E                        PUSH DS
23B5  57                        PUSH DI
23B6  BF 69 85                  MOV  DI, 8569h
23B9  1E                        PUSH DS
23BA  57                        PUSH DI
23BB  BF 6F 85                  MOV  DI, 856Fh
23BE  1E                        PUSH DS
23BF  57                        PUSH DI
23C0  E8 E9 C5                  CALL E9ACh
23C3  A1 6F 85                  MOV  AX, [856Fh]
23C6  3D 00 00                  CMP  AX, 0000h
23C9  75 03                     JNZ  23CEh
23CB  E9 43 00                  JMP  2411h
23CE  E8 E1 98                  CALL BCB2h
23D1  E8 E3 9C                  CALL C0B7h
23D4  19 55 6E                  SBB  [DI+6Eh], DX
23EE  E8 DE 9C                  CALL C0CFh
23F1  E8 BE 98                  CALL BCB2h
23F4  E8 C0 9C                  CALL C0B7h
23F7  11 50 72                  ADC  [BX+SI+72h], DX
2409  E8 C3 9C                  CALL C0CFh
240C  33 C0                     XOR  AX, AX
240E  E9 D2 7F                  JMP  A3E3h
2411  8C D8                     MOV  AX, DS
2413  A3 6B 85                  MOV  [856Bh], AX
2416  BF CE 84                  MOV  DI, 84CEh
2419  97                        XCHG AX, DI
241A  A3 6D 85                  MOV  [856Dh], AX
241D  A1 6B 85                  MOV  AX, [856Bh]
2420  50                        PUSH AX
2421  A1 6D 85                  MOV  AX, [856Dh]
2424  50                        PUSH AX
2425  BF 6F 85                  MOV  DI, 856Fh
2428  1E                        PUSH DS
2429  57                        PUSH DI
242A  E8 41 C5                  CALL E96Eh
242D  A1 6F 85                  MOV  AX, [856Fh]
2430  3D 00 00                  CMP  AX, 0000h
2433  75 03                     JNZ  2438h
2435  E9 3A 00                  JMP  2472h
2438  E8 77 98                  CALL BCB2h
243B  E8 79 9C                  CALL C0B7h
243E  10 43 61                  ADC  [BP+DI+61h], AL
244F  E8 7D 9C                  CALL C0CFh
2452  E8 5D 98                  CALL BCB2h
2455  E8 5F 9C                  CALL C0B7h
2458  11 50 72                  ADC  [BX+SI+72h], DX
246A  E8 62 9C                  CALL C0CFh
246D  33 C0                     XOR  AX, AX
246F  E9 71 7F                  JMP  A3E3h
2472  B8 00 00                  MOV  AX, 0000h
2475  A3 6F 85                  MOV  [856Fh], AX
2478  B8 FF 00                  MOV  AX, 00FFh
247B  A3 75 85                  MOV  [8575h], AX
247E  B8 01 00                  MOV  AX, 0001h
2481  50                        PUSH AX
2482  8D 7E 04                  LEA  DI, [BP+04h]
2485  16                        PUSH SS
2486  E8 9D 84                  CALL A926h
2489  E8 4C 86                  CALL AAD8h
248C  59                        POP  CX
248D  91                        XCHG AX, CX
248E  2B C8                     SUB  CX, AX
2490  7D 03                     JGE  2495h
2492  E9 39 00                  JMP  24CEh
2495  41                        INC  CX
2496  A3 71 85                  MOV  [8571h], AX
2499  51                        PUSH CX
249A  A1 71 85                  MOV  AX, [8571h]
249D  48                        DEC  AX
249E  B9 50 00                  MOV  CX, 0050h
24A1  E8 6F 82                  CALL A713h
24A4  97                        XCHG AX, DI
24A5  57                        PUSH DI
24A6  A1 71 85                  MOV  AX, [8571h]
24A9  B9 51 00                  MOV  CX, 0051h
24AC  E8 64 82                  CALL A713h
24AF  97                        XCHG AX, DI
24B0  8A 43 04                  MOV  AL, [BP+DI+04h]
24B3  32 E4                     XOR  AH, AH
24B5  5F                        POP  DI
24B6  B9 00 00                  MOV  CX, 0000h
24B9  BA FF 00                  MOV  DX, 00FFh
24BC  E8 5E 82                  CALL A71Dh
24BF  88 85 1F 86               MOV  [DI-79E1h], AL
24C3  59                        POP  CX
24C4  49                        DEC  CX
24C5  74 07                     JZ   24CEh
24C7  FF 06 71 85               INC  [8571h]
24CB  E9 CB FF                  JMP  2499h
24CE  BF 1F 86                  MOV  DI, 861Fh
24D1  1E                        PUSH DS
24D2  B9 50 00                  MOV  CX, 0050h
24D5  E8 B3 81                  CALL A68Bh
24D8  BF C8 85                  MOV  DI, 85C8h
24DB  1E                        PUSH DS
24DC  57                        PUSH DI
24DD  BF 19 86                  MOV  DI, 8619h
24E0  1E                        PUSH DS
24E1  57                        PUSH DI
24E2  A1 6B 85                  MOV  AX, [856Bh]
24E5  50                        PUSH AX
24E6  A1 6D 85                  MOV  AX, [856Dh]
24E9  50                        PUSH AX
24EA  A1 75 85                  MOV  AX, [8575h]
24ED  50                        PUSH AX
24EE  BF 6F 85                  MOV  DI, 856Fh
24F1  1E                        PUSH DS
24F2  57                        PUSH DI
24F3  E8 FA C4                  CALL E9F0h
24F6  A1 6F 85                  MOV  AX, [856Fh]
24F9  3D 00 00                  CMP  AX, 0000h
24FC  74 03                     JZ   2501h
24FE  E9 12 00                  JMP  2513h
2501  8D 7E 55                  LEA  DI, [BP+55h]
2504  16                        PUSH SS
2505  57                        PUSH DI
2506  BF 19 86                  MOV  DI, 8619h
2509  1E                        PUSH DS
250A  E8 C0 8B                  CALL B0CDh
250D  E8 DD 8B                  CALL B0EDh
2510  E9 0E 00                  JMP  2521h
2513  8D 7E 55                  LEA  DI, [BP+55h]
2516  16                        PUSH SS
2517  57                        PUSH DI
2518  B8 FF FF                  MOV  AX, FFFFh
251B  E8 6B 8D                  CALL B289h
251E  E8 CC 8B                  CALL B0EDh
2521  A1 67 85                  MOV  AX, [8567h]
2524  50                        PUSH AX
2525  A1 69 85                  MOV  AX, [8569h]
2528  50                        PUSH AX
2529  BF 6F 85                  MOV  DI, 856Fh
252C  1E                        PUSH DS
252D  57                        PUSH DI
252E  E8 3D C4                  CALL E96Eh
2531  E9 00 00                  JMP  2534h
2534  8B E5                     MOV  SP, BP
2536  5D                        POP  BP
2537  C2 51 00                  RET  0051h
253A  00 00                     ADD  [BX+SI], AL
253C  00 00                     ADD  [BX+SI], AL
253E  00 00                     ADD  [BX+SI], AL
2540  00 00                     ADD  [BX+SI], AL
2542  00 00                     ADD  [BX+SI], AL
2544  00 00                     ADD  [BX+SI], AL
2546  00 00                     ADD  [BX+SI], AL
2548  00 00                     ADD  [BX+SI], AL
254A  00 00                     ADD  [BX+SI], AL
254C  00 00                     ADD  [BX+SI], AL
254E  00 00                     ADD  [BX+SI], AL
2550  00 00                     ADD  [BX+SI], AL
2552  00 00                     ADD  [BX+SI], AL
2554  00 00                     ADD  [BX+SI], AL
2556  00 00                     ADD  [BX+SI], AL
2558  00 00                     ADD  [BX+SI], AL
255A  00 00                     ADD  [BX+SI], AL
255C  00 00                     ADD  [BX+SI], AL
255E  00 00                     ADD  [BX+SI], AL
2560  00 00                     ADD  [BX+SI], AL
2562  00 00                     ADD  [BX+SI], AL
2564  00 00                     ADD  [BX+SI], AL
2566  00 00                     ADD  [BX+SI], AL
2568  00 00                     ADD  [BX+SI], AL
256A  00 00                     ADD  [BX+SI], AL
256C  00 00                     ADD  [BX+SI], AL
256E  00 00                     ADD  [BX+SI], AL
2570  00 00                     ADD  [BX+SI], AL
2572  00 00                     ADD  [BX+SI], AL
2574  00 00                     ADD  [BX+SI], AL
2576  00 00                     ADD  [BX+SI], AL
2578  00 00                     ADD  [BX+SI], AL
257A  00 00                     ADD  [BX+SI], AL
257C  00 00                     ADD  [BX+SI], AL
257E  00 00                     ADD  [BX+SI], AL
2580  00 00                     ADD  [BX+SI], AL
2582  00 00                     ADD  [BX+SI], AL
2584  00 00                     ADD  [BX+SI], AL
2586  00 00                     ADD  [BX+SI], AL
2588  00 00                     ADD  [BX+SI], AL
258A  00 00                     ADD  [BX+SI], AL
258C  00 00                     ADD  [BX+SI], AL
258E  00 00                     ADD  [BX+SI], AL
2590  00 00                     ADD  [BX+SI], AL
2592  00 00                     ADD  [BX+SI], AL
2594  00 00                     ADD  [BX+SI], AL
2596  00 00                     ADD  [BX+SI], AL
2598  00 00                     ADD  [BX+SI], AL
259A  00 00                     ADD  [BX+SI], AL
259C  00 00                     ADD  [BX+SI], AL
259E  00 00                     ADD  [BX+SI], AL
25A0  00 00                     ADD  [BX+SI], AL
25A2  00 00                     ADD  [BX+SI], AL
25A4  00 00                     ADD  [BX+SI], AL
25A6  00 00                     ADD  [BX+SI], AL
25A8  00 00                     ADD  [BX+SI], AL
25AA  00 00                     ADD  [BX+SI], AL
25AC  00 00                     ADD  [BX+SI], AL
25AE  00 00                     ADD  [BX+SI], AL
25B0  00 00                     ADD  [BX+SI], AL
25B2  00 00                     ADD  [BX+SI], AL
25B4  00 00                     ADD  [BX+SI], AL
25B6  00 00                     ADD  [BX+SI], AL
25B8  00 00                     ADD  [BX+SI], AL
25BA  00 00                     ADD  [BX+SI], AL
25BC  00 00                     ADD  [BX+SI], AL
25BE  00 00                     ADD  [BX+SI], AL
25C0  00 00                     ADD  [BX+SI], AL
25C2  00 00                     ADD  [BX+SI], AL
25C4  00 00                     ADD  [BX+SI], AL
25C6  00 00                     ADD  [BX+SI], AL
25C8  00 00                     ADD  [BX+SI], AL
25CA  00 00                     ADD  [BX+SI], AL
25CC  00 00                     ADD  [BX+SI], AL
25CE  00 00                     ADD  [BX+SI], AL
25D0  00 00                     ADD  [BX+SI], AL
25D2  00 00                     ADD  [BX+SI], AL
25D4  00 00                     ADD  [BX+SI], AL
25D6  00 00                     ADD  [BX+SI], AL
25D8  00 00                     ADD  [BX+SI], AL
25DA  00 00                     ADD  [BX+SI], AL
25DC  00 00                     ADD  [BX+SI], AL
25DE  00 00                     ADD  [BX+SI], AL
25E0  00 00                     ADD  [BX+SI], AL
25E2  00 00                     ADD  [BX+SI], AL
25E4  00 00                     ADD  [BX+SI], AL
25E6  00 00                     ADD  [BX+SI], AL
25E8  00 00                     ADD  [BX+SI], AL
25EA  00 00                     ADD  [BX+SI], AL
25EC  00 00                     ADD  [BX+SI], AL
25EE  00 00                     ADD  [BX+SI], AL
25F0  00 00                     ADD  [BX+SI], AL
25F2  00 00                     ADD  [BX+SI], AL
25F4  00 00                     ADD  [BX+SI], AL
25F6  00 00                     ADD  [BX+SI], AL
25F8  00 00                     ADD  [BX+SI], AL
25FA  00 00                     ADD  [BX+SI], AL
25FC  00 00                     ADD  [BX+SI], AL
25FE  00 00                     ADD  [BX+SI], AL
2600  E8 23 81                  CALL A726h
2603  18 04                     SBB  [SI], AL
2605  AD                        LODSW
2606  8B 55 8B                  MOV  DX, [DI-75h]
2609  EC                        IN   AL, DX
260A  55                        PUSH BP
260B  E9 00 00                  JMP  260Eh
260E  83 EC 21                  SUB  SP, 21h
2611  A0 A4 04                  MOV  AL, [04A4h]
2614  32 E4                     XOR  AH, AH
2616  34 01                     XOR  AL, 01h
2618  75 03                     JNZ  261Dh
261A  E9 41 03                  JMP  295Eh
261D  B8 0F 00                  MOV  AX, 000Fh
2620  50                        PUSH AX
2621  B8 08 00                  MOV  AX, 0008h
2624  50                        PUSH AX
2625  B8 4D 00                  MOV  AX, 004Dh
2628  50                        PUSH AX
2629  B8 11 00                  MOV  AX, 0011h
262C  50                        PUSH AX
262D  E8 0F 86                  CALL AC3Fh
2630  0C 43                     OR   AL, 43h
263D  B1 46                     MOV  CL, 46h
263F  E8 55 86                  CALL AC97h
2642  E8 CC B2                  CALL D911h
2645  B8 01 00                  MOV  AX, 0001h
2648  B9 00 00                  MOV  CX, 0000h
264B  BA 01 00                  MOV  DX, 0001h
264E  E8 CC 83                  CALL AA1Dh
2651  A2 8F 59                  MOV  [598Fh], AL
2654  E8 5B 99                  CALL BFB2h
2657  E8 75 9D                  CALL C3CFh
265A  E8 1F 84                  CALL AA7Ch
265D  E8 52 99                  CALL BFB2h
2660  E8 54 9D                  CALL C3B7h
2663  22 20 45 6E 74 65 72 20...  db  "" Enter Filename for Capture Save: "
2686  E8 F3 83                  CALL AA7Ch
2689  E8 55 99                  CALL BFE1h
268C  BF 16 54                  MOV  DI, 5416h
268F  1E                        PUSH DS
2690  B1 50                     MOV  CL, 50h
2692  E8 78 9B                  CALL C20Dh
2695  E8 E4 83                  CALL AA7Ch
2698  BF 16 54                  MOV  DI, 5416h
269B  1E                        PUSH DS
269C  E8 87 85                  CALL AC26h
269F  E8 36 87                  CALL ADD8h
26A2  3D 00 00                  CMP  AX, 0000h
26A5  74 03                     JZ   26AAh
26A7  E9 06 00                  JMP  26B0h
26AA  E8 17 B4                  CALL DAC4h
26AD  E9 64 03                  JMP  2A14h
26B0  BF B8 54                  MOV  DI, 54B8h
26B3  1E                        PUSH DS
26B4  57                        PUSH DI
26B5  BF 16 54                  MOV  DI, 5416h
26B8  1E                        PUSH DS
26B9  E8 6A 85                  CALL AC26h
26BC  E8 5F 9D                  CALL C41Eh
26BF  BF B8 54                  MOV  DI, 54B8h
26C2  1E                        PUSH DS
26C3  57                        PUSH DI
26C4  B8 80 00                  MOV  AX, 0080h
26C7  E8 05 9F                  CALL C5CFh
26CA  E8 A8 83                  CALL AA75h
26CD  3D 00 00                  CMP  AX, 0000h
26D0  B8 01 00                  MOV  AX, 0001h
26D3  74 01                     JZ   26D6h
26D5  48                        DEC  AX
26D6  B9 00 00                  MOV  CX, 0000h
26D9  BA 01 00                  MOV  DX, 0001h
26DC  E8 3E 83                  CALL AA1Dh
26DF  88 46 DE                  MOV  [BP-22h], AL
26E2  8A 46 DE                  MOV  AL, [BP-22h]
26E5  32 E4                     XOR  AH, AH
26E7  0B C0                     OR   AX, AX
26E9  75 03                     JNZ  26EEh
26EB  E9 9C 00                  JMP  278Ah
26EE  B8 00 00                  MOV  AX, 0000h
26F1  B9 00 00                  MOV  CX, 0000h
26F4  BA 01 00                  MOV  DX, 0001h
26F7  E8 23 83                  CALL AA1Dh
26FA  A2 8F 59                  MOV  [598Fh], AL
26FD  BF B8 54                  MOV  DI, 54B8h
2700  1E                        PUSH DS
2701  E8 64 9D                  CALL C468h
2704  E8 75 83                  CALL AA7Ch
2707  E8 A8 98                  CALL BFB2h
270A  E8 AA 9C                  CALL C3B7h
270D  21 20 57 72 69 74 65 20...  db  "! Write over existing file (N/y) ?"
272F  E8 4A 83                  CALL AA7Ch
2732  8D 7E DF                  LEA  DI, [BP-21h]
2735  16                        PUSH SS
2736  57                        PUSH DI
2737  83 EC 03                  SUB  SP, 03h
273A  E8 D7 A1                  CALL C914h
273D  B1 1E                     MOV  CL, 1Eh
273F  E8 13 85                  CALL AC55h
2742  8D 7E DF                  LEA  DI, [BP-21h]
2745  16                        PUSH SS
2746  E8 DD 84                  CALL AC26h
2749  E8 F3 84                  CALL AC3Fh
274C  00 E8                     ADD  AL, CH
274E  90                        NOP
274F  85 75 03                  TEST [DI+03h], SI
2752  E9 DD FF                  JMP  2732h
2755  E8 5A 98                  CALL BFB2h
2758  8D 7E DF                  LEA  DI, [BP-21h]
275B  16                        PUSH SS
275C  E8 C7 84                  CALL AC26h
275F  B8 00 00                  MOV  AX, 0000h
2762  E8 1B 9C                  CALL C380h
2765  E8 67 9C                  CALL C3CFh
2768  E8 11 83                  CALL AA7Ch
276B  8A 46 E0                  MOV  AL, [BP-20h]
276E  32 E4                     XOR  AH, AH
2770  E8 55 76                  CALL 9DC8h
2775  00 74 03                  ADD  [SI+03h], DH
2778  E9 0F 00                  JMP  278Ah
277B  B8 01 00                  MOV  AX, 0001h
277E  B9 00 00                  MOV  CX, 0000h
2781  BA 01 00                  MOV  DX, 0001h
2784  E8 96 82                  CALL AA1Dh
2787  A2 8F 59                  MOV  [598Fh], AL
278A  BF D1 59                  MOV  DI, 59D1h
278D  1E                        PUSH DS
278E  57                        PUSH DI
278F  BF CA 2D                  MOV  DI, 2DCAh
2792  0E                        PUSH CS
2793  E8 90 84                  CALL AC26h
2796  B1 03                     MOV  CL, 03h
2798  E8 BA 84                  CALL AC55h
279B  A0 8F 59                  MOV  AL, [598Fh]
279E  32 E4                     XOR  AH, AH
27A0  50                        PUSH AX
27A1  BF CA 2D                  MOV  DI, 2DCAh
27A4  0E                        PUSH CS
27A5  E8 7E 84                  CALL AC26h
27A8  E8 94 84                  CALL AC3Fh
27AB  03 59 45                  ADD  BX, [BX+DI+45h]
27AE  53                        PUSH BX
27AF  E8 22 85                  CALL ACD4h
27B2  59                        POP  CX
27B3  23 C1                     AND  AX, CX
27B5  0B C0                     OR   AX, AX
27B7  75 03                     JNZ  27BCh
27B9  E9 A9 00                  JMP  2865h
27BC  E8 F3 97                  CALL BFB2h
27BF  E8 0D 9C                  CALL C3CFh
27C2  E8 B7 82                  CALL AA7Ch
27C5  E8 EA 97                  CALL BFB2h
27C8  E8 EC 9B                  CALL C3B7h
27CB  37 20 47 65 6E 65 72 61...  db  "7 Generate Date/Time Stamps during capture mode (Y/n) ? "
2803  E8 76 82                  CALL AA7Ch
2806  8D 7E DF                  LEA  DI, [BP-21h]
2809  16                        PUSH SS
280A  57                        PUSH DI
280B  83 EC 03                  SUB  SP, 03h
280E  E8 03 A1                  CALL C914h
2811  B1 1E                     MOV  CL, 1Eh
2813  E8 3F 84                  CALL AC55h
2816  8D 7E DF                  LEA  DI, [BP-21h]
2819  16                        PUSH SS
281A  E8 09 84                  CALL AC26h
281D  E8 1F 84                  CALL AC3Fh
2820  00 E8                     ADD  AL, CH
2822  BC 84 75                  MOV  SP, 7584h
2825  03 E9                     ADD  BP, CX
2827  DD                        ???
2828  FF E8                     JMPF  AX
282A  86 97 8D 7E               XCHG [BX+7E8Dh], DL
282E  DF                        ???
282F  16                        PUSH SS
2830  E8 F3 83                  CALL AC26h
2833  B8 00 00                  MOV  AX, 0000h
2836  E8 47 9B                  CALL C380h
2839  E8 93 9B                  CALL C3CFh
283C  E8 3D 82                  CALL AA7Ch
283F  8A 46 E0                  MOV  AL, [BP-20h]
2842  32 E4                     XOR  AH, AH
2844  E8 81 75                  CALL 9DC8h
2847  3D 4E 00                  CMP  AX, 004Eh
284A  74 03                     JZ   284Fh
284C  E9 10 00                  JMP  285Fh
284F  BF CA 2D                  MOV  DI, 2DCAh
2852  0E                        PUSH CS
2853  57                        PUSH DI
2854  E8 E8 83                  CALL AC3Fh
2857  02 4E 4F                  ADD  CL, [BP+4Fh]
285A  B1 03                     MOV  CL, 03h
285C  E8 F6 83                  CALL AC55h
285F  B8 FA 00                  MOV  AX, 00FAh
2862  E8 08 74                  CALL 9C6Dh
2865  A0 8F 59                  MOV  AL, [598Fh]
2868  32 E4                     XOR  AH, AH
286A  0B C0                     OR   AX, AX
286C  75 03                     JNZ  2871h
286E  E9 71 00                  JMP  28E2h
2871  BF B8 54                  MOV  DI, 54B8h
2874  1E                        PUSH DS
2875  57                        PUSH DI
2876  B8 80 00                  MOV  AX, 0080h
2879  E8 5A 9D                  CALL C5D6h
287C  E8 F6 81                  CALL AA75h
287F  3D 00 00                  CMP  AX, 0000h
2882  B8 01 00                  MOV  AX, 0001h
2885  74 01                     JZ   2888h
2887  48                        DEC  AX
2888  B9 00 00                  MOV  CX, 0000h
288B  BA 01 00                  MOV  DX, 0001h
288E  E8 8C 81                  CALL AA1Dh
2891  88 46 DD                  MOV  [BP-23h], AL
2894  8A 46 DD                  MOV  AL, [BP-23h]
2897  32 E4                     XOR  AH, AH
2899  34 01                     XOR  AL, 01h
289B  75 03                     JNZ  28A0h
289D  E9 42 00                  JMP  28E2h
28A0  B8 00 00                  MOV  AX, 0000h
28A3  B9 00 00                  MOV  CX, 0000h
28A6  BA 01 00                  MOV  DX, 0001h
28A9  E8 71 81                  CALL AA1Dh
28AC  A2 8F 59                  MOV  [598Fh], AL
28AF  E8 00 97                  CALL BFB2h
28B2  E8 02 9B                  CALL C3B7h
28B5  15 20 2A                  ADC  AX, 2A20h
28CB  E8 01 9B                  CALL C3CFh
28CE  E8 AB 81                  CALL AA7Ch
28D1  BF CA 2D                  MOV  DI, 2DCAh
28D4  0E                        PUSH CS
28D5  57                        PUSH DI
28D6  BF D1 59                  MOV  DI, 59D1h
28D9  1E                        PUSH DS
28DA  E8 49 83                  CALL AC26h
28DD  B1 03                     MOV  CL, 03h
28DF  E8 73 83                  CALL AC55h
28E2  A0 8F 59                  MOV  AL, [598Fh]
28E5  32 E4                     XOR  AH, AH
28E7  0B C0                     OR   AX, AX
28E9  75 03                     JNZ  28EEh
28EB  E9 57 FD                  JMP  2645h
28EE  B8 01 00                  MOV  AX, 0001h
28F1  B9 00 00                  MOV  CX, 0000h
28F4  BA 01 00                  MOV  DX, 0001h
28F7  E8 23 81                  CALL AA1Dh
28FA  A2 A4 04                  MOV  [04A4h], AL
28FD  B8 00 00                  MOV  AX, 0000h
2900  B9 00 00                  MOV  CX, 0000h
2903  BA 01 00                  MOV  DX, 0001h
2906  E8 14 81                  CALL AA1Dh
2909  A2 A5 04                  MOV  [04A5h], AL
290C  B8 01 00                  MOV  AX, 0001h
290F  A3 A6 04                  MOV  [04A6h], AX
2912  BF B0 04                  MOV  DI, 04B0h
2915  1E                        PUSH DS
2916  57                        PUSH DI
2917  B8 00 00                  MOV  AX, 0000h
291A  E8 6C 8C                  CALL B589h
291D  E8 CD 8A                  CALL B3EDh
2920  E8 AB B2                  CALL DBCEh
2923  B8 01 00                  MOV  AX, 0001h
2926  50                        PUSH AX
2927  B8 19 00                  MOV  AX, 0019h
292A  E8 D7 7E                  CALL A804h
292D  2E                        CS:
292E  A1 95 2E                  MOV  AX, [2E95h]
2931  E8 E1 74                  CALL 9E15h
2934  E8 7B 96                  CALL BFB2h
2937  B8 00 00                  MOV  AX, 0000h
293A  50                        PUSH AX
293B  B8 03 00                  MOV  AX, 0003h
293E  E8 D2 99                  CALL C313h
2941  B8 4B 00                  MOV  AX, 004Bh
2944  50                        PUSH AX
2945  B8 00 00                  MOV  AX, 0000h
2948  E8 AC 99                  CALL C2F7h
294B  E8 2E 81                  CALL AA7Ch
294E  2E                        CS:
294F  A1 8D 2E                  MOV  AX, [2E8Dh]
2952  E8 C0 74                  CALL 9E15h
2955  E8 C2 B2                  CALL DC1Ah
2958  E8 69 B1                  CALL DAC4h
295B  E9 B6 00                  JMP  2A14h
295E  B8 00 00                  MOV  AX, 0000h
2961  B9 00 00                  MOV  CX, 0000h
2964  BA 01 00                  MOV  DX, 0001h
2967  E8 B3 80                  CALL AA1Dh
296A  A2 A4 04                  MOV  [04A4h], AL
296D  BF CA 2D                  MOV  DI, 2DCAh
2970  0E                        PUSH CS
2971  57                        PUSH DI
2972  BF D1 59                  MOV  DI, 59D1h
2975  1E                        PUSH DS
2976  E8 AD 82                  CALL AC26h
2979  B1 03                     MOV  CL, 03h
297B  E8 D7 82                  CALL AC55h
297E  A0 A5 04                  MOV  AL, [04A5h]
2981  32 E4                     XOR  AH, AH
2983  34 01                     XOR  AL, 01h
2985  75 03                     JNZ  298Ah
2987  E9 10 00                  JMP  299Ah
298A  B8 1A 00                  MOV  AX, 001Ah
298D  B9 00 00                  MOV  CX, 0000h
2990  BA FF 00                  MOV  DX, 00FFh
2993  E8 87 80                  CALL AA1Dh
2996  50                        PUSH AX
2997  E8 1E D2                  CALL FBB8h
299A  BF B8 54                  MOV  DI, 54B8h
299D  1E                        PUSH DS
299E  E8 C7 9A                  CALL C468h
29A1  E8 D8 80                  CALL AA7Ch
29A4  E8 5B 9F                  CALL C902h
29A7  A0 9E 91                  MOV  AL, [919Eh]
29AA  32 E4                     XOR  AH, AH
29AC  3D 00 00                  CMP  AX, 0000h
29AF  75 03                     JNZ  29B4h
29B1  E9 10 00                  JMP  29C4h
29B4  B8 00 00                  MOV  AX, 0000h
29B7  B9 00 00                  MOV  CX, 0000h
29BA  BA 01 00                  MOV  DX, 0001h
29BD  E8 5D 80                  CALL AA1Dh
29C0  50                        PUSH AX
29C1  E8 CF B4                  CALL DE93h
29C4  E8 07 B2                  CALL DBCEh
29C7  2E                        CS:
29C8  A1 91 2E                  MOV  AX, [2E91h]
29CB  E8 47 74                  CALL 9E15h
29CE  2E                        CS:
29CF  A1 93 2E                  MOV  AX, [2E93h]
29D2  E8 54 74                  CALL 9E29h
29D5  B8 01 00                  MOV  AX, 0001h
29D8  50                        PUSH AX
29D9  B8 19 00                  MOV  AX, 0019h
29DC  E8 25 7E                  CALL A804h
29DF  E8 D0 95                  CALL BFB2h
29E2  81 EC 00 01               SUB  SP, 0100h
29E6  B8 04 00                  MOV  AX, 0004h
29E9  50                        PUSH AX
29EA  B8 20 00                  MOV  AX, 0020h
29ED  B9 00 00                  MOV  CX, 0000h
29F0  BA FF 00                  MOV  DX, 00FFh
29F3  E8 27 80                  CALL AA1Dh
29F6  50                        PUSH AX
29F7  E8 F9 9F                  CALL C9F3h
29FA  B8 00 00                  MOV  AX, 0000h
29FD  E8 80 99                  CALL C380h
2A00  E8 79 80                  CALL AA7Ch
2A03  2E                        CS:
2A04  A1 8D 2E                  MOV  AX, [2E8Dh]
2A07  E8 0B 74                  CALL 9E15h
2A0A  2E                        CS:
2A0B  A1 8F 2E                  MOV  AX, [2E8Fh]
2A0E  E8 18 74                  CALL 9E29h
2A11  E8 06 B2                  CALL DC1Ah
2A14  E9 00 00                  JMP  2A17h
2A17  8B E5                     MOV  SP, BP
2A19  5D                        POP  BP
2A1A  C3                        RET
2A1B  00 00                     ADD  [BX+SI], AL
2A1D  00 00                     ADD  [BX+SI], AL
2A1F  00 00                     ADD  [BX+SI], AL
2A21  00 00                     ADD  [BX+SI], AL
2A23  00 00                     ADD  [BX+SI], AL
2A25  00 00                     ADD  [BX+SI], AL
2A27  00 00                     ADD  [BX+SI], AL
2A29  00 00                     ADD  [BX+SI], AL
2A2B  00 00                     ADD  [BX+SI], AL
2A2D  00 00                     ADD  [BX+SI], AL
2A2F  00 00                     ADD  [BX+SI], AL
2A31  00 00                     ADD  [BX+SI], AL
2A33  00 00                     ADD  [BX+SI], AL
2A35  00 00                     ADD  [BX+SI], AL
2A37  00 00                     ADD  [BX+SI], AL
2A39  00 00                     ADD  [BX+SI], AL
2A3B  00 00                     ADD  [BX+SI], AL
2A3D  00 00                     ADD  [BX+SI], AL
2A3F  00 00                     ADD  [BX+SI], AL
2A41  00 00                     ADD  [BX+SI], AL
2A43  00 00                     ADD  [BX+SI], AL
2A45  00 00                     ADD  [BX+SI], AL
2A47  00 00                     ADD  [BX+SI], AL
2A49  00 00                     ADD  [BX+SI], AL
2A4B  00 00                     ADD  [BX+SI], AL
2A4D  00 00                     ADD  [BX+SI], AL
2A4F  00 00                     ADD  [BX+SI], AL
2A51  00 00                     ADD  [BX+SI], AL
2A53  00 00                     ADD  [BX+SI], AL
2A55  00 00                     ADD  [BX+SI], AL
2A57  00 00                     ADD  [BX+SI], AL
2A59  00 00                     ADD  [BX+SI], AL
2A5B  00 00                     ADD  [BX+SI], AL
2A5D  00 00                     ADD  [BX+SI], AL
2A5F  00 00                     ADD  [BX+SI], AL
2A61  00 00                     ADD  [BX+SI], AL
2A63  00 00                     ADD  [BX+SI], AL
2A65  00 00                     ADD  [BX+SI], AL
2A67  00 00                     ADD  [BX+SI], AL
2A69  00 00                     ADD  [BX+SI], AL
2A6B  00 00                     ADD  [BX+SI], AL
2A6D  00 00                     ADD  [BX+SI], AL
2A6F  00 00                     ADD  [BX+SI], AL
2A71  00 00                     ADD  [BX+SI], AL
2A73  00 00                     ADD  [BX+SI], AL
2A75  00 00                     ADD  [BX+SI], AL
2A77  00 00                     ADD  [BX+SI], AL
2A79  00 00                     ADD  [BX+SI], AL
2A7B  00 00                     ADD  [BX+SI], AL
2A7D  00 00                     ADD  [BX+SI], AL
2A7F  00 00                     ADD  [BX+SI], AL
2A81  00 00                     ADD  [BX+SI], AL
2A83  00 00                     ADD  [BX+SI], AL
2A85  00 00                     ADD  [BX+SI], AL
2A87  00 00                     ADD  [BX+SI], AL
2A89  00 00                     ADD  [BX+SI], AL
2A8B  00 00                     ADD  [BX+SI], AL
2A8D  00 00                     ADD  [BX+SI], AL
2A8F  00 00                     ADD  [BX+SI], AL
2A91  00 00                     ADD  [BX+SI], AL
2A93  00 00                     ADD  [BX+SI], AL
2A95  00 00                     ADD  [BX+SI], AL
2A97  00 00                     ADD  [BX+SI], AL
2A99  00 00                     ADD  [BX+SI], AL
2A9B  00 00                     ADD  [BX+SI], AL
2A9D  00 00                     ADD  [BX+SI], AL
2A9F  00 00                     ADD  [BX+SI], AL
2AA1  00 00                     ADD  [BX+SI], AL
2AA3  00 00                     ADD  [BX+SI], AL
2AA5  00 00                     ADD  [BX+SI], AL
2AA7  00 00                     ADD  [BX+SI], AL
2AA9  00 00                     ADD  [BX+SI], AL
2AAB  00 00                     ADD  [BX+SI], AL
2AAD  00 00                     ADD  [BX+SI], AL
2AAF  00 00                     ADD  [BX+SI], AL
2AB1  00 00                     ADD  [BX+SI], AL
2AB3  00 00                     ADD  [BX+SI], AL
2AB5  00 00                     ADD  [BX+SI], AL
2AB7  00 00                     ADD  [BX+SI], AL
2AB9  00 00                     ADD  [BX+SI], AL
2ABB  00 00                     ADD  [BX+SI], AL
2ABD  00 00                     ADD  [BX+SI], AL
2ABF  00 00                     ADD  [BX+SI], AL
2AC1  00 00                     ADD  [BX+SI], AL
2AC3  00 00                     ADD  [BX+SI], AL
2AC5  00 00                     ADD  [BX+SI], AL
2AC7  00 00                     ADD  [BX+SI], AL
2AC9  00 00                     ADD  [BX+SI], AL
2ACB  00 00                     ADD  [BX+SI], AL
2ACD  00 00                     ADD  [BX+SI], AL
2ACF  00 00                     ADD  [BX+SI], AL
2AD1  00 00                     ADD  [BX+SI], AL
2AD3  00 00                     ADD  [BX+SI], AL
2AD5  00 00                     ADD  [BX+SI], AL
2AD7  00 00                     ADD  [BX+SI], AL
2AD9  00 00                     ADD  [BX+SI], AL
2ADB  00 00                     ADD  [BX+SI], AL
2ADD  00 00                     ADD  [BX+SI], AL
2ADF  00 00                     ADD  [BX+SI], AL
2AE1  00 00                     ADD  [BX+SI], AL
2AE3  00 00                     ADD  [BX+SI], AL
2AE5  00 00                     ADD  [BX+SI], AL
2AE7  00 00                     ADD  [BX+SI], AL
2AE9  00 00                     ADD  [BX+SI], AL
2AEB  00 00                     ADD  [BX+SI], AL
2AED  00 00                     ADD  [BX+SI], AL
2AEF  00 00                     ADD  [BX+SI], AL
2AF1  00 00                     ADD  [BX+SI], AL
2AF3  00 00                     ADD  [BX+SI], AL
2AF5  00 00                     ADD  [BX+SI], AL
2AF7  00 00                     ADD  [BX+SI], AL
2AF9  00 00                     ADD  [BX+SI], AL
2AFB  00 00                     ADD  [BX+SI], AL
2AFD  00 00                     ADD  [BX+SI], AL
2AFF  00 E8                     ADD  AL, CH
2B01  23 81 9E 00               AND  AX, [BX+DI+009Eh]
2B05  AD                        LODSW
2B06  8B 55 8B                  MOV  DX, [DI-75h]
2B09  EC                        IN   AL, DX
2B0A  55                        PUSH BP
2B0B  E9 00 00                  JMP  2B0Eh
2B0E  83 EC 05                  SUB  SP, 05h
2B11  B8 3C 00                  MOV  AX, 003Ch
2B14  50                        PUSH AX
2B15  B8 12 00                  MOV  AX, 0012h
2B18  50                        PUSH AX
2B19  B8 50 00                  MOV  AX, 0050h
2B1C  50                        PUSH AX
2B1D  B8 16 00                  MOV  AX, 0016h
2B20  50                        PUSH AX
2B21  E8 1B 86                  CALL B13Fh
2B24  00 B1 46 E8               ADD  [BX+DI-17BAh], DH
2B28  6D                        ???
2B29  86 E8                     XCHG AL, CH
2B2B  E4 B2                     IN   AL, B2h
2B2D  B8 00 00                  MOV  AX, 0000h
2B30  A3 C3 53                  MOV  [53C3h], AX
2B33  E8 7C 99                  CALL C4B2h
2B36  E8 96 9D                  CALL C8CFh
2B39  E8 40 84                  CALL AF7Ch
2B3C  E8 73 99                  CALL C4B2h
2B3F  E8 75 9D                  CALL C8B7h
2B42  0F                        ???
2B43  20 43 6F 6E 74 69 6E 75...  db  " Continue? y/n "
2B52  E8 27 84                  CALL AF7Ch
2B55  E8 89 99                  CALL C4E1h
2B58  8D 7E F9                  LEA  DI, [BP-07h]
2B5B  16                        PUSH SS
2B5C  B1 04                     MOV  CL, 04h
2B5E  E8 AC 9B                  CALL C70Dh
2B61  E8 18 84                  CALL AF7Ch
2B64  8D 7E F9                  LEA  DI, [BP-07h]
2B67  16                        PUSH SS
2B68  57                        PUSH DI
2B69  8A 46 FA                  MOV  AL, [BP-06h]
2B6C  32 E4                     XOR  AH, AH
2B6E  E8 57 77                  CALL A2C8h
2B71  8A E0                     MOV  AH, AL
2B73  B0 01                     MOV  AL, 01h
2B75  50                        PUSH AX
2B76  B1 04                     MOV  CL, 04h
2B78  E8 DA 85                  CALL B155h
2B7B  8A 46 FA                  MOV  AL, [BP-06h]
2B7E  32 E4                     XOR  AH, AH
2B80  3D 4E 00                  CMP  AX, 004Eh
2B83  74 03                     JZ   2B88h
2B85  E9 0F 00                  JMP  2B97h
2B88  B8 00 00                  MOV  AX, 0000h
2B8B  B9 00 00                  MOV  CX, 0000h
2B8E  BA 01 00                  MOV  DX, 0001h
2B91  E8 89 83                  CALL AF1Dh
2B94  A2 A3 02                  MOV  [02A3h], AL
2B97  E8 2A B4                  CALL DFC4h
2B9A  E9 00 00                  JMP  2B9Dh
2B9D  8B E5                     MOV  SP, BP
2B9F  5D                        POP  BP
2BA0  C3                        RET
2BA1  00 00                     ADD  [BX+SI], AL
2BA3  00 00                     ADD  [BX+SI], AL
2BA5  00 00                     ADD  [BX+SI], AL
2BA7  00 00                     ADD  [BX+SI], AL
2BA9  00 00                     ADD  [BX+SI], AL
2BAB  00 00                     ADD  [BX+SI], AL
2BAD  00 00                     ADD  [BX+SI], AL
2BAF  00 00                     ADD  [BX+SI], AL
2BB1  00 00                     ADD  [BX+SI], AL
2BB3  00 00                     ADD  [BX+SI], AL
2BB5  00 00                     ADD  [BX+SI], AL
2BB7  00 00                     ADD  [BX+SI], AL
2BB9  00 00                     ADD  [BX+SI], AL
2BBB  00 00                     ADD  [BX+SI], AL
2BBD  00 00                     ADD  [BX+SI], AL
2BBF  00 00                     ADD  [BX+SI], AL
2BC1  00 00                     ADD  [BX+SI], AL
2BC3  00 00                     ADD  [BX+SI], AL
2BC5  00 00                     ADD  [BX+SI], AL
2BC7  00 00                     ADD  [BX+SI], AL
2BC9  00 00                     ADD  [BX+SI], AL
2BCB  00 00                     ADD  [BX+SI], AL
2BCD  00 00                     ADD  [BX+SI], AL
2BCF  00 00                     ADD  [BX+SI], AL
2BD1  00 00                     ADD  [BX+SI], AL
2BD3  00 00                     ADD  [BX+SI], AL
2BD5  00 00                     ADD  [BX+SI], AL
2BD7  00 00                     ADD  [BX+SI], AL
2BD9  00 00                     ADD  [BX+SI], AL
2BDB  00 00                     ADD  [BX+SI], AL
2BDD  00 00                     ADD  [BX+SI], AL
2BDF  00 00                     ADD  [BX+SI], AL
2BE1  00 00                     ADD  [BX+SI], AL
2BE3  00 00                     ADD  [BX+SI], AL
2BE5  00 00                     ADD  [BX+SI], AL
2BE7  00 00                     ADD  [BX+SI], AL
2BE9  00 00                     ADD  [BX+SI], AL
2BEB  00 00                     ADD  [BX+SI], AL
2BED  00 00                     ADD  [BX+SI], AL
2BEF  00 00                     ADD  [BX+SI], AL
2BF1  00 00                     ADD  [BX+SI], AL
2BF3  00 00                     ADD  [BX+SI], AL
2BF5  00 00                     ADD  [BX+SI], AL
2BF7  00 00                     ADD  [BX+SI], AL
2BF9  00 00                     ADD  [BX+SI], AL
2BFB  00 00                     ADD  [BX+SI], AL
2BFD  00 00                     ADD  [BX+SI], AL
2BFF  00                        ADD  ???, ???